
Chameleon-Mini.elf:     file format elf32-avr

Sections:
Idx Name          Size      VMA       LMA       File off  Algn
  0 .text         00005b6c  00000000  00000000  000000b4  2**1
                  CONTENTS, ALLOC, LOAD, READONLY, CODE
  1 .data         0000004c  00802000  00005b6c  00005c20  2**0
                  CONTENTS, ALLOC, LOAD, DATA
  2 .bss          0000069b  0080204c  0080204c  00005c6c  2**0
                  ALLOC
  3 .eeprom       0000002b  00810000  00810000  00005c6c  2**0
                  CONTENTS, ALLOC, LOAD, DATA
  4 .comment      00000011  00000000  00000000  00005c97  2**0
                  CONTENTS, READONLY
  5 .note.gnu.avr.deviceinfo 00000040  00000000  00000000  00005ca8  2**2
                  CONTENTS, READONLY
  6 .debug_aranges 000009f0  00000000  00000000  00005ce8  2**3
                  CONTENTS, READONLY, DEBUGGING
  7 .debug_info   00017e29  00000000  00000000  000066d8  2**0
                  CONTENTS, READONLY, DEBUGGING
  8 .debug_abbrev 00004b8c  00000000  00000000  0001e501  2**0
                  CONTENTS, READONLY, DEBUGGING
  9 .debug_line   000093b7  00000000  00000000  0002308d  2**0
                  CONTENTS, READONLY, DEBUGGING
 10 .debug_frame  00001bcc  00000000  00000000  0002c444  2**2
                  CONTENTS, READONLY, DEBUGGING
 11 .debug_str    00006680  00000000  00000000  0002e010  2**0
                  CONTENTS, READONLY, DEBUGGING
 12 .debug_loc    0000a314  00000000  00000000  00034690  2**0
                  CONTENTS, READONLY, DEBUGGING
 13 .debug_ranges 00000db0  00000000  00000000  0003e9a4  2**0
                  CONTENTS, READONLY, DEBUGGING

Disassembly of section .text:

00000000 <__vectors>:
       0:	07 c5       	rjmp	.+2574   	; 0xa10 <__ctors_end>
       2:	00 00       	nop
       4:	21 c5       	rjmp	.+2626   	; 0xa48 <__bad_interrupt>
       6:	00 00       	nop
       8:	1f c5       	rjmp	.+2622   	; 0xa48 <__bad_interrupt>
       a:	00 00       	nop
       c:	1d c5       	rjmp	.+2618   	; 0xa48 <__bad_interrupt>
       e:	00 00       	nop
      10:	1b c5       	rjmp	.+2614   	; 0xa48 <__bad_interrupt>
      12:	00 00       	nop
      14:	19 c5       	rjmp	.+2610   	; 0xa48 <__bad_interrupt>
      16:	00 00       	nop
      18:	17 c5       	rjmp	.+2606   	; 0xa48 <__bad_interrupt>
      1a:	00 00       	nop
      1c:	15 c5       	rjmp	.+2602   	; 0xa48 <__bad_interrupt>
      1e:	00 00       	nop
      20:	13 c5       	rjmp	.+2598   	; 0xa48 <__bad_interrupt>
      22:	00 00       	nop
      24:	11 c5       	rjmp	.+2594   	; 0xa48 <__bad_interrupt>
      26:	00 00       	nop
      28:	0f c5       	rjmp	.+2590   	; 0xa48 <__bad_interrupt>
      2a:	00 00       	nop
      2c:	0d c5       	rjmp	.+2586   	; 0xa48 <__bad_interrupt>
      2e:	00 00       	nop
      30:	0b c5       	rjmp	.+2582   	; 0xa48 <__bad_interrupt>
      32:	00 00       	nop
      34:	09 c5       	rjmp	.+2578   	; 0xa48 <__bad_interrupt>
      36:	00 00       	nop
      38:	07 c5       	rjmp	.+2574   	; 0xa48 <__bad_interrupt>
      3a:	00 00       	nop
      3c:	05 c5       	rjmp	.+2570   	; 0xa48 <__bad_interrupt>
      3e:	00 00       	nop
      40:	03 c5       	rjmp	.+2566   	; 0xa48 <__bad_interrupt>
      42:	00 00       	nop
      44:	01 c5       	rjmp	.+2562   	; 0xa48 <__bad_interrupt>
      46:	00 00       	nop
      48:	ff c4       	rjmp	.+2558   	; 0xa48 <__bad_interrupt>
      4a:	00 00       	nop
      4c:	fd c4       	rjmp	.+2554   	; 0xa48 <__bad_interrupt>
      4e:	00 00       	nop
      50:	fb c4       	rjmp	.+2550   	; 0xa48 <__bad_interrupt>
      52:	00 00       	nop
      54:	f9 c4       	rjmp	.+2546   	; 0xa48 <__bad_interrupt>
      56:	00 00       	nop
      58:	0c 94 7a 13 	jmp	0x26f4	; 0x26f4 <__vector_22>
      5c:	f5 c4       	rjmp	.+2538   	; 0xa48 <__bad_interrupt>
      5e:	00 00       	nop
      60:	f3 c4       	rjmp	.+2534   	; 0xa48 <__bad_interrupt>
      62:	00 00       	nop
      64:	f1 c4       	rjmp	.+2530   	; 0xa48 <__bad_interrupt>
      66:	00 00       	nop
      68:	ef c4       	rjmp	.+2526   	; 0xa48 <__bad_interrupt>
      6a:	00 00       	nop
      6c:	ed c4       	rjmp	.+2522   	; 0xa48 <__bad_interrupt>
      6e:	00 00       	nop
      70:	eb c4       	rjmp	.+2518   	; 0xa48 <__bad_interrupt>
      72:	00 00       	nop
      74:	e9 c4       	rjmp	.+2514   	; 0xa48 <__bad_interrupt>
      76:	00 00       	nop
      78:	e7 c4       	rjmp	.+2510   	; 0xa48 <__bad_interrupt>
      7a:	00 00       	nop
      7c:	e5 c4       	rjmp	.+2506   	; 0xa48 <__bad_interrupt>
      7e:	00 00       	nop
      80:	e3 c4       	rjmp	.+2502   	; 0xa48 <__bad_interrupt>
      82:	00 00       	nop
      84:	e1 c4       	rjmp	.+2498   	; 0xa48 <__bad_interrupt>
      86:	00 00       	nop
      88:	0c 94 37 13 	jmp	0x266e	; 0x266e <__vector_34>
      8c:	dd c4       	rjmp	.+2490   	; 0xa48 <__bad_interrupt>
      8e:	00 00       	nop
      90:	db c4       	rjmp	.+2486   	; 0xa48 <__bad_interrupt>
      92:	00 00       	nop
      94:	d9 c4       	rjmp	.+2482   	; 0xa48 <__bad_interrupt>
      96:	00 00       	nop
      98:	d7 c4       	rjmp	.+2478   	; 0xa48 <__bad_interrupt>
      9a:	00 00       	nop
      9c:	d5 c4       	rjmp	.+2474   	; 0xa48 <__bad_interrupt>
      9e:	00 00       	nop
      a0:	d3 c4       	rjmp	.+2470   	; 0xa48 <__bad_interrupt>
      a2:	00 00       	nop
      a4:	d1 c4       	rjmp	.+2466   	; 0xa48 <__bad_interrupt>
      a6:	00 00       	nop
      a8:	cf c4       	rjmp	.+2462   	; 0xa48 <__bad_interrupt>
      aa:	00 00       	nop
      ac:	cd c4       	rjmp	.+2458   	; 0xa48 <__bad_interrupt>
      ae:	00 00       	nop
      b0:	cb c4       	rjmp	.+2454   	; 0xa48 <__bad_interrupt>
      b2:	00 00       	nop
      b4:	c9 c4       	rjmp	.+2450   	; 0xa48 <__bad_interrupt>
      b6:	00 00       	nop
      b8:	c7 c4       	rjmp	.+2446   	; 0xa48 <__bad_interrupt>
      ba:	00 00       	nop
      bc:	c5 c4       	rjmp	.+2442   	; 0xa48 <__bad_interrupt>
      be:	00 00       	nop
      c0:	c3 c4       	rjmp	.+2438   	; 0xa48 <__bad_interrupt>
      c2:	00 00       	nop
      c4:	c1 c4       	rjmp	.+2434   	; 0xa48 <__bad_interrupt>
      c6:	00 00       	nop
      c8:	bf c4       	rjmp	.+2430   	; 0xa48 <__bad_interrupt>
      ca:	00 00       	nop
      cc:	bd c4       	rjmp	.+2426   	; 0xa48 <__bad_interrupt>
      ce:	00 00       	nop
      d0:	bb c4       	rjmp	.+2422   	; 0xa48 <__bad_interrupt>
      d2:	00 00       	nop
      d4:	b9 c4       	rjmp	.+2418   	; 0xa48 <__bad_interrupt>
      d6:	00 00       	nop
      d8:	b7 c4       	rjmp	.+2414   	; 0xa48 <__bad_interrupt>
      da:	00 00       	nop
      dc:	b5 c4       	rjmp	.+2410   	; 0xa48 <__bad_interrupt>
      de:	00 00       	nop
      e0:	b3 c4       	rjmp	.+2406   	; 0xa48 <__bad_interrupt>
      e2:	00 00       	nop
      e4:	b1 c4       	rjmp	.+2402   	; 0xa48 <__bad_interrupt>
      e6:	00 00       	nop
      e8:	0c 94 01 0d 	jmp	0x1a02	; 0x1a02 <__vector_58>
      ec:	ad c4       	rjmp	.+2394   	; 0xa48 <__bad_interrupt>
      ee:	00 00       	nop
      f0:	ab c4       	rjmp	.+2390   	; 0xa48 <__bad_interrupt>
      f2:	00 00       	nop
      f4:	a9 c4       	rjmp	.+2386   	; 0xa48 <__bad_interrupt>
      f6:	00 00       	nop
      f8:	a7 c4       	rjmp	.+2382   	; 0xa48 <__bad_interrupt>
      fa:	00 00       	nop
      fc:	a5 c4       	rjmp	.+2378   	; 0xa48 <__bad_interrupt>
      fe:	00 00       	nop
     100:	a3 c4       	rjmp	.+2374   	; 0xa48 <__bad_interrupt>
     102:	00 00       	nop
     104:	a1 c4       	rjmp	.+2370   	; 0xa48 <__bad_interrupt>
     106:	00 00       	nop
     108:	9f c4       	rjmp	.+2366   	; 0xa48 <__bad_interrupt>
     10a:	00 00       	nop
     10c:	9d c4       	rjmp	.+2362   	; 0xa48 <__bad_interrupt>
     10e:	00 00       	nop
     110:	9b c4       	rjmp	.+2358   	; 0xa48 <__bad_interrupt>
     112:	00 00       	nop
     114:	99 c4       	rjmp	.+2354   	; 0xa48 <__bad_interrupt>
     116:	00 00       	nop
     118:	97 c4       	rjmp	.+2350   	; 0xa48 <__bad_interrupt>
     11a:	00 00       	nop
     11c:	95 c4       	rjmp	.+2346   	; 0xa48 <__bad_interrupt>
     11e:	00 00       	nop
     120:	93 c4       	rjmp	.+2342   	; 0xa48 <__bad_interrupt>
     122:	00 00       	nop
     124:	91 c4       	rjmp	.+2338   	; 0xa48 <__bad_interrupt>
     126:	00 00       	nop
     128:	8f c4       	rjmp	.+2334   	; 0xa48 <__bad_interrupt>
     12a:	00 00       	nop
     12c:	8d c4       	rjmp	.+2330   	; 0xa48 <__bad_interrupt>
     12e:	00 00       	nop
     130:	8b c4       	rjmp	.+2326   	; 0xa48 <__bad_interrupt>
     132:	00 00       	nop
     134:	89 c4       	rjmp	.+2322   	; 0xa48 <__bad_interrupt>
     136:	00 00       	nop
     138:	87 c4       	rjmp	.+2318   	; 0xa48 <__bad_interrupt>
     13a:	00 00       	nop
     13c:	85 c4       	rjmp	.+2314   	; 0xa48 <__bad_interrupt>
     13e:	00 00       	nop
     140:	83 c4       	rjmp	.+2310   	; 0xa48 <__bad_interrupt>
     142:	00 00       	nop
     144:	81 c4       	rjmp	.+2306   	; 0xa48 <__bad_interrupt>
     146:	00 00       	nop
     148:	7f c4       	rjmp	.+2302   	; 0xa48 <__bad_interrupt>
     14a:	00 00       	nop
     14c:	0c 94 16 14 	jmp	0x282c	; 0x282c <__vector_83>
     150:	7b c4       	rjmp	.+2294   	; 0xa48 <__bad_interrupt>
     152:	00 00       	nop
     154:	79 c4       	rjmp	.+2290   	; 0xa48 <__bad_interrupt>
     156:	00 00       	nop
     158:	77 c4       	rjmp	.+2286   	; 0xa48 <__bad_interrupt>
     15a:	00 00       	nop
     15c:	75 c4       	rjmp	.+2282   	; 0xa48 <__bad_interrupt>
     15e:	00 00       	nop
     160:	73 c4       	rjmp	.+2278   	; 0xa48 <__bad_interrupt>
     162:	00 00       	nop
     164:	71 c4       	rjmp	.+2274   	; 0xa48 <__bad_interrupt>
     166:	00 00       	nop
     168:	6f c4       	rjmp	.+2270   	; 0xa48 <__bad_interrupt>
     16a:	00 00       	nop
     16c:	6d c4       	rjmp	.+2266   	; 0xa48 <__bad_interrupt>
     16e:	00 00       	nop
     170:	6b c4       	rjmp	.+2262   	; 0xa48 <__bad_interrupt>
     172:	00 00       	nop
     174:	69 c4       	rjmp	.+2258   	; 0xa48 <__bad_interrupt>
     176:	00 00       	nop
     178:	67 c4       	rjmp	.+2254   	; 0xa48 <__bad_interrupt>
     17a:	00 00       	nop
     17c:	65 c4       	rjmp	.+2250   	; 0xa48 <__bad_interrupt>
     17e:	00 00       	nop
     180:	63 c4       	rjmp	.+2246   	; 0xa48 <__bad_interrupt>
     182:	00 00       	nop
     184:	61 c4       	rjmp	.+2242   	; 0xa48 <__bad_interrupt>
     186:	00 00       	nop
     188:	5f c4       	rjmp	.+2238   	; 0xa48 <__bad_interrupt>
     18a:	00 00       	nop
     18c:	5d c4       	rjmp	.+2234   	; 0xa48 <__bad_interrupt>
     18e:	00 00       	nop
     190:	5b c4       	rjmp	.+2230   	; 0xa48 <__bad_interrupt>
     192:	00 00       	nop
     194:	59 c4       	rjmp	.+2226   	; 0xa48 <__bad_interrupt>
     196:	00 00       	nop
     198:	57 c4       	rjmp	.+2222   	; 0xa48 <__bad_interrupt>
     19a:	00 00       	nop
     19c:	55 c4       	rjmp	.+2218   	; 0xa48 <__bad_interrupt>
     19e:	00 00       	nop
     1a0:	53 c4       	rjmp	.+2214   	; 0xa48 <__bad_interrupt>
     1a2:	00 00       	nop
     1a4:	51 c4       	rjmp	.+2210   	; 0xa48 <__bad_interrupt>
     1a6:	00 00       	nop
     1a8:	4f c4       	rjmp	.+2206   	; 0xa48 <__bad_interrupt>
     1aa:	00 00       	nop
     1ac:	4d c4       	rjmp	.+2202   	; 0xa48 <__bad_interrupt>
     1ae:	00 00       	nop
     1b0:	4b c4       	rjmp	.+2198   	; 0xa48 <__bad_interrupt>
     1b2:	00 00       	nop
     1b4:	49 c4       	rjmp	.+2194   	; 0xa48 <__bad_interrupt>
     1b6:	00 00       	nop
     1b8:	47 c4       	rjmp	.+2190   	; 0xa48 <__bad_interrupt>
     1ba:	00 00       	nop
     1bc:	45 c4       	rjmp	.+2186   	; 0xa48 <__bad_interrupt>
     1be:	00 00       	nop
     1c0:	43 c4       	rjmp	.+2182   	; 0xa48 <__bad_interrupt>
     1c2:	00 00       	nop
     1c4:	41 c4       	rjmp	.+2178   	; 0xa48 <__bad_interrupt>
     1c6:	00 00       	nop
     1c8:	3f c4       	rjmp	.+2174   	; 0xa48 <__bad_interrupt>
     1ca:	00 00       	nop
     1cc:	3d c4       	rjmp	.+2170   	; 0xa48 <__bad_interrupt>
     1ce:	00 00       	nop
     1d0:	3b c4       	rjmp	.+2166   	; 0xa48 <__bad_interrupt>
     1d2:	00 00       	nop
     1d4:	39 c4       	rjmp	.+2162   	; 0xa48 <__bad_interrupt>
     1d6:	00 00       	nop
     1d8:	37 c4       	rjmp	.+2158   	; 0xa48 <__bad_interrupt>
     1da:	00 00       	nop
     1dc:	35 c4       	rjmp	.+2154   	; 0xa48 <__bad_interrupt>
     1de:	00 00       	nop
     1e0:	33 c4       	rjmp	.+2150   	; 0xa48 <__bad_interrupt>
     1e2:	00 00       	nop
     1e4:	31 c4       	rjmp	.+2146   	; 0xa48 <__bad_interrupt>
     1e6:	00 00       	nop
     1e8:	2f c4       	rjmp	.+2142   	; 0xa48 <__bad_interrupt>
     1ea:	00 00       	nop
     1ec:	2d c4       	rjmp	.+2138   	; 0xa48 <__bad_interrupt>
     1ee:	00 00       	nop
     1f0:	2b c4       	rjmp	.+2134   	; 0xa48 <__bad_interrupt>
     1f2:	00 00       	nop
     1f4:	0c 94 3f 27 	jmp	0x4e7e	; 0x4e7e <__vector_125>
     1f8:	27 c4       	rjmp	.+2126   	; 0xa48 <__bad_interrupt>
     1fa:	00 00       	nop

000001fc <ProductString>:
     1fc:	1c 03 4c 00 55 00 46 00 41 00 20 00 43 00 44 00     ..L.U.F.A. .C.D.
     20c:	43 00 20 00 44 00 65 00 6d 00 6f 00 00 00           C. .D.e.m.o...

0000021a <ManufacturerString>:
     21a:	18 03 44 00 65 00 61 00 6e 00 20 00 43 00 61 00     ..D.e.a.n. .C.a.
     22a:	6d 00 65 00 72 00 61 00 00 00                       m.e.r.a...

00000234 <LanguageString>:
     234:	04 03 09 04                                         ....

00000238 <ConfigurationDescriptor>:
     238:	09 02 3e 00 02 01 00 c0 32 09 04 00 00 01 02 02     ..>.....2.......
     248:	01 00 05 24 00 10 01 04 24 02 06 05 24 06 00 01     ...$....$...$...
     258:	07 05 82 03 08 00 ff 09 04 01 00 02 0a 00 00 00     ................
     268:	07 05 04 02 10 00 05 07 05 83 02 10 00 05           ..............

00000276 <DeviceDescriptor>:
     276:	12 01 10 01 02 00 00 08 eb 03 44 20 01 00 01 02     ..........D ....
     286:	dc 01                                               ..

00000288 <ConfigurationTable>:
     288:	02 07 00 00 03 07 04 07 05 07 06 07 07 07 08 07     ................
     298:	0b 07 0c 07 00 04 04 01 fa 14 00 00 31 15 eb 15     ............1...
     2a8:	07 16 0b 16 07 07 0c 16 32 19 45 19 40 00 07 00     ........2.E.@...
     2b8:	fa 14 00 00 31 15 ff 15 07 16 0b 16 07 07 0c 16     ....1...........
     2c8:	32 19 45 19 50 00 07 00 fa 14 00 00 31 15 03 16     2.E.P.......1...
     2d8:	07 16 0b 16 07 07 0c 16 32 19 45 19 a4 00 07 00     ........2.E.....
     2e8:	fa 14 00 00 31 15 84 19 a2 19 a6 19 07 07 a7 19     ....1...........
     2f8:	10 1f 2c 1f 00 04 04 00 fa 14 00 00 31 15 93 19     ..,.........1...
     308:	a2 19 a6 19 07 07 a7 19 10 1f 2c 1f 00 10 04 00     ..........,.....
     318:	fa 14 00 00 31 15 36 22 43 22 a6 19 07 07 c1 20     ....1.6"C"..... 
     328:	10 1f 2c 1f 00 04 04 00                             ..,.....

00000330 <ConfigurationMap>:
     330:	00 43 4c 4f 53 45 44 00 00 00 00 00 00 00 00 00     .CLOSED.........
     340:	00 00 00 00 00 00 00 00 00 00 00 00 00 00 00 00     ................
     350:	00 01 4d 46 5f 55 4c 54 52 41 4c 49 47 48 54 00     ..MF_ULTRALIGHT.
     360:	00 00 00 00 00 00 00 00 00 00 00 00 00 00 00 00     ................
     370:	00 00 02 4d 46 5f 55 4c 54 52 41 4c 49 47 48 54     ...MF_ULTRALIGHT
     380:	5f 45 56 31 5f 38 30 42 00 00 00 00 00 00 00 00     _EV1_80B........
     390:	00 00 00 03 4d 46 5f 55 4c 54 52 41 4c 49 47 48     ....MF_ULTRALIGH
     3a0:	54 5f 45 56 31 5f 31 36 34 42 00 00 00 00 00 00     T_EV1_164B......
     3b0:	00 00 00 00 04 4d 46 5f 43 4c 41 53 53 49 43 5f     .....MF_CLASSIC_
     3c0:	31 4b 00 00 00 00 00 00 00 00 00 00 00 00 00 00     1K..............
     3d0:	00 00 00 00 00 05 4d 46 5f 43 4c 41 53 53 49 43     ......MF_CLASSIC
     3e0:	5f 34 4b 00 00 00 00 00 00 00 00 00 00 00 00 00     _4K.............
     3f0:	00 00 00 00 00 00 06 4d 46 5f 44 45 54 45 43 54     .......MF_DETECT
     400:	49 4f 4e 00 00 00 00 00 00 00 00 00 00 00 00 00     ION.............
     410:	00 00 00 00 00 00 00                                .......

00000417 <OddParityByteTable>:
     417:	01 00 00 01 00 01 01 00 00 01 01 00 01 00 00 01     ................
     427:	00 01 01 00 01 00 00 01 01 00 00 01 00 01 01 00     ................
     437:	00 01 01 00 01 00 00 01 01 00 00 01 00 01 01 00     ................
     447:	01 00 00 01 00 01 01 00 00 01 01 00 01 00 00 01     ................
     457:	00 01 01 00 01 00 00 01 01 00 00 01 00 01 01 00     ................
     467:	01 00 00 01 00 01 01 00 00 01 01 00 01 00 00 01     ................
     477:	01 00 00 01 00 01 01 00 00 01 01 00 01 00 00 01     ................
     487:	00 01 01 00 01 00 00 01 01 00 00 01 00 01 01 00     ................
     497:	00 01 01 00 01 00 00 01 01 00 00 01 00 01 01 00     ................
     4a7:	01 00 00 01 00 01 01 00 00 01 01 00 01 00 00 01     ................
     4b7:	01 00 00 01 00 01 01 00 00 01 01 00 01 00 00 01     ................
     4c7:	00 01 01 00 01 00 00 01 01 00 00 01 00 01 01 00     ................
     4d7:	01 00 00 01 00 01 01 00 00 01 01 00 01 00 00 01     ................
     4e7:	00 01 01 00 01 00 00 01 01 00 00 01 00 01 01 00     ................
     4f7:	00 01 01 00 01 00 00 01 01 00 00 01 00 01 01 00     ................
     507:	01 00 00 01 00 01 01 00 00 01 01 00 01 00 00 01     ................

00000517 <BitReverseByteTable>:
     517:	00 80 40 c0 20 a0 60 e0 10 90 50 d0 30 b0 70 f0     ..@. .`...P.0.p.
     527:	08 88 48 c8 28 a8 68 e8 18 98 58 d8 38 b8 78 f8     ..H.(.h...X.8.x.
     537:	04 84 44 c4 24 a4 64 e4 14 94 54 d4 34 b4 74 f4     ..D.$.d...T.4.t.
     547:	0c 8c 4c cc 2c ac 6c ec 1c 9c 5c dc 3c bc 7c fc     ..L.,.l...\.<.|.
     557:	02 82 42 c2 22 a2 62 e2 12 92 52 d2 32 b2 72 f2     ..B.".b...R.2.r.
     567:	0a 8a 4a ca 2a aa 6a ea 1a 9a 5a da 3a ba 7a fa     ..J.*.j...Z.:.z.
     577:	06 86 46 c6 26 a6 66 e6 16 96 56 d6 36 b6 76 f6     ..F.&.f...V.6.v.
     587:	0e 8e 4e ce 2e ae 6e ee 1e 9e 5e de 3e be 7e fe     ..N...n...^.>.~.
     597:	01 81 41 c1 21 a1 61 e1 11 91 51 d1 31 b1 71 f1     ..A.!.a...Q.1.q.
     5a7:	09 89 49 c9 29 a9 69 e9 19 99 59 d9 39 b9 79 f9     ..I.).i...Y.9.y.
     5b7:	05 85 45 c5 25 a5 65 e5 15 95 55 d5 35 b5 75 f5     ..E.%.e...U.5.u.
     5c7:	0d 8d 4d cd 2d ad 6d ed 1d 9d 5d dd 3d bd 7d fd     ..M.-.m...].=.}.
     5d7:	03 83 43 c3 23 a3 63 e3 13 93 53 d3 33 b3 73 f3     ..C.#.c...S.3.s.
     5e7:	0b 8b 4b cb 2b ab 6b eb 1b 9b 5b db 3b bb 7b fb     ..K.+.k...[.;.{.
     5f7:	07 87 47 c7 27 a7 67 e7 17 97 57 d7 37 b7 77 f7     ..G.'.g...W.7.w.
     607:	0f 8f 4f cf 2f af 6f ef 1f 9f 5f df 3f bf 7f ff     ..O./.o..._.?...

00000617 <ButtonActionTable>:
     617:	43 4c 4f 53 45 44 00 00 00 00 00 00 00 00 00 00     CLOSED..........
     627:	00 00 00 00 00 00 00 00 00 00 00 00 00 00 00 00     ................
     637:	52 41 4e 44 4f 4d 5f 55 49 44 00 00 00 00 00 00     RANDOM_UID......
     647:	00 00 00 00 00 00 00 00 00 00 00 00 00 00 00 00     ................
     657:	55 49 44 5f 4c 45 46 54 5f 49 4e 43 52 45 4d 45     UID_LEFT_INCREME
     667:	4e 54 00 00 00 00 00 00 00 00 00 00 00 00 00 00     NT..............
     677:	55 49 44 5f 52 49 47 48 54 5f 49 4e 43 52 45 4d     UID_RIGHT_INCREM
     687:	45 4e 54 00 00 00 00 00 00 00 00 00 00 00 00 00     ENT.............
     697:	55 49 44 5f 4c 45 46 54 5f 44 45 43 52 45 4d 45     UID_LEFT_DECREME
     6a7:	4e 54 00 00 00 00 00 00 00 00 00 00 00 00 00 00     NT..............
     6b7:	55 49 44 5f 52 49 47 48 54 5f 44 45 43 52 45 4d     UID_RIGHT_DECREM
     6c7:	45 4e 54 00 00 00 00 00 00 00 00 00 00 00 00 00     ENT.............
     6d7:	53 57 49 54 43 48 43 41 52 44 00 00 00 00 00 00     SWITCHCARD......
     6e7:	00 00 00 00 00 00 00 00 00 00 00 00 00 00 00 00     ................

000006f7 <__c.6795>:
     6f7:	25 30 32 78 25 30 32 78 25 30 32 78 25 30 32 78     %02x%02x%02x%02x
     707:	00                                                  .

00000708 <__c.6789>:
     708:	25 35 75 20 6d 56 00                                %5u mV.

0000070f <__c.6738>:
     70f:	25 75 00                                            %u.

00000712 <__c.6733>:
     712:	25 75 00                                            %u.

00000715 <__c.6705>:
     715:	52 41 4e 44 4f 4d 4d 59 00                          RANDOMMY.

0000071e <__c.6682>:
     71e:	43 68 61 6d 65 6c 65 6f 6e 2d 6e 65 77 2d 31 2e     Chameleon-new-1.
     72e:	30 00                                               0.

00000730 <__c.6671>:
     730:	0d 0a 00                                            ...

00000733 <__c.6659>:
     733:	0d 0a 00                                            ...

00000736 <__c.6657>:
     736:	0d 0a 00                                            ...

00000739 <__c.6645>:
     739:	0d 0a 00                                            ...

0000073c <__c.6634>:
     73c:	0d 0a 00                                            ...

0000073f <__c.6632>:
     73f:	0d 0a 00                                            ...

00000742 <StatusTable>:
     742:	64 31 30 30 3a 4f 4b 00 00 00 00 00 00 00 00 00     d100:OK.........
     752:	00 00 00 00 00 00 00 00 00 00 00 00 00 00 00 00     ................
     762:	00 65 31 30 31 3a 4f 4b 20 57 49 54 48 20 54 45     .e101:OK WITH TE
     772:	58 54 00 00 00 00 00 00 00 00 00 00 00 00 00 00     XT..............
     782:	00 00 6e 31 31 30 3a 57 41 49 54 49 4e 47 20 46     ..n110:WAITING F
     792:	4f 52 20 58 4d 4f 44 45 4d 00 00 00 00 00 00 00     OR XMODEM.......
     7a2:	00 00 00 c8 32 30 30 3a 55 4e 4b 4e 4f 57 4e 20     ....200:UNKNOWN 
     7b2:	43 4f 4d 4d 41 4e 44 00 00 00 00 00 00 00 00 00     COMMAND.........
     7c2:	00 00 00 00 c9 32 30 31 3a 49 4e 56 41 4c 49 44     .....201:INVALID
     7d2:	20 43 4f 4d 4d 41 4e 44 20 55 53 41 47 45 00 00      COMMAND USAGE..
     7e2:	00 00 00 00 00 ca 32 30 32 3a 49 4e 56 41 4c 49     ......202:INVALI
     7f2:	44 20 50 41 52 41 4d 45 54 45 52 00 00 00 00 00     D PARAMETER.....
     802:	00 00 00 00 00 00                                   ......

00000808 <CommandTable>:
     808:	56 45 52 53 49 4f 4e 4d 59 00 00 00 00 00 00 00     VERSIONMY.......
     818:	00 00 00 00 00 00 a1 0d 43 4f 4e 46 49 47 4d 59     ........CONFIGMY
     828:	00 00 00 00 00 00 00 00 c2 0d 00 00 b9 0d b4 0d     ................
     838:	55 49 44 4d 59 00 00 00 00 00 00 00 00 00 00 00     UIDMY...........
     848:	00 00 00 00 f0 0d c7 0d 52 45 41 44 4f 4e 4c 59     ........READONLY
     858:	4d 59 00 00 00 00 00 00 00 00 00 00 41 0e 35 0e     MY..........A.5.
     868:	55 50 4c 4f 41 44 4d 59 00 00 00 00 00 00 00 00     UPLOADMY........
     878:	54 0e 00 00 00 00 00 00 44 4f 57 4e 4c 4f 41 44     T.......DOWNLOAD
     888:	4d 59 00 00 00 00 00 00 59 0e 00 00 00 00 00 00     MY......Y.......
     898:	52 45 53 45 54 4d 59 00 00 00 00 00 00 00 00 00     RESETMY.........
     8a8:	5e 0e 00 00 00 00 00 00 55 50 47 52 41 44 45 4d     ^.......UPGRADEM
     8b8:	59 00 00 00 00 00 00 00 68 0e 00 00 00 00 00 00     Y.......h.......
     8c8:	4d 45 4d 53 49 5a 45 4d 59 00 00 00 00 00 00 00     MEMSIZEMY.......
     8d8:	00 00 00 00 00 00 72 0e 55 49 44 53 49 5a 45 4d     ......r.UIDSIZEM
     8e8:	59 00 00 00 00 00 00 00 00 00 00 00 00 00 8a 0e     Y...............
     8f8:	42 55 54 54 4f 4e 4d 59 00 00 00 00 00 00 00 00     BUTTONMY........
     908:	a0 0e 00 00 ac 0e a5 0e 42 55 54 54 4f 4e 5f 4c     ........BUTTON_L
     918:	4f 4e 47 4d 59 00 00 00 b5 0e 00 00 c1 0e ba 0e     ONGMY...........
     928:	53 45 54 54 49 4e 47 4d 59 00 00 00 00 00 00 00     SETTINGMY.......
     938:	00 00 00 00 cf 0e ca 0e 43 4c 45 41 52 4d 59 00     ........CLEARMY.
     948:	00 00 00 00 00 00 00 00 d8 0e 00 00 00 00 00 00     ................
     958:	48 45 4c 50 4d 59 00 00 00 00 00 00 00 00 00 00     HELPMY..........
     968:	db 0e 00 00 00 00 00 00 52 53 53 49 4d 59 00 00     ........RSSIMY..
     978:	00 00 00 00 00 00 00 00 00 00 00 00 00 00 13 0f     ................
     988:	50 57 44 4d 59 00 00 00 00 00 00 00 00 00 00 00     PWDMY...........
     998:	00 00 00 00 00 00 46 0f 44 45 54 45 43 54 49 4f     ......F.DETECTIO
     9a8:	4e 4d 59 00 00 00 00 00 00 00 00 00 00 10 ca 0f     NMY.............
     9b8:	00 00 00 00 00 00 00 00 00 00 00 00 00 00 00 00     ................
     9c8:	00 00 00 00 00 00 00 00                             ........

000009d0 <TableB>:
     9d0:	00 00 00 01 01 01 00 00 01 00 00 01 01 00 01 01     ................
     9e0:	00 00 00 00 00 00 00 00 00 00 00 00 00 00 00 00     ................

000009f0 <TableA>:
     9f0:	00 00 01 01 00 01 00 00 00 01 00 00 01 01 01 01     ................
     a00:	00 00 00 00 00 00 00 00 00 00 00 00 00 00 00 00     ................

00000a10 <__ctors_end>:
     a10:	11 24       	eor	r1, r1
     a12:	1f be       	out	0x3f, r1	; 63
     a14:	cf ef       	ldi	r28, 0xFF	; 255
     a16:	cd bf       	out	0x3d, r28	; 61
     a18:	df e2       	ldi	r29, 0x2F	; 47
     a1a:	de bf       	out	0x3e, r29	; 62

00000a1c <__do_copy_data>:
     a1c:	10 e2       	ldi	r17, 0x20	; 32
     a1e:	a0 e0       	ldi	r26, 0x00	; 0
     a20:	b0 e2       	ldi	r27, 0x20	; 32
     a22:	ec e6       	ldi	r30, 0x6C	; 108
     a24:	fb e5       	ldi	r31, 0x5B	; 91
     a26:	02 c0       	rjmp	.+4      	; 0xa2c <__do_copy_data+0x10>
     a28:	05 90       	lpm	r0, Z+
     a2a:	0d 92       	st	X+, r0
     a2c:	ac 34       	cpi	r26, 0x4C	; 76
     a2e:	b1 07       	cpc	r27, r17
     a30:	d9 f7       	brne	.-10     	; 0xa28 <__do_copy_data+0xc>

00000a32 <__do_clear_bss>:
     a32:	26 e2       	ldi	r18, 0x26	; 38
     a34:	ac e4       	ldi	r26, 0x4C	; 76
     a36:	b0 e2       	ldi	r27, 0x20	; 32
     a38:	01 c0       	rjmp	.+2      	; 0xa3c <.do_clear_bss_start>

00000a3a <.do_clear_bss_loop>:
     a3a:	1d 92       	st	X+, r1

00000a3c <.do_clear_bss_start>:
     a3c:	a7 3e       	cpi	r26, 0xE7	; 231
     a3e:	b2 07       	cpc	r27, r18
     a40:	e1 f7       	brne	.-8      	; 0xa3a <.do_clear_bss_loop>
     a42:	f3 d0       	rcall	.+486    	; 0xc2a <main>
     a44:	0c 94 b4 2d 	jmp	0x5b68	; 0x5b68 <_exit>

00000a48 <__bad_interrupt>:
     a48:	68 c1       	rjmp	.+720    	; 0xd1a <__vector_default>

00000a4a <Crypto1FilterOutput>:
.global Crypto1FilterOutput
.global Crypto1Bit
.global Crypto1Proceed

Crypto1FilterOutput: ; sped up filter function for crypto1
	push r18
     a4a:	2f 93       	push	r18
	push r17 ; push registers we want to use - these need to be preserved, try and switch to better ones later
     a4c:	1f 93       	push	r17
	push r16
     a4e:	0f 93       	push	r16
	lds r22, StateOdd
     a50:	60 91 56 23 	lds	r22, 0x2356	; 0x802356 <StateOdd>
	lds r23, StateOdd+1
     a54:	70 91 57 23 	lds	r23, 0x2357	; 0x802357 <StateOdd+0x1>
	lds r24, StateOdd+2
     a58:	80 91 58 23 	lds	r24, 0x2358	; 0x802358 <StateOdd+0x2>
	mov r21, r22 ; set up each shift value into register
     a5c:	56 2f       	mov	r21, r22
	andi r22, 0xf
     a5e:	6f 70       	andi	r22, 0x0F	; 15
	mov r20, r23
     a60:	47 2f       	mov	r20, r23
	andi r23, 0xf
     a62:	7f 70       	andi	r23, 0x0F	; 15
	andi r24, 0xf
     a64:	8f 70       	andi	r24, 0x0F	; 15
	swap r21
     a66:	52 95       	swap	r21
	andi r21, 0x0f
     a68:	5f 70       	andi	r21, 0x0F	; 15
	swap r20
     a6a:	42 95       	swap	r20
	andi r20, 0x0f
     a6c:	4f 70       	andi	r20, 0x0F	; 15
	ldi r17, 0x0a ; set shift constant 0xEC57E80A - not using reserved registers to save push and pop cycles hence the weird choices
     a6e:	1a e0       	ldi	r17, 0x0A	; 10
	ldi r16, 0xe8
     a70:	08 ee       	ldi	r16, 0xE8	; 232
	ldi r27, 0x57
     a72:	b7 e5       	ldi	r27, 0x57	; 87
	ldi r26, 0xec
     a74:	ac ee       	ldi	r26, 0xEC	; 236
	ldi ZH, hi8(TableA) ; set up first space for lookup
     a76:	f9 e0       	ldi	r31, 0x09	; 9
	ldi ZL, lo8(TableA)
     a78:	e0 ef       	ldi	r30, 0xF0	; 240
	add ZL, r22
     a7a:	e6 0f       	add	r30, r22
	adc ZH, r1
     a7c:	f1 1d       	adc	r31, r1
	lpm r22, Z
     a7e:	64 91       	lpm	r22, Z
	cpi r22, 0
     a80:	60 30       	cpi	r22, 0x00	; 0
	breq Crypto1FilterOutputEndShiftSixteenBit
     a82:	11 f0       	breq	.+4      	; 0xa88 <Crypto1FilterOutputEndShiftSixteenBit>
	mov r16, r26 ; this will shift 16 bits in two operations rather than the ton it usually takes
     a84:	0a 2f       	mov	r16, r26
	mov r17, r27
     a86:	1b 2f       	mov	r17, r27

00000a88 <Crypto1FilterOutputEndShiftSixteenBit>:
Crypto1FilterOutputEndShiftSixteenBit:
	ldi ZH, hi8(TableB) ; set up first space for lookup
     a88:	f9 e0       	ldi	r31, 0x09	; 9
	ldi ZL, lo8(TableB)
     a8a:	e0 ed       	ldi	r30, 0xD0	; 208
	add ZL, r21
     a8c:	e5 0f       	add	r30, r21
	adc ZH, r1
     a8e:	f1 1d       	adc	r31, r1
	lpm r21, Z
     a90:	54 91       	lpm	r21, Z
	cpi r21, 0
     a92:	50 30       	cpi	r21, 0x00	; 0
	breq Crypto1FilterOutputEndShiftEightBit
     a94:	09 f0       	breq	.+2      	; 0xa98 <Crypto1FilterOutputEndShiftEightBit>
	mov r17, r16
     a96:	10 2f       	mov	r17, r16

00000a98 <Crypto1FilterOutputEndShiftEightBit>:
Crypto1FilterOutputEndShiftEightBit:
	ldi ZH, hi8(TableA) ; set up first space for lookup
     a98:	f9 e0       	ldi	r31, 0x09	; 9
	ldi ZL, lo8(TableA)
     a9a:	e0 ef       	ldi	r30, 0xF0	; 240
	add ZL, r23
     a9c:	e7 0f       	add	r30, r23
	adc ZH, r1
     a9e:	f1 1d       	adc	r31, r1
	lpm r23, Z
     aa0:	74 91       	lpm	r23, Z
	cpi r23, 0
     aa2:	70 30       	cpi	r23, 0x00	; 0
	breq Crypto1FilterOutputEndShiftFourBit
     aa4:	11 f0       	breq	.+4      	; 0xaaa <Crypto1FilterOutputEndShiftFourBit>
	swap r17
     aa6:	12 95       	swap	r17
	andi r17, 0x0f ; may not be necessary
     aa8:	1f 70       	andi	r17, 0x0F	; 15

00000aaa <Crypto1FilterOutputEndShiftFourBit>:
Crypto1FilterOutputEndShiftFourBit:
	ldi ZH, hi8(TableA)
     aaa:	f9 e0       	ldi	r31, 0x09	; 9
	ldi ZL, lo8(TableA)
     aac:	e0 ef       	ldi	r30, 0xF0	; 240
	add ZL, r20
     aae:	e4 0f       	add	r30, r20
	adc ZH, r1
     ab0:	f1 1d       	adc	r31, r1
	lpm r20, Z
     ab2:	44 91       	lpm	r20, Z
	cpi r20, 0 ; if its zero, skip
     ab4:	40 30       	cpi	r20, 0x00	; 0
	breq Crypto1FilterOutputEndShiftTwoBit
     ab6:	11 f0       	breq	.+4      	; 0xabc <Crypto1FilterOutputEndShiftTwoBit>
	lsr r17
     ab8:	16 95       	lsr	r17
	lsr r17
     aba:	16 95       	lsr	r17

00000abc <Crypto1FilterOutputEndShiftTwoBit>:
Crypto1FilterOutputEndShiftTwoBit:
	ldi ZH, hi8(TableB)
     abc:	f9 e0       	ldi	r31, 0x09	; 9
	ldi ZL, lo8(TableB)
     abe:	e0 ed       	ldi	r30, 0xD0	; 208
	add ZL, r24
     ac0:	e8 0f       	add	r30, r24
	adc ZH, r1
     ac2:	f1 1d       	adc	r31, r1
	lpm r24, Z
     ac4:	84 91       	lpm	r24, Z
	cpi r24, 0
     ac6:	80 30       	cpi	r24, 0x00	; 0
	breq Crypto1FilterOutputEndShiftOneBit
     ac8:	09 f0       	breq	.+2      	; 0xacc <Crypto1FilterOutputEndShiftOneBit>
	lsr r17
     aca:	16 95       	lsr	r17

00000acc <Crypto1FilterOutputEndShiftOneBit>:
Crypto1FilterOutputEndShiftOneBit:
	andi r17, 0x01
     acc:	11 70       	andi	r17, 0x01	; 1
	mov r24, r17
     ace:	81 2f       	mov	r24, r17
	pop r16
     ad0:	0f 91       	pop	r16
	pop r17
     ad2:	1f 91       	pop	r17
	pop r18
     ad4:	2f 91       	pop	r18
	ret
     ad6:	08 95       	ret

00000ad8 <Crypto1Proceed>:

Crypto1Proceed:
	# 16 bit shift
	eor r22, r24
     ad8:	68 27       	eor	r22, r24
	# 8 bit shift
	eor r22, r23
     ada:	67 27       	eor	r22, r23
	# 4 bit shift
	mov r23, r22
     adc:	76 2f       	mov	r23, r22
	swap r23
     ade:	72 95       	swap	r23
	eor r22, r23
     ae0:	67 27       	eor	r22, r23
	andi r22, 0x0f
     ae2:	6f 70       	andi	r22, 0x0F	; 15
	# load shift value - endianness different to above to save an operation
	ldi r24, 0x96
     ae4:	86 e9       	ldi	r24, 0x96	; 150
	ldi r23, 0x69
     ae6:	79 e6       	ldi	r23, 0x69	; 105
	# shift value loop
	cpi r22, 0 ; if its zero, skip
     ae8:	60 30       	cpi	r22, 0x00	; 0
	breq Crypto1ProceedSixteenBitShiftDone
     aea:	29 f0       	breq	.+10     	; 0xaf6 <Crypto1ProceedSixteenBitShiftDone>

00000aec <Crypto1ProceedSixteenBitShiftCheck>:
Crypto1ProceedSixteenBitShiftCheck:
	lsr r23
     aec:	76 95       	lsr	r23
	ror r24
     aee:	87 95       	ror	r24
	dec r22
     af0:	6a 95       	dec	r22
	cpi r22, 0
     af2:	60 30       	cpi	r22, 0x00	; 0
	brne Crypto1ProceedSixteenBitShiftCheck
     af4:	d9 f7       	brne	.-10     	; 0xaec <Crypto1ProceedSixteenBitShiftCheck>

00000af6 <Crypto1ProceedSixteenBitShiftDone>:
Crypto1ProceedSixteenBitShiftDone:
	andi r24, 0x01
     af6:	81 70       	andi	r24, 0x01	; 1
	ret
     af8:	08 95       	ret

00000afa <Crypto1Bit>:

Crypto1Bit:
	push r24 ; first param
     afa:	8f 93       	push	r24
	push r22 ; second param
     afc:	6f 93       	push	r22
	lds r22, (StateOdd)
     afe:	60 91 56 23 	lds	r22, 0x2356	; 0x802356 <StateOdd>
	lds r23, (StateOdd+1)
     b02:	70 91 57 23 	lds	r23, 0x2357	; 0x802357 <StateOdd+0x1>
	lds r24, (StateOdd+2)
     b06:	80 91 58 23 	lds	r24, 0x2358	; 0x802358 <StateOdd+0x2>
	rcall Crypto1FilterOutput
     b0a:	9f df       	rcall	.-194    	; 0xa4a <Crypto1FilterOutput>
	mov r25, r24 ; r25 contains filter output - r30 and r31 upper bits for calculations
     b0c:	98 2f       	mov	r25, r24
	mov r0, r24
     b0e:	08 2e       	mov	r0, r24
	ldi r30, 0x00
     b10:	e0 e0       	ldi	r30, 0x00	; 0
	ldi r31, 0x00
     b12:	f0 e0       	ldi	r31, 0x00	; 0
	lds r18, (StateEven)
     b14:	20 91 52 23 	lds	r18, 0x2352	; 0x802352 <StateEven>
	lds r19, (StateEven+1)
     b18:	30 91 53 23 	lds	r19, 0x2353	; 0x802353 <StateEven+0x1>
	lds r20, (StateEven+2)
     b1c:	40 91 54 23 	lds	r20, 0x2354	; 0x802354 <StateEven+0x2>
	lds r22, (StateOdd)
     b20:	60 91 56 23 	lds	r22, 0x2356	; 0x802356 <StateOdd>
	lds r23, (StateOdd+1)
     b24:	70 91 57 23 	lds	r23, 0x2357	; 0x802357 <StateOdd+0x1>
	lds r24, (StateOdd+2)
     b28:	80 91 58 23 	lds	r24, 0x2358	; 0x802358 <StateOdd+0x2>
	pop r26 ; second param
     b2c:	af 91       	pop	r26
	pop r27 ; first param
     b2e:	bf 91       	pop	r27

	and r25, r26
     b30:	9a 23       	and	r25, r26
	eor r25, r27
     b32:	9b 27       	eor	r25, r27

	push r16
     b34:	0f 93       	push	r16
	; and xor state 1 with 0x29CE5C
	ldi r16, 0x5c
     b36:	0c e5       	ldi	r16, 0x5C	; 92
	and r22, r16
     b38:	60 23       	and	r22, r16
	ldi r16, 0xce
     b3a:	0e ec       	ldi	r16, 0xCE	; 206
	and r23, r16
     b3c:	70 23       	and	r23, r16
	ldi r16, 0x29
     b3e:	09 e2       	ldi	r16, 0x29	; 41
	and r24, r16
     b40:	80 23       	and	r24, r16
	eor r25, r22
     b42:	96 27       	eor	r25, r22
	eor r30, r23
     b44:	e7 27       	eor	r30, r23
	eor r31, r24
     b46:	f8 27       	eor	r31, r24

	; and xor state 0 with 0x0x870804
	ldi r16, 0x04
     b48:	04 e0       	ldi	r16, 0x04	; 4
	and r18, r16
     b4a:	20 23       	and	r18, r16
	ldi r16, 0x08
     b4c:	08 e0       	ldi	r16, 0x08	; 8
	and r19, r16
     b4e:	30 23       	and	r19, r16
	ldi r16, 0x87
     b50:	07 e8       	ldi	r16, 0x87	; 135
	and r20, r16
     b52:	40 23       	and	r20, r16

	eor r25, r18
     b54:	92 27       	eor	r25, r18
	eor r30, r19
     b56:	e3 27       	eor	r30, r19
	eor r31, r20
     b58:	f4 27       	eor	r31, r20

	; reload again, seriously need to improve this
	lds r18, (StateEven)
     b5a:	20 91 52 23 	lds	r18, 0x2352	; 0x802352 <StateEven>
	lds r19, (StateEven+1)
     b5e:	30 91 53 23 	lds	r19, 0x2353	; 0x802353 <StateEven+0x1>
	lds r20, (StateEven+2)
     b62:	40 91 54 23 	lds	r20, 0x2354	; 0x802354 <StateEven+0x2>

	lsl r18
     b66:	22 0f       	add	r18, r18
	rol r19
     b68:	33 1f       	adc	r19, r19
	rol r20
     b6a:	44 1f       	adc	r20, r20

	; use parity function - r22,r23,r24
	push r24
     b6c:	8f 93       	push	r24
	push r23
     b6e:	7f 93       	push	r23
	push r22
     b70:	6f 93       	push	r22
	mov r22, r25
     b72:	69 2f       	mov	r22, r25
	mov r23, r30
     b74:	7e 2f       	mov	r23, r30
	mov r24, r31
     b76:	8f 2f       	mov	r24, r31
	rcall Crypto1Proceed
     b78:	af df       	rcall	.-162    	; 0xad8 <Crypto1Proceed>
	mov r16, r24
     b7a:	08 2f       	mov	r16, r24
	pop r22
     b7c:	6f 91       	pop	r22
	pop r23
     b7e:	7f 91       	pop	r23
	pop r24
     b80:	8f 91       	pop	r24
	or r18,r16
     b82:	20 2b       	or	r18, r16
	pop r16
     b84:	0f 91       	pop	r16
	lds r22, (StateOdd)
     b86:	60 91 56 23 	lds	r22, 0x2356	; 0x802356 <StateOdd>
	lds r23, (StateOdd+1)
     b8a:	70 91 57 23 	lds	r23, 0x2357	; 0x802357 <StateOdd+0x1>
	lds r24, (StateOdd+2)
     b8e:	80 91 58 23 	lds	r24, 0x2358	; 0x802358 <StateOdd+0x2>

	; store in opposite registers
	sts (StateEven), r22
     b92:	60 93 52 23 	sts	0x2352, r22	; 0x802352 <StateEven>
	sts (StateEven+1), r23
     b96:	70 93 53 23 	sts	0x2353, r23	; 0x802353 <StateEven+0x1>
	sts (StateEven+2), r24
     b9a:	80 93 54 23 	sts	0x2354, r24	; 0x802354 <StateEven+0x2>

	sts(StateOdd), r18
     b9e:	20 93 56 23 	sts	0x2356, r18	; 0x802356 <StateOdd>
	sts(StateOdd+1), r19
     ba2:	30 93 57 23 	sts	0x2357, r19	; 0x802357 <StateOdd+0x1>
	sts(StateOdd+2), r20
     ba6:	40 93 58 23 	sts	0x2358, r20	; 0x802358 <StateOdd+0x2>

	mov r24, r0
     baa:	80 2d       	mov	r24, r0
     bac:	08 95       	ret

00000bae <led_mode>:
	LED_LOW_PORT.OUTSET = Mask;
}

static inline
void CARDHEIGHSetOff(uint8_t Mask) {
	LED_HEIGH_PORT.OUTCLR = Mask;
     bae:	60 e2       	ldi	r22, 0x20	; 32
     bb0:	60 93 06 06 	sts	0x0606, r22	; 0x800606 <__TEXT_REGION_LENGTH__+0x700606>
     bb4:	50 e1       	ldi	r21, 0x10	; 16
     bb6:	50 93 06 06 	sts	0x0606, r21	; 0x800606 <__TEXT_REGION_LENGTH__+0x700606>
     bba:	28 e0       	ldi	r18, 0x08	; 8
     bbc:	20 93 06 06 	sts	0x0606, r18	; 0x800606 <__TEXT_REGION_LENGTH__+0x700606>
     bc0:	94 e0       	ldi	r25, 0x04	; 4
     bc2:	90 93 06 06 	sts	0x0606, r25	; 0x800606 <__TEXT_REGION_LENGTH__+0x700606>
}

static inline
void CARDLOWSetOff(uint8_t Mask) {
	LED_LOW_PORT.OUTCLR = Mask;
     bc6:	20 93 86 06 	sts	0x0686, r18	; 0x800686 <__TEXT_REGION_LENGTH__+0x700686>
     bca:	90 93 86 06 	sts	0x0686, r25	; 0x800686 <__TEXT_REGION_LENGTH__+0x700686>
     bce:	42 e0       	ldi	r20, 0x02	; 2
     bd0:	40 93 86 06 	sts	0x0686, r20	; 0x800686 <__TEXT_REGION_LENGTH__+0x700686>
     bd4:	31 e0       	ldi	r19, 0x01	; 1
     bd6:	30 93 86 06 	sts	0x0686, r19	; 0x800686 <__TEXT_REGION_LENGTH__+0x700686>
	CARDLOWSetOff(LED_FIVE);
	CARDLOWSetOff(LED_SIX);
	CARDLOWSetOff(LED_SEVEN);
	CARDLOWSetOff(LED_EIGHT);

	switch(GlobalSettings.ActiveSetting) {
     bda:	80 91 00 20 	lds	r24, 0x2000	; 0x802000 <GlobalSettings>
     bde:	83 30       	cpi	r24, 0x03	; 3
     be0:	a9 f0       	breq	.+42     	; 0xc0c <led_mode+0x5e>
     be2:	30 f4       	brcc	.+12     	; 0xbf0 <led_mode+0x42>
     be4:	81 30       	cpi	r24, 0x01	; 1
     be6:	61 f0       	breq	.+24     	; 0xc00 <led_mode+0x52>
     be8:	70 f4       	brcc	.+28     	; 0xc06 <led_mode+0x58>
	LED_LOW_PORT.DIRSET = LED_LOW_MASK;
}

static inline
void CARDHEIGHSetOn(uint8_t Mask) {
	LED_HEIGH_PORT.OUTSET = Mask;
     bea:	60 93 05 06 	sts	0x0605, r22	; 0x800605 <__TEXT_REGION_LENGTH__+0x700605>
     bee:	08 95       	ret
     bf0:	85 30       	cpi	r24, 0x05	; 5
     bf2:	91 f0       	breq	.+36     	; 0xc18 <led_mode+0x6a>
     bf4:	70 f0       	brcs	.+28     	; 0xc12 <led_mode+0x64>
     bf6:	86 30       	cpi	r24, 0x06	; 6
     bf8:	91 f0       	breq	.+36     	; 0xc1e <led_mode+0x70>
     bfa:	87 30       	cpi	r24, 0x07	; 7
     bfc:	99 f0       	breq	.+38     	; 0xc24 <led_mode+0x76>
     bfe:	08 95       	ret
     c00:	50 93 05 06 	sts	0x0605, r21	; 0x800605 <__TEXT_REGION_LENGTH__+0x700605>
     c04:	08 95       	ret
     c06:	20 93 05 06 	sts	0x0605, r18	; 0x800605 <__TEXT_REGION_LENGTH__+0x700605>
     c0a:	08 95       	ret
     c0c:	90 93 05 06 	sts	0x0605, r25	; 0x800605 <__TEXT_REGION_LENGTH__+0x700605>
     c10:	08 95       	ret
}

static inline
void CARDLOWSetOn(uint8_t Mask) {
	LED_LOW_PORT.OUTSET = Mask;
     c12:	20 93 85 06 	sts	0x0685, r18	; 0x800685 <__TEXT_REGION_LENGTH__+0x700685>
     c16:	08 95       	ret
     c18:	90 93 85 06 	sts	0x0685, r25	; 0x800685 <__TEXT_REGION_LENGTH__+0x700685>
     c1c:	08 95       	ret
     c1e:	40 93 85 06 	sts	0x0685, r20	; 0x800685 <__TEXT_REGION_LENGTH__+0x700685>
     c22:	08 95       	ret
     c24:	30 93 85 06 	sts	0x0685, r19	; 0x800685 <__TEXT_REGION_LENGTH__+0x700685>
     c28:	08 95       	ret

00000c2a <main>:
		default: break;
	}
}

int main(void) {
	SystemInit();
     c2a:	7d d0       	rcall	.+250    	; 0xd26 <SystemInit>
	MemoryInit();
     c2c:	e6 d1       	rcall	.+972    	; 0xffa <MemoryInit>
	SettingsLoad();
     c2e:	18 d6       	rcall	.+3120   	; 0x1860 <SettingsLoad>
			
extern uint8_t LEDHighPulseMask, LEDLowPulseMask;

static inline
void LEDInit(void) {
	LED_LOW_PORT.DIRSET = LED_LOW_MASK;
     c30:	8f e0       	ldi	r24, 0x0F	; 15
     c32:	80 93 81 06 	sts	0x0681, r24	; 0x800681 <__TEXT_REGION_LENGTH__+0x700681>
	LED_HEIGH_PORT.DIRSET = LED_HEIGH_MASK;
     c36:	9c e3       	ldi	r25, 0x3C	; 60
     c38:	90 93 01 06 	sts	0x0601, r25	; 0x800601 <__TEXT_REGION_LENGTH__+0x700601>
	LEDHighPulseMask = 0;
}

static inline
void CARDInit(void) {
	LED_HEIGH_PORT.DIRSET = LED_HEIGH_MASK;
     c3c:	90 93 01 06 	sts	0x0601, r25	; 0x800601 <__TEXT_REGION_LENGTH__+0x700601>
	LED_LOW_PORT.DIRSET = LED_LOW_MASK;
     c40:	80 93 81 06 	sts	0x0681, r24	; 0x800681 <__TEXT_REGION_LENGTH__+0x700681>
	LEDInit();
	CARDInit();
	ConfigurationInit();
     c44:	07 d1       	rcall	.+526    	; 0xe54 <ConfigurationInit>
	TerminalInit();
     c46:	1e d7       	rcall	.+3644   	; 0x1a84 <TerminalInit>
	RandomInit();
     c48:	42 d1       	rcall	.+644    	; 0xece <RandomInit>
	ButtonInit();
     c4a:	67 d5       	rcall	.+2766   	; 0x171a <ButtonInit>
#define ANTENNA_LEVEL_NUMERATOR	((uint32_t) (ANTENNA_LEVEL_MILLIVOLT * ANTENNA_LEVEL_FACTOR * ANTENNA_LEVEL_SCALE + .5))
#define ANTENNA_LEVEL_DENOMINATOR (ANTENNA_LEVEL_SCALE)

static inline void AntennaLevelInit(void)
{
	ADCA.CTRLA = ADC_ENABLE_bm;
     c4c:	81 e0       	ldi	r24, 0x01	; 1
     c4e:	80 93 00 02 	sts	0x0200, r24	; 0x800200 <__TEXT_REGION_LENGTH__+0x700200>
	ADCA.CTRLB = ADC_RESOLUTION_12BIT_gc;
     c52:	10 92 01 02 	sts	0x0201, r1	; 0x800201 <__TEXT_REGION_LENGTH__+0x700201>
	ADCA.REFCTRL = ADC_REFSEL_INT1V_gc | ADC_BANDGAP_bm;
     c56:	92 e0       	ldi	r25, 0x02	; 2
     c58:	90 93 02 02 	sts	0x0202, r25	; 0x800202 <__TEXT_REGION_LENGTH__+0x700202>
	ADCA.PRESCALER = ADC_PRESCALER_DIV32_gc;
     c5c:	93 e0       	ldi	r25, 0x03	; 3
     c5e:	90 93 04 02 	sts	0x0204, r25	; 0x800204 <__TEXT_REGION_LENGTH__+0x700204>
	ADCA.CH0.CTRL = ADC_CH_INPUTMODE_SINGLEENDED_gc;
     c62:	80 93 20 02 	sts	0x0220, r24	; 0x800220 <__TEXT_REGION_LENGTH__+0x700220>
	ADCA.CH0.MUXCTRL = ADC_CH_MUXPOS_PIN7_gc;
     c66:	88 e3       	ldi	r24, 0x38	; 56
     c68:	80 93 21 02 	sts	0x0221, r24	; 0x800221 <__TEXT_REGION_LENGTH__+0x700221>
	AntennaLevelInit();
	SystemInterruptInit();
     c6c:	c6 d0       	rcall	.+396    	; 0xdfa <SystemInterruptInit>
	led_mode();
     c6e:	9f df       	rcall	.-194    	; 0xbae <led_mode>
}

INLINE bool SystemTick100ms(void)
{
    if (TCE0.INTFLAGS & TC0_OVFIF_bm) {
        TCE0.INTFLAGS = TC0_OVFIF_bm;
     c70:	c1 e0       	ldi	r28, 0x01	; 1

	while(1) {
		TerminalTask();
     c72:	0c d7       	rcall	.+3608   	; 0x1a8c <TerminalTask>
INLINE void CodecInit(void) {
    ActiveConfiguration.CodecInitFunc();
}

INLINE void CodecTask(void) {
    ActiveConfiguration.CodecTaskFunc();
     c74:	e0 91 3e 21 	lds	r30, 0x213E	; 0x80213e <ActiveConfiguration+0x4>
     c78:	f0 91 3f 21 	lds	r31, 0x213F	; 0x80213f <ActiveConfiguration+0x5>
     c7c:	09 95       	icall
INLINE void ApplicationInit(void) {
    ActiveConfiguration.ApplicationInitFunc();
}

INLINE void ApplicationTask(void) {
    ActiveConfiguration.ApplicationTaskFunc();
     c7e:	e0 91 44 21 	lds	r30, 0x2144	; 0x802144 <ActiveConfiguration+0xa>
     c82:	f0 91 45 21 	lds	r31, 0x2145	; 0x802145 <ActiveConfiguration+0xb>
     c86:	09 95       	icall
    return RTC.CNT;
}

INLINE bool SystemTick100ms(void)
{
    if (TCE0.INTFLAGS & TC0_OVFIF_bm) {
     c88:	80 91 0c 0a 	lds	r24, 0x0A0C	; 0x800a0c <__TEXT_REGION_LENGTH__+0x700a0c>
     c8c:	80 ff       	sbrs	r24, 0
     c8e:	f1 cf       	rjmp	.-30     	; 0xc72 <main+0x48>
        TCE0.INTFLAGS = TC0_OVFIF_bm;
     c90:	c0 93 0c 0a 	sts	0x0A0C, r28	; 0x800a0c <__TEXT_REGION_LENGTH__+0x700a0c>
		CodecTask();
		ApplicationTask();

		if (SystemTick100ms()) {
			RandomTick();
     c94:	31 d1       	rcall	.+610    	; 0xef8 <RandomTick>
			TerminalTick();
     c96:	13 d7       	rcall	.+3622   	; 0x1abe <TerminalTick>
			ButtonTick();
     c98:	47 d5       	rcall	.+2702   	; 0x1728 <ButtonTick>
			led_mode();
     c9a:	89 df       	rcall	.-238    	; 0xbae <led_mode>
	LED_LOW_PORT.OUTSET = Mask;
}

static inline
void LEDTick(void) {
	LED_HEIGH_PORT.OUTCLR = LEDLowPulseMask;
     c9c:	80 91 4e 20 	lds	r24, 0x204E	; 0x80204e <LEDLowPulseMask>
     ca0:	80 93 06 06 	sts	0x0606, r24	; 0x800606 <__TEXT_REGION_LENGTH__+0x700606>
	LEDLowPulseMask = 0;
     ca4:	10 92 4e 20 	sts	0x204E, r1	; 0x80204e <LEDLowPulseMask>
	LED_LOW_PORT.OUTCLR = LEDHighPulseMask;
     ca8:	80 91 4d 20 	lds	r24, 0x204D	; 0x80204d <LEDHighPulseMask>
     cac:	80 93 86 06 	sts	0x0686, r24	; 0x800686 <__TEXT_REGION_LENGTH__+0x700686>
	LEDHighPulseMask = 0;
     cb0:	10 92 4d 20 	sts	0x204D, r1	; 0x80204d <LEDHighPulseMask>
     cb4:	de cf       	rjmp	.-68     	; 0xc72 <main+0x48>

00000cb6 <CALLBACK_USB_GetDescriptor>:
 */
uint16_t CALLBACK_USB_GetDescriptor(const uint16_t wValue,
                                    const uint8_t wIndex,
                                    const void** const DescriptorAddress)
{
    const uint8_t  DescriptorType   = (wValue >> 8);
     cb6:	29 2f       	mov	r18, r25
     cb8:	33 27       	eor	r19, r19
    const uint8_t  DescriptorNumber = (wValue & 0xFF);

    const void* Address = NULL;
    uint16_t    Size    = NO_DESCRIPTOR;

    switch (DescriptorType)
     cba:	22 30       	cpi	r18, 0x02	; 2
     cbc:	31 05       	cpc	r19, r1
     cbe:	59 f0       	breq	.+22     	; 0xcd6 <CALLBACK_USB_GetDescriptor+0x20>
     cc0:	23 30       	cpi	r18, 0x03	; 3
     cc2:	31 05       	cpc	r19, r1
     cc4:	69 f0       	breq	.+26     	; 0xce0 <CALLBACK_USB_GetDescriptor+0x2a>
     cc6:	21 30       	cpi	r18, 0x01	; 1
     cc8:	31 05       	cpc	r19, r1
     cca:	f9 f4       	brne	.+62     	; 0xd0a <CALLBACK_USB_GetDescriptor+0x54>
    {
        case DTYPE_Device:
            Address = &DeviceDescriptor;
            Size    = sizeof(USB_Descriptor_Device_t);
     ccc:	82 e1       	ldi	r24, 0x12	; 18
     cce:	90 e0       	ldi	r25, 0x00	; 0
    uint16_t    Size    = NO_DESCRIPTOR;

    switch (DescriptorType)
    {
        case DTYPE_Device:
            Address = &DeviceDescriptor;
     cd0:	26 e7       	ldi	r18, 0x76	; 118
     cd2:	32 e0       	ldi	r19, 0x02	; 2
     cd4:	1e c0       	rjmp	.+60     	; 0xd12 <CALLBACK_USB_GetDescriptor+0x5c>
            Size    = sizeof(USB_Descriptor_Device_t);
            break;
        case DTYPE_Configuration:
            Address = &ConfigurationDescriptor;
            Size    = sizeof(USB_Descriptor_Configuration_t);
     cd6:	8e e3       	ldi	r24, 0x3E	; 62
     cd8:	90 e0       	ldi	r25, 0x00	; 0
        case DTYPE_Device:
            Address = &DeviceDescriptor;
            Size    = sizeof(USB_Descriptor_Device_t);
            break;
        case DTYPE_Configuration:
            Address = &ConfigurationDescriptor;
     cda:	28 e3       	ldi	r18, 0x38	; 56
     cdc:	32 e0       	ldi	r19, 0x02	; 2
            Size    = sizeof(USB_Descriptor_Configuration_t);
            break;
     cde:	19 c0       	rjmp	.+50     	; 0xd12 <CALLBACK_USB_GetDescriptor+0x5c>
     ce0:	99 27       	eor	r25, r25
        case DTYPE_String:
            switch (DescriptorNumber)
     ce2:	81 30       	cpi	r24, 0x01	; 1
     ce4:	91 05       	cpc	r25, r1
     ce6:	41 f0       	breq	.+16     	; 0xcf8 <CALLBACK_USB_GetDescriptor+0x42>
     ce8:	82 30       	cpi	r24, 0x02	; 2
     cea:	91 05       	cpc	r25, r1
     cec:	41 f0       	breq	.+16     	; 0xcfe <CALLBACK_USB_GetDescriptor+0x48>
     cee:	89 2b       	or	r24, r25
     cf0:	61 f4       	brne	.+24     	; 0xd0a <CALLBACK_USB_GetDescriptor+0x54>
            {
                case 0x00:
                    Address = &LanguageString;
                    Size    = pgm_read_byte(&LanguageString.Header.Size);
     cf2:	e4 e3       	ldi	r30, 0x34	; 52
     cf4:	f2 e0       	ldi	r31, 0x02	; 2
     cf6:	05 c0       	rjmp	.+10     	; 0xd02 <CALLBACK_USB_GetDescriptor+0x4c>
                    break;
                case 0x01:
                    Address = &ManufacturerString;
                    Size    = pgm_read_byte(&ManufacturerString.Header.Size);
     cf8:	ea e1       	ldi	r30, 0x1A	; 26
     cfa:	f2 e0       	ldi	r31, 0x02	; 2
     cfc:	02 c0       	rjmp	.+4      	; 0xd02 <CALLBACK_USB_GetDescriptor+0x4c>
                    break;
                case 0x02:
                    Address = &ProductString;
                    Size    = pgm_read_byte(&ProductString.Header.Size);
     cfe:	ec ef       	ldi	r30, 0xFC	; 252
     d00:	f1 e0       	ldi	r31, 0x01	; 1
     d02:	84 91       	lpm	r24, Z
     d04:	90 e0       	ldi	r25, 0x00	; 0
                case 0x01:
                    Address = &ManufacturerString;
                    Size    = pgm_read_byte(&ManufacturerString.Header.Size);
                    break;
                case 0x02:
                    Address = &ProductString;
     d06:	9f 01       	movw	r18, r30
                    Size    = pgm_read_byte(&ProductString.Header.Size);
                    break;
     d08:	04 c0       	rjmp	.+8      	; 0xd12 <CALLBACK_USB_GetDescriptor+0x5c>
{
    const uint8_t  DescriptorType   = (wValue >> 8);
    const uint8_t  DescriptorNumber = (wValue & 0xFF);

    const void* Address = NULL;
    uint16_t    Size    = NO_DESCRIPTOR;
     d0a:	80 e0       	ldi	r24, 0x00	; 0
     d0c:	90 e0       	ldi	r25, 0x00	; 0
                                    const void** const DescriptorAddress)
{
    const uint8_t  DescriptorType   = (wValue >> 8);
    const uint8_t  DescriptorNumber = (wValue & 0xFF);

    const void* Address = NULL;
     d0e:	20 e0       	ldi	r18, 0x00	; 0
     d10:	30 e0       	ldi	r19, 0x00	; 0
            }

            break;
    }

    *DescriptorAddress = Address;
     d12:	fa 01       	movw	r30, r20
     d14:	20 83       	st	Z, r18
     d16:	31 83       	std	Z+1, r19	; 0x01
    return Size;
}
     d18:	08 95       	ret

00000d1a <__vector_default>:

#include "System.h"
#include "LED.h"

ISR(BADISR_vect)
{
     d1a:	1f 92       	push	r1
     d1c:	0f 92       	push	r0
     d1e:	0f b6       	in	r0, 0x3f	; 63
     d20:	0f 92       	push	r0
     d22:	11 24       	eor	r1, r1
    while(1);
     d24:	ff cf       	rjmp	.-2      	; 0xd24 <__vector_default+0xa>

00000d26 <SystemInit>:
}

void SystemInit(void)
{
    if (RST.STATUS & RST_WDRF_bm) {
     d26:	80 91 78 00 	lds	r24, 0x0078	; 0x800078 <__TEXT_REGION_LENGTH__+0x700078>
     d2a:	83 ff       	sbrs	r24, 3
     d2c:	0a c0       	rjmp	.+20     	; 0xd42 <SystemInit+0x1c>
        /* On Watchdog reset clear WDRF bit, disable watchdog
        * and jump into bootloader */
        RST.STATUS = RST_WDRF_bm;
     d2e:	88 e0       	ldi	r24, 0x08	; 8
     d30:	80 93 78 00 	sts	0x0078, r24	; 0x800078 <__TEXT_REGION_LENGTH__+0x700078>

        CCP = CCP_IOREG_gc;
     d34:	88 ed       	ldi	r24, 0xD8	; 216
     d36:	84 bf       	out	0x34, r24	; 52
        WDT.CTRL = WDT_CEN_bm;
     d38:	81 e0       	ldi	r24, 0x01	; 1
     d3a:	80 93 80 00 	sts	0x0080, r24	; 0x800080 <__TEXT_REGION_LENGTH__+0x700080>

        asm volatile ("jmp %0"::"i" (BOOT_SECTION_START + 0x1FC));
     d3e:	fd 95 fe c0 	jmp	0x7f81fc	; 0x7f81fc <__TEXT_REGION_LENGTH__+0x6f81fc>
    }

    /* 32MHz system clock using internal RC and 32K DFLL*/
    OSC.CTRL |= OSC_RC32MEN_bm | OSC_RC32KEN_bm;
     d42:	80 91 50 00 	lds	r24, 0x0050	; 0x800050 <__TEXT_REGION_LENGTH__+0x700050>
     d46:	86 60       	ori	r24, 0x06	; 6
     d48:	80 93 50 00 	sts	0x0050, r24	; 0x800050 <__TEXT_REGION_LENGTH__+0x700050>
    while(!(OSC.STATUS & OSC_RC32MRDY_bm))
     d4c:	80 91 51 00 	lds	r24, 0x0051	; 0x800051 <__TEXT_REGION_LENGTH__+0x700051>
     d50:	81 ff       	sbrs	r24, 1
     d52:	fc cf       	rjmp	.-8      	; 0xd4c <SystemInit+0x26>
        ;
    while(!(OSC.STATUS & OSC_RC32KRDY_bm))
     d54:	80 91 51 00 	lds	r24, 0x0051	; 0x800051 <__TEXT_REGION_LENGTH__+0x700051>
     d58:	82 ff       	sbrs	r24, 2
     d5a:	fc cf       	rjmp	.-8      	; 0xd54 <SystemInit+0x2e>
        ;

    OSC.DFLLCTRL = OSC_RC32MCREF_RC32K_gc;
     d5c:	10 92 56 00 	sts	0x0056, r1	; 0x800056 <__TEXT_REGION_LENGTH__+0x700056>
    DFLLRC32M.CTRL = DFLL_ENABLE_bm;
     d60:	81 e0       	ldi	r24, 0x01	; 1
     d62:	80 93 60 00 	sts	0x0060, r24	; 0x800060 <__TEXT_REGION_LENGTH__+0x700060>

    CCP = CCP_IOREG_gc;
     d66:	98 ed       	ldi	r25, 0xD8	; 216
     d68:	94 bf       	out	0x34, r25	; 52
    CLK.CTRL = CLK_SCLKSEL_RC32M_gc;
     d6a:	80 93 40 00 	sts	0x0040, r24	; 0x800040 <__TEXT_REGION_LENGTH__+0x700040>

    /* Use TCE0 as system tick */
    TCE0.PER = F_CPU / 256 / SYSTEM_TICK_FREQ - 1;
     d6e:	23 ed       	ldi	r18, 0xD3	; 211
     d70:	30 e3       	ldi	r19, 0x30	; 48
     d72:	20 93 26 0a 	sts	0x0A26, r18	; 0x800a26 <__TEXT_REGION_LENGTH__+0x700a26>
     d76:	30 93 27 0a 	sts	0x0A27, r19	; 0x800a27 <__TEXT_REGION_LENGTH__+0x700a27>
    TCE0.CTRLA = TC_CLKSEL_DIV256_gc;
     d7a:	96 e0       	ldi	r25, 0x06	; 6
     d7c:	90 93 00 0a 	sts	0x0A00, r25	; 0x800a00 <__TEXT_REGION_LENGTH__+0x700a00>

    /* Enable RTC with roughly 1kHz clock */
    CLK.RTCCTRL = CLK_RTCSRC_ULP_gc | CLK_RTCEN_bm;
     d80:	80 93 43 00 	sts	0x0043, r24	; 0x800043 <__TEXT_REGION_LENGTH__+0x700043>
    RTC.CTRL = RTC_PRESCALER_DIV1_gc;
     d84:	80 93 00 04 	sts	0x0400, r24	; 0x800400 <__TEXT_REGION_LENGTH__+0x700400>

    /* Enable EEPROM data memory mapping */
    NVM.CTRLB |= NVM_EEMAPEN_bm;
     d88:	80 91 cc 01 	lds	r24, 0x01CC	; 0x8001cc <__TEXT_REGION_LENGTH__+0x7001cc>
     d8c:	88 60       	ori	r24, 0x08	; 8
     d8e:	80 93 cc 01 	sts	0x01CC, r24	; 0x8001cc <__TEXT_REGION_LENGTH__+0x7001cc>
     d92:	08 95       	ret

00000d94 <SystemReset>:
}

void SystemReset(void)
{
    CCP = CCP_IOREG_gc;
     d94:	88 ed       	ldi	r24, 0xD8	; 216
     d96:	84 bf       	out	0x34, r24	; 52
    RST.CTRL = RST_SWRST_bm;
     d98:	81 e0       	ldi	r24, 0x01	; 1
     d9a:	80 93 79 00 	sts	0x0079, r24	; 0x800079 <__TEXT_REGION_LENGTH__+0x700079>
     d9e:	08 95       	ret

00000da0 <SystemEnterBootloader>:
}

void SystemEnterBootloader(void)
{
    /* Use Watchdog timer to reset into bootloader. */
    CCP = CCP_IOREG_gc;
     da0:	88 ed       	ldi	r24, 0xD8	; 216
     da2:	84 bf       	out	0x34, r24	; 52
    WDT.CTRL = WDT_PER_512CLK_gc | WDT_ENABLE_bm | WDT_CEN_bm;
     da4:	8b e1       	ldi	r24, 0x1B	; 27
     da6:	80 93 80 00 	sts	0x0080, r24	; 0x800080 <__TEXT_REGION_LENGTH__+0x700080>
     daa:	08 95       	ret

00000dac <SystemStartUSBClock>:


void SystemStartUSBClock(void)
{
    /* 48MHz USB Clock using 12MHz XTAL */
    OSC.XOSCCTRL = OSC_FRQRANGE_12TO16_gc | OSC_XOSCSEL_XTAL_16KCLK_gc;
     dac:	8b ec       	ldi	r24, 0xCB	; 203
     dae:	80 93 52 00 	sts	0x0052, r24	; 0x800052 <__TEXT_REGION_LENGTH__+0x700052>
    OSC.CTRL |= OSC_XOSCEN_bm;
     db2:	80 91 50 00 	lds	r24, 0x0050	; 0x800050 <__TEXT_REGION_LENGTH__+0x700050>
     db6:	88 60       	ori	r24, 0x08	; 8
     db8:	80 93 50 00 	sts	0x0050, r24	; 0x800050 <__TEXT_REGION_LENGTH__+0x700050>
    while(!(OSC.STATUS & OSC_XOSCRDY_bm))
     dbc:	80 91 51 00 	lds	r24, 0x0051	; 0x800051 <__TEXT_REGION_LENGTH__+0x700051>
     dc0:	83 ff       	sbrs	r24, 3
     dc2:	fc cf       	rjmp	.-8      	; 0xdbc <SystemStartUSBClock+0x10>
        ;

    OSC.PLLCTRL = OSC_PLLSRC_XOSC_gc | (4 << OSC_PLLFAC_gp);
     dc4:	84 ec       	ldi	r24, 0xC4	; 196
     dc6:	80 93 55 00 	sts	0x0055, r24	; 0x800055 <__TEXT_REGION_LENGTH__+0x700055>

    OSC.CTRL |= OSC_PLLEN_bm;
     dca:	80 91 50 00 	lds	r24, 0x0050	; 0x800050 <__TEXT_REGION_LENGTH__+0x700050>
     dce:	80 61       	ori	r24, 0x10	; 16
     dd0:	80 93 50 00 	sts	0x0050, r24	; 0x800050 <__TEXT_REGION_LENGTH__+0x700050>
    while(!(OSC.STATUS & OSC_PLLRDY_bm))
     dd4:	80 91 51 00 	lds	r24, 0x0051	; 0x800051 <__TEXT_REGION_LENGTH__+0x700051>
     dd8:	84 ff       	sbrs	r24, 4
     dda:	fc cf       	rjmp	.-8      	; 0xdd4 <SystemStartUSBClock+0x28>
        ;
}
     ddc:	08 95       	ret

00000dde <SystemStopUSBClock>:

void SystemStopUSBClock(void)
{
    /* Disable USB Clock to minimize power consumption */
    CLK.USBCTRL &= ~CLK_USBSEN_bm;
     dde:	e0 e4       	ldi	r30, 0x40	; 64
     de0:	f0 e0       	ldi	r31, 0x00	; 0
     de2:	84 81       	ldd	r24, Z+4	; 0x04
     de4:	8e 7f       	andi	r24, 0xFE	; 254
     de6:	84 83       	std	Z+4, r24	; 0x04
    OSC.CTRL &= ~OSC_PLLEN_bm;
     de8:	e0 e5       	ldi	r30, 0x50	; 80
     dea:	f0 e0       	ldi	r31, 0x00	; 0
     dec:	80 81       	ld	r24, Z
     dee:	8f 7e       	andi	r24, 0xEF	; 239
     df0:	80 83       	st	Z, r24
    OSC.CTRL &= ~OSC_XOSCEN_bm;
     df2:	80 81       	ld	r24, Z
     df4:	87 7f       	andi	r24, 0xF7	; 247
     df6:	80 83       	st	Z, r24
     df8:	08 95       	ret

00000dfa <SystemInterruptInit>:
}

void SystemInterruptInit(void)
{
    /* Enable all interrupt levels */
    PMIC.CTRL = PMIC_LOLVLEN_bm | PMIC_MEDLVLEN_bm | PMIC_HILVLEN_bm;
     dfa:	87 e0       	ldi	r24, 0x07	; 7
     dfc:	80 93 a2 00 	sts	0x00A2, r24	; 0x8000a2 <__TEXT_REGION_LENGTH__+0x7000a2>
    sei();
     e00:	78 94       	sei
     e02:	08 95       	ret

00000e04 <CodecInitDummy>:

/* Include all Codecs and Applications */
#include "Codec/Codec.h"
#include "Application/Application.h"

static void CodecInitDummy(void) { }
     e04:	08 95       	ret

00000e06 <CodecTaskDummy>:
static void CodecTaskDummy(void) { }
     e06:	08 95       	ret

00000e08 <ApplicationInitDummy>:
static void ApplicationInitDummy(void) {}
     e08:	08 95       	ret

00000e0a <ApplicationResetDummy>:
static void ApplicationResetDummy(void) {}
     e0a:	08 95       	ret

00000e0c <ApplicationTaskDummy>:
static void ApplicationTaskDummy(void) {}
     e0c:	08 95       	ret

00000e0e <ApplicationTickDummy>:
static void ApplicationTickDummy(void) {}
     e0e:	08 95       	ret

00000e10 <ApplicationProcessDummy>:
static uint16_t ApplicationProcessDummy(uint8_t* ByteBuffer, uint16_t ByteCount) { return 0; }
     e10:	80 e0       	ldi	r24, 0x00	; 0
     e12:	90 e0       	ldi	r25, 0x00	; 0
     e14:	08 95       	ret

00000e16 <ApplicationGetUidDummy>:
static void ApplicationGetUidDummy(ConfigurationUidType Uid) { }
     e16:	08 95       	ret

00000e18 <ApplicationSetUidDummy>:
static void ApplicationSetUidDummy(ConfigurationUidType Uid) { }
     e18:	08 95       	ret

00000e1a <ConfigurationSetById>:
{
    ConfigurationSetById(GlobalSettings.ActiveSettingPtr->Configuration);
}

void ConfigurationSetById( ConfigurationEnum Configuration )
{
     e1a:	cf 93       	push	r28
     e1c:	df 93       	push	r29
	GlobalSettings.ActiveSettingPtr->Configuration = Configuration;
     e1e:	e0 91 01 20 	lds	r30, 0x2001	; 0x802001 <GlobalSettings+0x1>
     e22:	f0 91 02 20 	lds	r31, 0x2002	; 0x802002 <GlobalSettings+0x2>
     e26:	82 83       	std	Z+2, r24	; 0x02

    /* Copy struct from PROGMEM to RAM */
    memcpy_P(&ActiveConfiguration, &ConfigurationTable[Configuration], sizeof(ConfigurationType));
     e28:	98 e1       	ldi	r25, 0x18	; 24
     e2a:	89 9f       	mul	r24, r25
     e2c:	b0 01       	movw	r22, r0
     e2e:	11 24       	eor	r1, r1
     e30:	68 57       	subi	r22, 0x78	; 120
     e32:	7d 4f       	sbci	r23, 0xFD	; 253
     e34:	48 e1       	ldi	r20, 0x18	; 24
     e36:	50 e0       	ldi	r21, 0x00	; 0
     e38:	8a e3       	ldi	r24, 0x3A	; 58
     e3a:	91 e2       	ldi	r25, 0x21	; 33
     e3c:	0e 94 56 2a 	call	0x54ac	; 0x54ac <memcpy_P>
#define CODEC_CARRIER_FREQ          13560000

extern uint8_t CodecBuffer[CODEC_BUFFER_SIZE];

INLINE void CodecInit(void) {
    ActiveConfiguration.CodecInitFunc();
     e40:	ca e3       	ldi	r28, 0x3A	; 58
     e42:	d1 e2       	ldi	r29, 0x21	; 33
     e44:	e8 81       	ld	r30, Y
     e46:	f9 81       	ldd	r31, Y+1	; 0x01
     e48:	09 95       	icall
#include "MifareUltralight.h"
#include "Detection.h"

/* Function wrappers */
INLINE void ApplicationInit(void) {
    ActiveConfiguration.ApplicationInitFunc();
     e4a:	ee 81       	ldd	r30, Y+6	; 0x06
     e4c:	ff 81       	ldd	r31, Y+7	; 0x07

    CodecInit();
    ApplicationInit();
}
     e4e:	df 91       	pop	r29
     e50:	cf 91       	pop	r28
     e52:	09 94       	ijmp

00000e54 <ConfigurationInit>:

ConfigurationType ActiveConfiguration;

void ConfigurationInit(void)
{
    ConfigurationSetById(GlobalSettings.ActiveSettingPtr->Configuration);
     e54:	e0 91 01 20 	lds	r30, 0x2001	; 0x802001 <GlobalSettings+0x1>
     e58:	f0 91 02 20 	lds	r31, 0x2002	; 0x802002 <GlobalSettings+0x2>
     e5c:	82 81       	ldd	r24, Z+2	; 0x02
     e5e:	dd cf       	rjmp	.-70     	; 0xe1a <ConfigurationSetById>

00000e60 <ConfigurationGetByName>:
    CodecInit();
    ApplicationInit();
}

void ConfigurationGetByName(char* Configuration, uint16_t BufferSize)
{
     e60:	0f 93       	push	r16
     e62:	1f 93       	push	r17
    MapIdToText(ConfigurationMap, ARRAY_COUNT(ConfigurationMap), GlobalSettings.ActiveSettingPtr->Configuration, Configuration, BufferSize);
     e64:	e0 91 01 20 	lds	r30, 0x2001	; 0x802001 <GlobalSettings+0x1>
     e68:	f0 91 02 20 	lds	r31, 0x2002	; 0x802002 <GlobalSettings+0x2>
     e6c:	8b 01       	movw	r16, r22
     e6e:	9c 01       	movw	r18, r24
     e70:	42 81       	ldd	r20, Z+2	; 0x02
     e72:	67 e0       	ldi	r22, 0x07	; 7
     e74:	80 e3       	ldi	r24, 0x30	; 48
     e76:	93 e0       	ldi	r25, 0x03	; 3
     e78:	4c d5       	rcall	.+2712   	; 0x1912 <MapIdToText>
}
     e7a:	1f 91       	pop	r17
     e7c:	0f 91       	pop	r16
     e7e:	08 95       	ret

00000e80 <ConfigurationSetByName>:

bool ConfigurationSetByName(const char* Configuration)
{
     e80:	1f 93       	push	r17
     e82:	cf 93       	push	r28
     e84:	df 93       	push	r29
     e86:	1f 92       	push	r1
     e88:	cd b7       	in	r28, 0x3d	; 61
     e8a:	de b7       	in	r29, 0x3e	; 62
    MapIdType Id;
	
    if (MapTextToId(ConfigurationMap, ARRAY_COUNT(ConfigurationMap), Configuration, &Id)) {
     e8c:	9e 01       	movw	r18, r28
     e8e:	2f 5f       	subi	r18, 0xFF	; 255
     e90:	3f 4f       	sbci	r19, 0xFF	; 255
     e92:	ac 01       	movw	r20, r24
     e94:	67 e0       	ldi	r22, 0x07	; 7
     e96:	80 e3       	ldi	r24, 0x30	; 48
     e98:	93 e0       	ldi	r25, 0x03	; 3
     e9a:	53 d5       	rcall	.+2726   	; 0x1942 <MapTextToId>
     e9c:	18 2f       	mov	r17, r24
     e9e:	88 23       	and	r24, r24
     ea0:	51 f0       	breq	.+20     	; 0xeb6 <ConfigurationSetByName+0x36>
#ifdef CONFIG_MF_CLASSIC_4K_SUPPORT
		if (Id == CONFIG_MF_CLASSIC_4K && GlobalSettings.ActiveSetting != 0)
     ea2:	89 81       	ldd	r24, Y+1	; 0x01
     ea4:	85 30       	cpi	r24, 0x05	; 5
     ea6:	21 f4       	brne	.+8      	; 0xeb0 <ConfigurationSetByName+0x30>
     ea8:	90 91 00 20 	lds	r25, 0x2000	; 0x802000 <GlobalSettings>
     eac:	91 11       	cpse	r25, r1
     eae:	02 c0       	rjmp	.+4      	; 0xeb4 <ConfigurationSetByName+0x34>
		{
			return false;
		}
#endif
        ConfigurationSetById(Id);
     eb0:	b4 df       	rcall	.-152    	; 0xe1a <ConfigurationSetById>
        return true;
     eb2:	01 c0       	rjmp	.+2      	; 0xeb6 <ConfigurationSetByName+0x36>
    } else {
	return false;
     eb4:	10 e0       	ldi	r17, 0x00	; 0
    }
}
     eb6:	81 2f       	mov	r24, r17
     eb8:	0f 90       	pop	r0
     eba:	df 91       	pop	r29
     ebc:	cf 91       	pop	r28
     ebe:	1f 91       	pop	r17
     ec0:	08 95       	ret

00000ec2 <ConfigurationGetList>:

void ConfigurationGetList(char* List, uint16_t BufferSize)
{
     ec2:	9b 01       	movw	r18, r22
    MapToString(ConfigurationMap, ARRAY_COUNT(ConfigurationMap), List, BufferSize);
     ec4:	ac 01       	movw	r20, r24
     ec6:	67 e0       	ldi	r22, 0x07	; 7
     ec8:	80 e3       	ldi	r24, 0x30	; 48
     eca:	93 e0       	ldi	r25, 0x03	; 3
     ecc:	61 c5       	rjmp	.+2754   	; 0x1990 <MapToString>

00000ece <RandomInit>:
#include "Random.h"

#include <stdlib.h>

void RandomInit(void)
{
     ece:	08 95       	ret

00000ed0 <RandomGetByte>:

}

uint8_t RandomGetByte(void)
{
    return rand() & 0xFF;
     ed0:	0c 94 48 2a 	jmp	0x5490	; 0x5490 <rand>
}
     ed4:	08 95       	ret

00000ed6 <RandomGetBuffer>:

void RandomGetBuffer(void* Buffer, uint8_t ByteCount)
{
     ed6:	1f 93       	push	r17
     ed8:	cf 93       	push	r28
     eda:	df 93       	push	r29
    uint8_t* BufferPtr = (uint8_t*) Buffer;

    while(ByteCount--) {
     edc:	c8 2f       	mov	r28, r24
     ede:	d9 2f       	mov	r29, r25
     ee0:	16 2f       	mov	r17, r22
     ee2:	18 0f       	add	r17, r24
     ee4:	1c 17       	cp	r17, r28
     ee6:	21 f0       	breq	.+8      	; 0xef0 <RandomGetBuffer+0x1a>

}

uint8_t RandomGetByte(void)
{
    return rand() & 0xFF;
     ee8:	0e 94 48 2a 	call	0x5490	; 0x5490 <rand>
void RandomGetBuffer(void* Buffer, uint8_t ByteCount)
{
    uint8_t* BufferPtr = (uint8_t*) Buffer;

    while(ByteCount--) {
        *BufferPtr++ = RandomGetByte();
     eec:	89 93       	st	Y+, r24
     eee:	fa cf       	rjmp	.-12     	; 0xee4 <RandomGetBuffer+0xe>
    }
}
     ef0:	df 91       	pop	r29
     ef2:	cf 91       	pop	r28
     ef4:	1f 91       	pop	r17
     ef6:	08 95       	ret

00000ef8 <RandomTick>:

void RandomTick(void)
{
    rand();
     ef8:	0e 94 48 2a 	call	0x5490	; 0x5490 <rand>
    rand();
     efc:	0e 94 48 2a 	call	0x5490	; 0x5490 <rand>
    rand();
     f00:	0e 94 48 2a 	call	0x5490	; 0x5490 <rand>
    rand();
     f04:	0c 94 48 2a 	jmp	0x5490	; 0x5490 <rand>

00000f08 <BufferToHexString>:
    0,	1,	1,	0,	1,	0,	0,	1,	1,	0,	0,	1,	0,	1,	1,	0,
    1,	0,	0,	1,	0,	1,	1,	0,	0,	1,	1,	0,	1,	0,	0,	1,
};

uint16_t BufferToHexString(char* HexOut, uint16_t MaxChars, const void* Buffer, uint16_t ByteCount)
{
     f08:	ef 92       	push	r14
     f0a:	ff 92       	push	r15
     f0c:	0f 93       	push	r16
     f0e:	1f 93       	push	r17
     f10:	cf 93       	push	r28
     f12:	df 93       	push	r29
     f14:	7c 01       	movw	r14, r24
    uint8_t* ByteBuffer = (uint8_t*) Buffer;
    uint16_t CharCount = 0;

    /* Account for '\0' at the end */
    MaxChars--;
     f16:	61 50       	subi	r22, 0x01	; 1
     f18:	71 09       	sbc	r23, r1
     f1a:	fa 01       	movw	r30, r20
     f1c:	8a 01       	movw	r16, r20
     f1e:	02 0f       	add	r16, r18
     f20:	13 1f       	adc	r17, r19

    while( (ByteCount > 0) && (MaxChars >= 2) ) {
     f22:	dc 01       	movw	r26, r24
};

uint16_t BufferToHexString(char* HexOut, uint16_t MaxChars, const void* Buffer, uint16_t ByteCount)
{
    uint8_t* ByteBuffer = (uint8_t*) Buffer;
    uint16_t CharCount = 0;
     f24:	40 e0       	ldi	r20, 0x00	; 0
     f26:	50 e0       	ldi	r21, 0x00	; 0

    /* Account for '\0' at the end */
    MaxChars--;

    while( (ByteCount > 0) && (MaxChars >= 2) ) {
     f28:	e0 17       	cp	r30, r16
     f2a:	f1 07       	cpc	r31, r17
     f2c:	f1 f0       	breq	.+60     	; 0xf6a <BufferToHexString+0x62>
     f2e:	62 30       	cpi	r22, 0x02	; 2
     f30:	71 05       	cpc	r23, r1
     f32:	d8 f0       	brcs	.+54     	; 0xf6a <BufferToHexString+0x62>
        uint8_t Byte = *ByteBuffer;
     f34:	91 91       	ld	r25, Z+

        HexOut[0] = NIBBLE_TO_HEXCHAR( (Byte >> 4) & 0x0F );
     f36:	39 2f       	mov	r19, r25
     f38:	32 95       	swap	r19
     f3a:	3f 70       	andi	r19, 0x0F	; 15
     f3c:	3a 30       	cpi	r19, 0x0A	; 10
     f3e:	10 f4       	brcc	.+4      	; 0xf44 <BufferToHexString+0x3c>
     f40:	30 5d       	subi	r19, 0xD0	; 208
     f42:	01 c0       	rjmp	.+2      	; 0xf46 <BufferToHexString+0x3e>
     f44:	39 5c       	subi	r19, 0xC9	; 201
     f46:	3c 93       	st	X, r19
        HexOut[1] = NIBBLE_TO_HEXCHAR( (Byte >> 0) & 0x0F );
     f48:	9f 70       	andi	r25, 0x0F	; 15
     f4a:	9a 30       	cpi	r25, 0x0A	; 10
     f4c:	10 f4       	brcc	.+4      	; 0xf52 <BufferToHexString+0x4a>
     f4e:	90 5d       	subi	r25, 0xD0	; 208
     f50:	01 c0       	rjmp	.+2      	; 0xf54 <BufferToHexString+0x4c>
     f52:	99 5c       	subi	r25, 0xC9	; 201
     f54:	97 01       	movw	r18, r14
     f56:	24 0f       	add	r18, r20
     f58:	35 1f       	adc	r19, r21
     f5a:	e9 01       	movw	r28, r18
     f5c:	99 83       	std	Y+1, r25	; 0x01

        HexOut += 2;
     f5e:	12 96       	adiw	r26, 0x02	; 2
        MaxChars -= 2;
     f60:	62 50       	subi	r22, 0x02	; 2
     f62:	71 09       	sbc	r23, r1
        CharCount += 2;
     f64:	4e 5f       	subi	r20, 0xFE	; 254
     f66:	5f 4f       	sbci	r21, 0xFF	; 255
     f68:	df cf       	rjmp	.-66     	; 0xf28 <BufferToHexString+0x20>
        ByteBuffer++;
        ByteCount -= 1;
    }

    *HexOut = '\0';
     f6a:	1c 92       	st	X, r1

    return CharCount;
}
     f6c:	ca 01       	movw	r24, r20
     f6e:	df 91       	pop	r29
     f70:	cf 91       	pop	r28
     f72:	1f 91       	pop	r17
     f74:	0f 91       	pop	r16
     f76:	ff 90       	pop	r15
     f78:	ef 90       	pop	r14
     f7a:	08 95       	ret

00000f7c <HexStringToBuffer>:

uint16_t HexStringToBuffer(void* Buffer, uint16_t MaxBytes, const char* HexIn)
{
     f7c:	cf 93       	push	r28
     f7e:	df 93       	push	r29
     f80:	ec 01       	movw	r28, r24
     f82:	da 01       	movw	r26, r20
    uint8_t* ByteBuffer = (uint8_t*) Buffer;
    uint16_t ByteCount = 0;
     f84:	e0 e0       	ldi	r30, 0x00	; 0
     f86:	f0 e0       	ldi	r31, 0x00	; 0

    while( (HexIn[0] != '\0') && (HexIn[1] != '\0') && (MaxBytes > 0) ) {
     f88:	4c 91       	ld	r20, X
     f8a:	44 23       	and	r20, r20
     f8c:	91 f1       	breq	.+100    	; 0xff2 <HexStringToBuffer+0x76>
     f8e:	11 96       	adiw	r26, 0x01	; 1
     f90:	9c 91       	ld	r25, X
     f92:	11 97       	sbiw	r26, 0x01	; 1
     f94:	99 23       	and	r25, r25
     f96:	39 f1       	breq	.+78     	; 0xfe6 <HexStringToBuffer+0x6a>
     f98:	e6 17       	cp	r30, r22
     f9a:	f7 07       	cpc	r31, r23
     f9c:	21 f1       	breq	.+72     	; 0xfe6 <HexStringToBuffer+0x6a>
        if (VALID_HEXCHAR(HexIn[0]) && VALID_HEXCHAR(HexIn[1])) {
     f9e:	80 ed       	ldi	r24, 0xD0	; 208
     fa0:	84 0f       	add	r24, r20
     fa2:	8a 30       	cpi	r24, 0x0A	; 10
     fa4:	20 f0       	brcs	.+8      	; 0xfae <HexStringToBuffer+0x32>
     fa6:	8f eb       	ldi	r24, 0xBF	; 191
     fa8:	84 0f       	add	r24, r20
     faa:	86 30       	cpi	r24, 0x06	; 6
     fac:	d0 f4       	brcc	.+52     	; 0xfe2 <HexStringToBuffer+0x66>
     fae:	80 ed       	ldi	r24, 0xD0	; 208
     fb0:	89 0f       	add	r24, r25
     fb2:	8a 30       	cpi	r24, 0x0A	; 10
     fb4:	20 f0       	brcs	.+8      	; 0xfbe <HexStringToBuffer+0x42>
     fb6:	2f eb       	ldi	r18, 0xBF	; 191
     fb8:	29 0f       	add	r18, r25
     fba:	26 30       	cpi	r18, 0x06	; 6
     fbc:	90 f4       	brcc	.+36     	; 0xfe2 <HexStringToBuffer+0x66>
     fbe:	24 2f       	mov	r18, r20
     fc0:	30 e0       	ldi	r19, 0x00	; 0
            uint8_t Byte = 0;

            Byte |= HEXCHAR_TO_NIBBLE(HexIn[0]) << 4;
     fc2:	41 34       	cpi	r20, 0x41	; 65
     fc4:	10 f0       	brcs	.+4      	; 0xfca <HexStringToBuffer+0x4e>
     fc6:	27 53       	subi	r18, 0x37	; 55
     fc8:	31 09       	sbc	r19, r1
     fca:	22 95       	swap	r18
     fcc:	20 7f       	andi	r18, 0xF0	; 240
            Byte |= HEXCHAR_TO_NIBBLE(HexIn[1]) << 0;
     fce:	91 34       	cpi	r25, 0x41	; 65
     fd0:	10 f4       	brcc	.+4      	; 0xfd6 <HexStringToBuffer+0x5a>
     fd2:	98 2f       	mov	r25, r24
     fd4:	01 c0       	rjmp	.+2      	; 0xfd8 <HexStringToBuffer+0x5c>
     fd6:	97 53       	subi	r25, 0x37	; 55
     fd8:	29 2b       	or	r18, r25

            *ByteBuffer = Byte;
     fda:	29 93       	st	Y+, r18

            ByteBuffer++;
            MaxBytes--;
            ByteCount++;
     fdc:	31 96       	adiw	r30, 0x01	; 1
            HexIn += 2;
     fde:	12 96       	adiw	r26, 0x02	; 2
{
    uint8_t* ByteBuffer = (uint8_t*) Buffer;
    uint16_t ByteCount = 0;

    while( (HexIn[0] != '\0') && (HexIn[1] != '\0') && (MaxBytes > 0) ) {
        if (VALID_HEXCHAR(HexIn[0]) && VALID_HEXCHAR(HexIn[1])) {
     fe0:	d3 cf       	rjmp	.-90     	; 0xf88 <HexStringToBuffer+0xc>
            MaxBytes--;
            ByteCount++;
            HexIn += 2;
        } else {
            /* HEX chars only */
            return 0;
     fe2:	80 e0       	ldi	r24, 0x00	; 0
     fe4:	04 c0       	rjmp	.+8      	; 0xfee <HexStringToBuffer+0x72>
        }
    }

    if ( (HexIn[0] != '\0') && (HexIn[1] == '\0') ) {
     fe6:	11 96       	adiw	r26, 0x01	; 1
     fe8:	8c 91       	ld	r24, X
     fea:	81 11       	cpse	r24, r1
     fec:	02 c0       	rjmp	.+4      	; 0xff2 <HexStringToBuffer+0x76>
            MaxBytes--;
            ByteCount++;
            HexIn += 2;
        } else {
            /* HEX chars only */
            return 0;
     fee:	90 e0       	ldi	r25, 0x00	; 0
     ff0:	01 c0       	rjmp	.+2      	; 0xff4 <HexStringToBuffer+0x78>
uint16_t HexStringToBuffer(void* Buffer, uint16_t MaxBytes, const char* HexIn)
{
    uint8_t* ByteBuffer = (uint8_t*) Buffer;
    uint16_t ByteCount = 0;

    while( (HexIn[0] != '\0') && (HexIn[1] != '\0') && (MaxBytes > 0) ) {
     ff2:	cf 01       	movw	r24, r30
        /* Odd number of characters */
        return 0;
    }

    return ByteCount;
}
     ff4:	df 91       	pop	r29
     ff6:	cf 91       	pop	r28
     ff8:	08 95       	ret

00000ffa <MemoryInit>:
void MemoryRecall(void) {
	/* Recall memory from permanent flash */
	//FlashRead(Memory, (uint16_t) GlobalSettings.ActiveSettingIdx * MEMORY_SIZE_PER_SETTING, MEMORY_SIZE_PER_SETTING);
}

void MemoryStore(void) {
     ffa:	cf 93       	push	r28
     ffc:	df 93       	push	r29
     ffe:	00 d0       	rcall	.+0      	; 0x1000 <MemoryInit+0x6>
    1000:	00 d0       	rcall	.+0      	; 0x1002 <MemoryInit+0x8>
    1002:	cd b7       	in	r28, 0x3d	; 61
    1004:	de b7       	in	r29, 0x3e	; 62
    1006:	80 e1       	ldi	r24, 0x10	; 16
    1008:	80 93 65 06 	sts	0x0665, r24	; 0x800665 <__TEXT_REGION_LENGTH__+0x700665>
    100c:	92 e0       	ldi	r25, 0x02	; 2
    100e:	90 93 66 06 	sts	0x0666, r25	; 0x800666 <__TEXT_REGION_LENGTH__+0x700666>
    1012:	98 e0       	ldi	r25, 0x08	; 8
    1014:	90 93 65 06 	sts	0x0665, r25	; 0x800665 <__TEXT_REGION_LENGTH__+0x700665>
    1018:	9a e1       	ldi	r25, 0x1A	; 26
    101a:	90 93 61 06 	sts	0x0661, r25	; 0x800661 <__TEXT_REGION_LENGTH__+0x700661>
    101e:	10 92 a6 09 	sts	0x09A6, r1	; 0x8009a6 <__TEXT_REGION_LENGTH__+0x7009a6>
    1022:	10 92 a7 09 	sts	0x09A7, r1	; 0x8009a7 <__TEXT_REGION_LENGTH__+0x7009a7>
    1026:	90 ec       	ldi	r25, 0xC0	; 192
    1028:	90 93 a5 09 	sts	0x09A5, r25	; 0x8009a5 <__TEXT_REGION_LENGTH__+0x7009a5>
    102c:	98 e1       	ldi	r25, 0x18	; 24
    102e:	90 93 a4 09 	sts	0x09A4, r25	; 0x8009a4 <__TEXT_REGION_LENGTH__+0x7009a4>
    1032:	80 93 66 06 	sts	0x0666, r24	; 0x800666 <__TEXT_REGION_LENGTH__+0x700666>
    1036:	87 ed       	ldi	r24, 0xD7	; 215
    1038:	80 93 a0 09 	sts	0x09A0, r24	; 0x8009a0 <__TEXT_REGION_LENGTH__+0x7009a0>
    103c:	80 91 a1 09 	lds	r24, 0x09A1	; 0x8009a1 <__TEXT_REGION_LENGTH__+0x7009a1>
    1040:	86 ff       	sbrs	r24, 6
    1042:	fc cf       	rjmp	.-8      	; 0x103c <MemoryInit+0x42>
    1044:	80 e4       	ldi	r24, 0x40	; 64
    1046:	80 93 a1 09 	sts	0x09A1, r24	; 0x8009a1 <__TEXT_REGION_LENGTH__+0x7009a1>
    104a:	80 91 a0 09 	lds	r24, 0x09A0	; 0x8009a0 <__TEXT_REGION_LENGTH__+0x7009a0>
    104e:	10 92 a0 09 	sts	0x09A0, r1	; 0x8009a0 <__TEXT_REGION_LENGTH__+0x7009a0>
    1052:	80 91 a1 09 	lds	r24, 0x09A1	; 0x8009a1 <__TEXT_REGION_LENGTH__+0x7009a1>
    1056:	86 ff       	sbrs	r24, 6
    1058:	fc cf       	rjmp	.-8      	; 0x1052 <MemoryInit+0x58>
    105a:	80 e4       	ldi	r24, 0x40	; 64
    105c:	80 93 a1 09 	sts	0x09A1, r24	; 0x8009a1 <__TEXT_REGION_LENGTH__+0x7009a1>
    1060:	80 91 a0 09 	lds	r24, 0x09A0	; 0x8009a0 <__TEXT_REGION_LENGTH__+0x7009a0>
    1064:	90 e1       	ldi	r25, 0x10	; 16
    1066:	90 93 65 06 	sts	0x0665, r25	; 0x800665 <__TEXT_REGION_LENGTH__+0x700665>
    106a:	80 fd       	sbrc	r24, 0
    106c:	3f c0       	rjmp	.+126    	; 0x10ec <MemoryInit+0xf2>
    106e:	8d e3       	ldi	r24, 0x3D	; 61
    1070:	89 83       	std	Y+1, r24	; 0x01
    1072:	8a e2       	ldi	r24, 0x2A	; 42
    1074:	8a 83       	std	Y+2, r24	; 0x02
    1076:	80 e8       	ldi	r24, 0x80	; 128
    1078:	8b 83       	std	Y+3, r24	; 0x03
    107a:	86 ea       	ldi	r24, 0xA6	; 166
    107c:	8c 83       	std	Y+4, r24	; 0x04
    107e:	80 e1       	ldi	r24, 0x10	; 16
    1080:	37 ed       	ldi	r19, 0xD7	; 215
    1082:	90 e4       	ldi	r25, 0x40	; 64
    1084:	80 93 66 06 	sts	0x0666, r24	; 0x800666 <__TEXT_REGION_LENGTH__+0x700666>
    1088:	30 93 a0 09 	sts	0x09A0, r19	; 0x8009a0 <__TEXT_REGION_LENGTH__+0x7009a0>
    108c:	20 91 a1 09 	lds	r18, 0x09A1	; 0x8009a1 <__TEXT_REGION_LENGTH__+0x7009a1>
    1090:	26 ff       	sbrs	r18, 6
    1092:	fc cf       	rjmp	.-8      	; 0x108c <MemoryInit+0x92>
    1094:	90 93 a1 09 	sts	0x09A1, r25	; 0x8009a1 <__TEXT_REGION_LENGTH__+0x7009a1>
    1098:	20 91 a0 09 	lds	r18, 0x09A0	; 0x8009a0 <__TEXT_REGION_LENGTH__+0x7009a0>
    109c:	10 92 a0 09 	sts	0x09A0, r1	; 0x8009a0 <__TEXT_REGION_LENGTH__+0x7009a0>
    10a0:	20 91 a1 09 	lds	r18, 0x09A1	; 0x8009a1 <__TEXT_REGION_LENGTH__+0x7009a1>
    10a4:	26 ff       	sbrs	r18, 6
    10a6:	fc cf       	rjmp	.-8      	; 0x10a0 <MemoryInit+0xa6>
    10a8:	90 93 a1 09 	sts	0x09A1, r25	; 0x8009a1 <__TEXT_REGION_LENGTH__+0x7009a1>
    10ac:	20 91 a0 09 	lds	r18, 0x09A0	; 0x8009a0 <__TEXT_REGION_LENGTH__+0x7009a0>
    10b0:	80 93 65 06 	sts	0x0665, r24	; 0x800665 <__TEXT_REGION_LENGTH__+0x700665>
    10b4:	27 ff       	sbrs	r18, 7
    10b6:	e6 cf       	rjmp	.-52     	; 0x1084 <MemoryInit+0x8a>
    10b8:	80 e1       	ldi	r24, 0x10	; 16
    10ba:	80 93 66 06 	sts	0x0666, r24	; 0x800666 <__TEXT_REGION_LENGTH__+0x700666>
    10be:	fe 01       	movw	r30, r28
    10c0:	31 96       	adiw	r30, 0x01	; 1
    10c2:	ce 01       	movw	r24, r28
    10c4:	05 96       	adiw	r24, 0x05	; 5
    10c6:	20 e4       	ldi	r18, 0x40	; 64
    10c8:	e8 17       	cp	r30, r24
    10ca:	f9 07       	cpc	r31, r25
    10cc:	61 f0       	breq	.+24     	; 0x10e6 <MemoryInit+0xec>
    10ce:	31 91       	ld	r19, Z+
    10d0:	30 93 a0 09 	sts	0x09A0, r19	; 0x8009a0 <__TEXT_REGION_LENGTH__+0x7009a0>
    10d4:	30 91 a1 09 	lds	r19, 0x09A1	; 0x8009a1 <__TEXT_REGION_LENGTH__+0x7009a1>
    10d8:	36 ff       	sbrs	r19, 6
    10da:	fc cf       	rjmp	.-8      	; 0x10d4 <MemoryInit+0xda>
    10dc:	20 93 a1 09 	sts	0x09A1, r18	; 0x8009a1 <__TEXT_REGION_LENGTH__+0x7009a1>
    10e0:	30 91 a0 09 	lds	r19, 0x09A0	; 0x8009a0 <__TEXT_REGION_LENGTH__+0x7009a0>
    10e4:	f1 cf       	rjmp	.-30     	; 0x10c8 <MemoryInit+0xce>
    10e6:	80 e1       	ldi	r24, 0x10	; 16
    10e8:	80 93 65 06 	sts	0x0665, r24	; 0x800665 <__TEXT_REGION_LENGTH__+0x700665>
    10ec:	24 96       	adiw	r28, 0x04	; 4
    10ee:	cd bf       	out	0x3d, r28	; 61
    10f0:	de bf       	out	0x3e, r29	; 62
    10f2:	df 91       	pop	r29
    10f4:	cf 91       	pop	r28
    10f6:	08 95       	ret

000010f8 <MemoryReadBlock>:
    10f8:	cf 92       	push	r12
    10fa:	df 92       	push	r13
    10fc:	ef 92       	push	r14
    10fe:	ff 92       	push	r15
    1100:	0f 93       	push	r16
    1102:	1f 93       	push	r17
    1104:	dc 01       	movw	r26, r24
    1106:	41 15       	cp	r20, r1
    1108:	51 05       	cpc	r21, r1
    110a:	09 f4       	brne	.+2      	; 0x110e <MemoryReadBlock+0x16>
    110c:	79 c0       	rjmp	.+242    	; 0x1200 <MemoryReadBlock+0x108>
    110e:	00 91 00 20 	lds	r16, 0x2000	; 0x802000 <GlobalSettings>
    1112:	6b 01       	movw	r12, r22
    1114:	e1 2c       	mov	r14, r1
    1116:	f1 2c       	mov	r15, r1
    1118:	00 23       	and	r16, r16
    111a:	71 f0       	breq	.+28     	; 0x1138 <MemoryReadBlock+0x40>
    111c:	10 e0       	ldi	r17, 0x00	; 0
    111e:	20 e0       	ldi	r18, 0x00	; 0
    1120:	30 e0       	ldi	r19, 0x00	; 0
    1122:	8a e0       	ldi	r24, 0x0A	; 10
    1124:	00 0f       	add	r16, r16
    1126:	11 1f       	adc	r17, r17
    1128:	22 1f       	adc	r18, r18
    112a:	33 1f       	adc	r19, r19
    112c:	8a 95       	dec	r24
    112e:	d1 f7       	brne	.-12     	; 0x1124 <MemoryReadBlock+0x2c>
    1130:	c0 0e       	add	r12, r16
    1132:	d1 1e       	adc	r13, r17
    1134:	e2 1e       	adc	r14, r18
    1136:	f3 1e       	adc	r15, r19
    1138:	ed 2d       	mov	r30, r13
    113a:	20 e1       	ldi	r18, 0x10	; 16
    113c:	17 ed       	ldi	r17, 0xD7	; 215
    113e:	30 e4       	ldi	r19, 0x40	; 64
    1140:	20 93 66 06 	sts	0x0666, r18	; 0x800666 <__TEXT_REGION_LENGTH__+0x700666>
    1144:	10 93 a0 09 	sts	0x09A0, r17	; 0x8009a0 <__TEXT_REGION_LENGTH__+0x7009a0>
    1148:	f0 91 a1 09 	lds	r31, 0x09A1	; 0x8009a1 <__TEXT_REGION_LENGTH__+0x7009a1>
    114c:	f6 ff       	sbrs	r31, 6
    114e:	fc cf       	rjmp	.-8      	; 0x1148 <MemoryReadBlock+0x50>
    1150:	30 93 a1 09 	sts	0x09A1, r19	; 0x8009a1 <__TEXT_REGION_LENGTH__+0x7009a1>
    1154:	f0 91 a0 09 	lds	r31, 0x09A0	; 0x8009a0 <__TEXT_REGION_LENGTH__+0x7009a0>
    1158:	10 92 a0 09 	sts	0x09A0, r1	; 0x8009a0 <__TEXT_REGION_LENGTH__+0x7009a0>
    115c:	f0 91 a1 09 	lds	r31, 0x09A1	; 0x8009a1 <__TEXT_REGION_LENGTH__+0x7009a1>
    1160:	f6 ff       	sbrs	r31, 6
    1162:	fc cf       	rjmp	.-8      	; 0x115c <MemoryReadBlock+0x64>
    1164:	30 93 a1 09 	sts	0x09A1, r19	; 0x8009a1 <__TEXT_REGION_LENGTH__+0x7009a1>
    1168:	f0 91 a0 09 	lds	r31, 0x09A0	; 0x8009a0 <__TEXT_REGION_LENGTH__+0x7009a0>
    116c:	20 93 65 06 	sts	0x0665, r18	; 0x800665 <__TEXT_REGION_LENGTH__+0x700665>
    1170:	f7 ff       	sbrs	r31, 7
    1172:	e6 cf       	rjmp	.-52     	; 0x1140 <MemoryReadBlock+0x48>
    1174:	20 e1       	ldi	r18, 0x10	; 16
    1176:	20 93 66 06 	sts	0x0666, r18	; 0x800666 <__TEXT_REGION_LENGTH__+0x700666>
    117a:	23 e0       	ldi	r18, 0x03	; 3
    117c:	20 93 a0 09 	sts	0x09A0, r18	; 0x8009a0 <__TEXT_REGION_LENGTH__+0x7009a0>
    1180:	20 91 a1 09 	lds	r18, 0x09A1	; 0x8009a1 <__TEXT_REGION_LENGTH__+0x7009a1>
    1184:	26 ff       	sbrs	r18, 6
    1186:	fc cf       	rjmp	.-8      	; 0x1180 <MemoryReadBlock+0x88>
    1188:	20 e4       	ldi	r18, 0x40	; 64
    118a:	20 93 a1 09 	sts	0x09A1, r18	; 0x8009a1 <__TEXT_REGION_LENGTH__+0x7009a1>
    118e:	20 91 a0 09 	lds	r18, 0x09A0	; 0x8009a0 <__TEXT_REGION_LENGTH__+0x7009a0>
    1192:	10 92 a0 09 	sts	0x09A0, r1	; 0x8009a0 <__TEXT_REGION_LENGTH__+0x7009a0>
    1196:	20 91 a1 09 	lds	r18, 0x09A1	; 0x8009a1 <__TEXT_REGION_LENGTH__+0x7009a1>
    119a:	26 ff       	sbrs	r18, 6
    119c:	fc cf       	rjmp	.-8      	; 0x1196 <MemoryReadBlock+0x9e>
    119e:	20 e4       	ldi	r18, 0x40	; 64
    11a0:	20 93 a1 09 	sts	0x09A1, r18	; 0x8009a1 <__TEXT_REGION_LENGTH__+0x7009a1>
    11a4:	20 91 a0 09 	lds	r18, 0x09A0	; 0x8009a0 <__TEXT_REGION_LENGTH__+0x7009a0>
    11a8:	e0 93 a0 09 	sts	0x09A0, r30	; 0x8009a0 <__TEXT_REGION_LENGTH__+0x7009a0>
    11ac:	20 91 a1 09 	lds	r18, 0x09A1	; 0x8009a1 <__TEXT_REGION_LENGTH__+0x7009a1>
    11b0:	26 ff       	sbrs	r18, 6
    11b2:	fc cf       	rjmp	.-8      	; 0x11ac <MemoryReadBlock+0xb4>
    11b4:	20 e4       	ldi	r18, 0x40	; 64
    11b6:	20 93 a1 09 	sts	0x09A1, r18	; 0x8009a1 <__TEXT_REGION_LENGTH__+0x7009a1>
    11ba:	20 91 a0 09 	lds	r18, 0x09A0	; 0x8009a0 <__TEXT_REGION_LENGTH__+0x7009a0>
    11be:	c0 92 a0 09 	sts	0x09A0, r12	; 0x8009a0 <__TEXT_REGION_LENGTH__+0x7009a0>
    11c2:	80 91 a1 09 	lds	r24, 0x09A1	; 0x8009a1 <__TEXT_REGION_LENGTH__+0x7009a1>
    11c6:	86 ff       	sbrs	r24, 6
    11c8:	fc cf       	rjmp	.-8      	; 0x11c2 <MemoryReadBlock+0xca>
    11ca:	80 e4       	ldi	r24, 0x40	; 64
    11cc:	80 93 a1 09 	sts	0x09A1, r24	; 0x8009a1 <__TEXT_REGION_LENGTH__+0x7009a1>
    11d0:	80 91 a0 09 	lds	r24, 0x09A0	; 0x8009a0 <__TEXT_REGION_LENGTH__+0x7009a0>
    11d4:	fd 01       	movw	r30, r26
    11d6:	4a 0f       	add	r20, r26
    11d8:	5b 1f       	adc	r21, r27
    11da:	80 e4       	ldi	r24, 0x40	; 64
    11dc:	e4 17       	cp	r30, r20
    11de:	f5 07       	cpc	r31, r21
    11e0:	61 f0       	breq	.+24     	; 0x11fa <MemoryReadBlock+0x102>
    11e2:	10 92 a0 09 	sts	0x09A0, r1	; 0x8009a0 <__TEXT_REGION_LENGTH__+0x7009a0>
    11e6:	90 91 a1 09 	lds	r25, 0x09A1	; 0x8009a1 <__TEXT_REGION_LENGTH__+0x7009a1>
    11ea:	96 ff       	sbrs	r25, 6
    11ec:	fc cf       	rjmp	.-8      	; 0x11e6 <MemoryReadBlock+0xee>
    11ee:	80 93 a1 09 	sts	0x09A1, r24	; 0x8009a1 <__TEXT_REGION_LENGTH__+0x7009a1>
    11f2:	90 91 a0 09 	lds	r25, 0x09A0	; 0x8009a0 <__TEXT_REGION_LENGTH__+0x7009a0>
    11f6:	91 93       	st	Z+, r25
    11f8:	f1 cf       	rjmp	.-30     	; 0x11dc <MemoryReadBlock+0xe4>
    11fa:	80 e1       	ldi	r24, 0x10	; 16
    11fc:	80 93 65 06 	sts	0x0665, r24	; 0x800665 <__TEXT_REGION_LENGTH__+0x700665>
    1200:	1f 91       	pop	r17
    1202:	0f 91       	pop	r16
    1204:	ff 90       	pop	r15
    1206:	ef 90       	pop	r14
    1208:	df 90       	pop	r13
    120a:	cf 90       	pop	r12
    120c:	08 95       	ret

0000120e <MemoryWriteBlock>:
    120e:	8f 92       	push	r8
    1210:	9f 92       	push	r9
    1212:	af 92       	push	r10
    1214:	bf 92       	push	r11
    1216:	cf 92       	push	r12
    1218:	df 92       	push	r13
    121a:	ef 92       	push	r14
    121c:	ff 92       	push	r15
    121e:	0f 93       	push	r16
    1220:	1f 93       	push	r17
    1222:	cf 93       	push	r28
    1224:	df 93       	push	r29
    1226:	dc 01       	movw	r26, r24
    1228:	41 15       	cp	r20, r1
    122a:	51 05       	cpc	r21, r1
    122c:	09 f4       	brne	.+2      	; 0x1230 <MemoryWriteBlock+0x22>
    122e:	0f c1       	rjmp	.+542    	; 0x144e <MemoryWriteBlock+0x240>
    1230:	20 91 00 20 	lds	r18, 0x2000	; 0x802000 <GlobalSettings>
    1234:	22 23       	and	r18, r18
    1236:	39 f0       	breq	.+14     	; 0x1246 <MemoryWriteBlock+0x38>
    1238:	30 e0       	ldi	r19, 0x00	; 0
    123a:	32 2f       	mov	r19, r18
    123c:	22 27       	eor	r18, r18
    123e:	33 0f       	add	r19, r19
    1240:	33 0f       	add	r19, r19
    1242:	62 0f       	add	r22, r18
    1244:	73 1f       	adc	r23, r19
    1246:	e1 2c       	mov	r14, r1
    1248:	ff 24       	eor	r15, r15
    124a:	f3 94       	inc	r15
    124c:	20 e1       	ldi	r18, 0x10	; 16
    124e:	87 ed       	ldi	r24, 0xD7	; 215
    1250:	90 e4       	ldi	r25, 0x40	; 64
    1252:	30 e1       	ldi	r19, 0x10	; 16
    1254:	07 ed       	ldi	r16, 0xD7	; 215
    1256:	e3 e5       	ldi	r30, 0x53	; 83
    1258:	be 2e       	mov	r11, r30
    125a:	f4 e8       	ldi	r31, 0x84	; 132
    125c:	af 2e       	mov	r10, r31
    125e:	c3 e8       	ldi	r28, 0x83	; 131
    1260:	9c 2e       	mov	r9, r28
    1262:	17 2f       	mov	r17, r23
    1264:	c6 2f       	mov	r28, r22
    1266:	f7 01       	movw	r30, r14
    1268:	e6 1b       	sub	r30, r22
    126a:	f1 09       	sbc	r31, r1
    126c:	4e 17       	cp	r20, r30
    126e:	5f 07       	cpc	r21, r31
    1270:	08 f4       	brcc	.+2      	; 0x1274 <MemoryWriteBlock+0x66>
    1272:	fa 01       	movw	r30, r20
    1274:	30 93 66 06 	sts	0x0666, r19	; 0x800666 <__TEXT_REGION_LENGTH__+0x700666>
    1278:	00 93 a0 09 	sts	0x09A0, r16	; 0x8009a0 <__TEXT_REGION_LENGTH__+0x7009a0>
    127c:	d0 91 a1 09 	lds	r29, 0x09A1	; 0x8009a1 <__TEXT_REGION_LENGTH__+0x7009a1>
    1280:	d6 ff       	sbrs	r29, 6
    1282:	fc cf       	rjmp	.-8      	; 0x127c <MemoryWriteBlock+0x6e>
    1284:	90 93 a1 09 	sts	0x09A1, r25	; 0x8009a1 <__TEXT_REGION_LENGTH__+0x7009a1>
    1288:	d0 91 a0 09 	lds	r29, 0x09A0	; 0x8009a0 <__TEXT_REGION_LENGTH__+0x7009a0>
    128c:	10 92 a0 09 	sts	0x09A0, r1	; 0x8009a0 <__TEXT_REGION_LENGTH__+0x7009a0>
    1290:	d0 91 a1 09 	lds	r29, 0x09A1	; 0x8009a1 <__TEXT_REGION_LENGTH__+0x7009a1>
    1294:	d6 ff       	sbrs	r29, 6
    1296:	fc cf       	rjmp	.-8      	; 0x1290 <MemoryWriteBlock+0x82>
    1298:	90 93 a1 09 	sts	0x09A1, r25	; 0x8009a1 <__TEXT_REGION_LENGTH__+0x7009a1>
    129c:	d0 91 a0 09 	lds	r29, 0x09A0	; 0x8009a0 <__TEXT_REGION_LENGTH__+0x7009a0>
    12a0:	20 93 65 06 	sts	0x0665, r18	; 0x800665 <__TEXT_REGION_LENGTH__+0x700665>
    12a4:	d7 ff       	sbrs	r29, 7
    12a6:	e6 cf       	rjmp	.-52     	; 0x1274 <MemoryWriteBlock+0x66>
    12a8:	30 93 66 06 	sts	0x0666, r19	; 0x800666 <__TEXT_REGION_LENGTH__+0x700666>
    12ac:	b0 92 a0 09 	sts	0x09A0, r11	; 0x8009a0 <__TEXT_REGION_LENGTH__+0x7009a0>
    12b0:	d0 91 a1 09 	lds	r29, 0x09A1	; 0x8009a1 <__TEXT_REGION_LENGTH__+0x7009a1>
    12b4:	d6 ff       	sbrs	r29, 6
    12b6:	fc cf       	rjmp	.-8      	; 0x12b0 <MemoryWriteBlock+0xa2>
    12b8:	90 93 a1 09 	sts	0x09A1, r25	; 0x8009a1 <__TEXT_REGION_LENGTH__+0x7009a1>
    12bc:	d0 91 a0 09 	lds	r29, 0x09A0	; 0x8009a0 <__TEXT_REGION_LENGTH__+0x7009a0>
    12c0:	10 92 a0 09 	sts	0x09A0, r1	; 0x8009a0 <__TEXT_REGION_LENGTH__+0x7009a0>
    12c4:	d0 91 a1 09 	lds	r29, 0x09A1	; 0x8009a1 <__TEXT_REGION_LENGTH__+0x7009a1>
    12c8:	d6 ff       	sbrs	r29, 6
    12ca:	fc cf       	rjmp	.-8      	; 0x12c4 <MemoryWriteBlock+0xb6>
    12cc:	90 93 a1 09 	sts	0x09A1, r25	; 0x8009a1 <__TEXT_REGION_LENGTH__+0x7009a1>
    12d0:	d0 91 a0 09 	lds	r29, 0x09A0	; 0x8009a0 <__TEXT_REGION_LENGTH__+0x7009a0>
    12d4:	10 93 a0 09 	sts	0x09A0, r17	; 0x8009a0 <__TEXT_REGION_LENGTH__+0x7009a0>
    12d8:	d0 91 a1 09 	lds	r29, 0x09A1	; 0x8009a1 <__TEXT_REGION_LENGTH__+0x7009a1>
    12dc:	d6 ff       	sbrs	r29, 6
    12de:	fc cf       	rjmp	.-8      	; 0x12d8 <MemoryWriteBlock+0xca>
    12e0:	90 93 a1 09 	sts	0x09A1, r25	; 0x8009a1 <__TEXT_REGION_LENGTH__+0x7009a1>
    12e4:	d0 91 a0 09 	lds	r29, 0x09A0	; 0x8009a0 <__TEXT_REGION_LENGTH__+0x7009a0>
    12e8:	10 92 a0 09 	sts	0x09A0, r1	; 0x8009a0 <__TEXT_REGION_LENGTH__+0x7009a0>
    12ec:	d0 91 a1 09 	lds	r29, 0x09A1	; 0x8009a1 <__TEXT_REGION_LENGTH__+0x7009a1>
    12f0:	d6 ff       	sbrs	r29, 6
    12f2:	fc cf       	rjmp	.-8      	; 0x12ec <MemoryWriteBlock+0xde>
    12f4:	90 93 a1 09 	sts	0x09A1, r25	; 0x8009a1 <__TEXT_REGION_LENGTH__+0x7009a1>
    12f8:	d0 91 a0 09 	lds	r29, 0x09A0	; 0x8009a0 <__TEXT_REGION_LENGTH__+0x7009a0>
    12fc:	20 93 65 06 	sts	0x0665, r18	; 0x800665 <__TEXT_REGION_LENGTH__+0x700665>
    1300:	20 93 66 06 	sts	0x0666, r18	; 0x800666 <__TEXT_REGION_LENGTH__+0x700666>
    1304:	80 93 a0 09 	sts	0x09A0, r24	; 0x8009a0 <__TEXT_REGION_LENGTH__+0x7009a0>
    1308:	d0 91 a1 09 	lds	r29, 0x09A1	; 0x8009a1 <__TEXT_REGION_LENGTH__+0x7009a1>
    130c:	d6 ff       	sbrs	r29, 6
    130e:	fc cf       	rjmp	.-8      	; 0x1308 <MemoryWriteBlock+0xfa>
    1310:	90 93 a1 09 	sts	0x09A1, r25	; 0x8009a1 <__TEXT_REGION_LENGTH__+0x7009a1>
    1314:	d0 91 a0 09 	lds	r29, 0x09A0	; 0x8009a0 <__TEXT_REGION_LENGTH__+0x7009a0>
    1318:	10 92 a0 09 	sts	0x09A0, r1	; 0x8009a0 <__TEXT_REGION_LENGTH__+0x7009a0>
    131c:	d0 91 a1 09 	lds	r29, 0x09A1	; 0x8009a1 <__TEXT_REGION_LENGTH__+0x7009a1>
    1320:	d6 ff       	sbrs	r29, 6
    1322:	fc cf       	rjmp	.-8      	; 0x131c <MemoryWriteBlock+0x10e>
    1324:	90 93 a1 09 	sts	0x09A1, r25	; 0x8009a1 <__TEXT_REGION_LENGTH__+0x7009a1>
    1328:	d0 91 a0 09 	lds	r29, 0x09A0	; 0x8009a0 <__TEXT_REGION_LENGTH__+0x7009a0>
    132c:	20 93 65 06 	sts	0x0665, r18	; 0x800665 <__TEXT_REGION_LENGTH__+0x700665>
    1330:	d7 ff       	sbrs	r29, 7
    1332:	e6 cf       	rjmp	.-52     	; 0x1300 <MemoryWriteBlock+0xf2>
    1334:	30 93 66 06 	sts	0x0666, r19	; 0x800666 <__TEXT_REGION_LENGTH__+0x700666>
    1338:	a0 92 a0 09 	sts	0x09A0, r10	; 0x8009a0 <__TEXT_REGION_LENGTH__+0x7009a0>
    133c:	d0 91 a1 09 	lds	r29, 0x09A1	; 0x8009a1 <__TEXT_REGION_LENGTH__+0x7009a1>
    1340:	d6 ff       	sbrs	r29, 6
    1342:	fc cf       	rjmp	.-8      	; 0x133c <MemoryWriteBlock+0x12e>
    1344:	90 93 a1 09 	sts	0x09A1, r25	; 0x8009a1 <__TEXT_REGION_LENGTH__+0x7009a1>
    1348:	d0 91 a0 09 	lds	r29, 0x09A0	; 0x8009a0 <__TEXT_REGION_LENGTH__+0x7009a0>
    134c:	10 92 a0 09 	sts	0x09A0, r1	; 0x8009a0 <__TEXT_REGION_LENGTH__+0x7009a0>
    1350:	d0 91 a1 09 	lds	r29, 0x09A1	; 0x8009a1 <__TEXT_REGION_LENGTH__+0x7009a1>
    1354:	d6 ff       	sbrs	r29, 6
    1356:	fc cf       	rjmp	.-8      	; 0x1350 <MemoryWriteBlock+0x142>
    1358:	90 93 a1 09 	sts	0x09A1, r25	; 0x8009a1 <__TEXT_REGION_LENGTH__+0x7009a1>
    135c:	d0 91 a0 09 	lds	r29, 0x09A0	; 0x8009a0 <__TEXT_REGION_LENGTH__+0x7009a0>
    1360:	10 92 a0 09 	sts	0x09A0, r1	; 0x8009a0 <__TEXT_REGION_LENGTH__+0x7009a0>
    1364:	d0 91 a1 09 	lds	r29, 0x09A1	; 0x8009a1 <__TEXT_REGION_LENGTH__+0x7009a1>
    1368:	d6 ff       	sbrs	r29, 6
    136a:	fc cf       	rjmp	.-8      	; 0x1364 <MemoryWriteBlock+0x156>
    136c:	90 93 a1 09 	sts	0x09A1, r25	; 0x8009a1 <__TEXT_REGION_LENGTH__+0x7009a1>
    1370:	d0 91 a0 09 	lds	r29, 0x09A0	; 0x8009a0 <__TEXT_REGION_LENGTH__+0x7009a0>
    1374:	c0 93 a0 09 	sts	0x09A0, r28	; 0x8009a0 <__TEXT_REGION_LENGTH__+0x7009a0>
    1378:	c0 91 a1 09 	lds	r28, 0x09A1	; 0x8009a1 <__TEXT_REGION_LENGTH__+0x7009a1>
    137c:	c6 ff       	sbrs	r28, 6
    137e:	fc cf       	rjmp	.-8      	; 0x1378 <MemoryWriteBlock+0x16a>
    1380:	90 93 a1 09 	sts	0x09A1, r25	; 0x8009a1 <__TEXT_REGION_LENGTH__+0x7009a1>
    1384:	c0 91 a0 09 	lds	r28, 0x09A0	; 0x8009a0 <__TEXT_REGION_LENGTH__+0x7009a0>
    1388:	ed 01       	movw	r28, r26
    138a:	6d 01       	movw	r12, r26
    138c:	ce 0e       	add	r12, r30
    138e:	df 1e       	adc	r13, r31
    1390:	cc 15       	cp	r28, r12
    1392:	dd 05       	cpc	r29, r13
    1394:	61 f0       	breq	.+24     	; 0x13ae <MemoryWriteBlock+0x1a0>
    1396:	89 90       	ld	r8, Y+
    1398:	80 92 a0 09 	sts	0x09A0, r8	; 0x8009a0 <__TEXT_REGION_LENGTH__+0x7009a0>
    139c:	80 90 a1 09 	lds	r8, 0x09A1	; 0x8009a1 <__TEXT_REGION_LENGTH__+0x7009a1>
    13a0:	86 fe       	sbrs	r8, 6
    13a2:	fc cf       	rjmp	.-8      	; 0x139c <MemoryWriteBlock+0x18e>
    13a4:	90 93 a1 09 	sts	0x09A1, r25	; 0x8009a1 <__TEXT_REGION_LENGTH__+0x7009a1>
    13a8:	80 90 a0 09 	lds	r8, 0x09A0	; 0x8009a0 <__TEXT_REGION_LENGTH__+0x7009a0>
    13ac:	f1 cf       	rjmp	.-30     	; 0x1390 <MemoryWriteBlock+0x182>
    13ae:	20 93 65 06 	sts	0x0665, r18	; 0x800665 <__TEXT_REGION_LENGTH__+0x700665>
    13b2:	20 93 66 06 	sts	0x0666, r18	; 0x800666 <__TEXT_REGION_LENGTH__+0x700666>
    13b6:	80 93 a0 09 	sts	0x09A0, r24	; 0x8009a0 <__TEXT_REGION_LENGTH__+0x7009a0>
    13ba:	c0 91 a1 09 	lds	r28, 0x09A1	; 0x8009a1 <__TEXT_REGION_LENGTH__+0x7009a1>
    13be:	c6 ff       	sbrs	r28, 6
    13c0:	fc cf       	rjmp	.-8      	; 0x13ba <MemoryWriteBlock+0x1ac>
    13c2:	90 93 a1 09 	sts	0x09A1, r25	; 0x8009a1 <__TEXT_REGION_LENGTH__+0x7009a1>
    13c6:	c0 91 a0 09 	lds	r28, 0x09A0	; 0x8009a0 <__TEXT_REGION_LENGTH__+0x7009a0>
    13ca:	10 92 a0 09 	sts	0x09A0, r1	; 0x8009a0 <__TEXT_REGION_LENGTH__+0x7009a0>
    13ce:	c0 91 a1 09 	lds	r28, 0x09A1	; 0x8009a1 <__TEXT_REGION_LENGTH__+0x7009a1>
    13d2:	c6 ff       	sbrs	r28, 6
    13d4:	fc cf       	rjmp	.-8      	; 0x13ce <MemoryWriteBlock+0x1c0>
    13d6:	90 93 a1 09 	sts	0x09A1, r25	; 0x8009a1 <__TEXT_REGION_LENGTH__+0x7009a1>
    13da:	c0 91 a0 09 	lds	r28, 0x09A0	; 0x8009a0 <__TEXT_REGION_LENGTH__+0x7009a0>
    13de:	20 93 65 06 	sts	0x0665, r18	; 0x800665 <__TEXT_REGION_LENGTH__+0x700665>
    13e2:	c7 ff       	sbrs	r28, 7
    13e4:	e6 cf       	rjmp	.-52     	; 0x13b2 <MemoryWriteBlock+0x1a4>
    13e6:	30 93 66 06 	sts	0x0666, r19	; 0x800666 <__TEXT_REGION_LENGTH__+0x700666>
    13ea:	90 92 a0 09 	sts	0x09A0, r9	; 0x8009a0 <__TEXT_REGION_LENGTH__+0x7009a0>
    13ee:	c0 91 a1 09 	lds	r28, 0x09A1	; 0x8009a1 <__TEXT_REGION_LENGTH__+0x7009a1>
    13f2:	c6 ff       	sbrs	r28, 6
    13f4:	fc cf       	rjmp	.-8      	; 0x13ee <MemoryWriteBlock+0x1e0>
    13f6:	90 93 a1 09 	sts	0x09A1, r25	; 0x8009a1 <__TEXT_REGION_LENGTH__+0x7009a1>
    13fa:	c0 91 a0 09 	lds	r28, 0x09A0	; 0x8009a0 <__TEXT_REGION_LENGTH__+0x7009a0>
    13fe:	10 92 a0 09 	sts	0x09A0, r1	; 0x8009a0 <__TEXT_REGION_LENGTH__+0x7009a0>
    1402:	c0 91 a1 09 	lds	r28, 0x09A1	; 0x8009a1 <__TEXT_REGION_LENGTH__+0x7009a1>
    1406:	c6 ff       	sbrs	r28, 6
    1408:	fc cf       	rjmp	.-8      	; 0x1402 <MemoryWriteBlock+0x1f4>
    140a:	90 93 a1 09 	sts	0x09A1, r25	; 0x8009a1 <__TEXT_REGION_LENGTH__+0x7009a1>
    140e:	c0 91 a0 09 	lds	r28, 0x09A0	; 0x8009a0 <__TEXT_REGION_LENGTH__+0x7009a0>
    1412:	10 93 a0 09 	sts	0x09A0, r17	; 0x8009a0 <__TEXT_REGION_LENGTH__+0x7009a0>
    1416:	c0 91 a1 09 	lds	r28, 0x09A1	; 0x8009a1 <__TEXT_REGION_LENGTH__+0x7009a1>
    141a:	c6 ff       	sbrs	r28, 6
    141c:	fc cf       	rjmp	.-8      	; 0x1416 <MemoryWriteBlock+0x208>
    141e:	90 93 a1 09 	sts	0x09A1, r25	; 0x8009a1 <__TEXT_REGION_LENGTH__+0x7009a1>
    1422:	c0 91 a0 09 	lds	r28, 0x09A0	; 0x8009a0 <__TEXT_REGION_LENGTH__+0x7009a0>
    1426:	10 92 a0 09 	sts	0x09A0, r1	; 0x8009a0 <__TEXT_REGION_LENGTH__+0x7009a0>
    142a:	c0 91 a1 09 	lds	r28, 0x09A1	; 0x8009a1 <__TEXT_REGION_LENGTH__+0x7009a1>
    142e:	c6 ff       	sbrs	r28, 6
    1430:	fc cf       	rjmp	.-8      	; 0x142a <MemoryWriteBlock+0x21c>
    1432:	90 93 a1 09 	sts	0x09A1, r25	; 0x8009a1 <__TEXT_REGION_LENGTH__+0x7009a1>
    1436:	c0 91 a0 09 	lds	r28, 0x09A0	; 0x8009a0 <__TEXT_REGION_LENGTH__+0x7009a0>
    143a:	20 93 65 06 	sts	0x0665, r18	; 0x800665 <__TEXT_REGION_LENGTH__+0x700665>
    143e:	4e 1b       	sub	r20, r30
    1440:	5f 0b       	sbc	r21, r31
    1442:	6e 0f       	add	r22, r30
    1444:	7f 1f       	adc	r23, r31
    1446:	41 15       	cp	r20, r1
    1448:	51 05       	cpc	r21, r1
    144a:	09 f0       	breq	.+2      	; 0x144e <MemoryWriteBlock+0x240>
    144c:	0a cf       	rjmp	.-492    	; 0x1262 <MemoryWriteBlock+0x54>
    144e:	df 91       	pop	r29
    1450:	cf 91       	pop	r28
    1452:	1f 91       	pop	r17
    1454:	0f 91       	pop	r16
    1456:	ff 90       	pop	r15
    1458:	ef 90       	pop	r14
    145a:	df 90       	pop	r13
    145c:	cf 90       	pop	r12
    145e:	bf 90       	pop	r11
    1460:	af 90       	pop	r10
    1462:	9f 90       	pop	r9
    1464:	8f 90       	pop	r8
    1466:	08 95       	ret

00001468 <MemoryClear>:
    1468:	20 91 00 20 	lds	r18, 0x2000	; 0x802000 <GlobalSettings>
    146c:	22 23       	and	r18, r18
    146e:	39 f0       	breq	.+14     	; 0x147e <MemoryClear+0x16>
    1470:	82 2f       	mov	r24, r18
    1472:	88 0f       	add	r24, r24
    1474:	88 0f       	add	r24, r24
    1476:	90 e0       	ldi	r25, 0x00	; 0
    1478:	24 e0       	ldi	r18, 0x04	; 4
    147a:	30 e0       	ldi	r19, 0x00	; 0
    147c:	04 c0       	rjmp	.+8      	; 0x1486 <MemoryClear+0x1e>
    147e:	20 e1       	ldi	r18, 0x10	; 16
    1480:	30 e0       	ldi	r19, 0x00	; 0
    1482:	80 e0       	ldi	r24, 0x00	; 0
    1484:	90 e0       	ldi	r25, 0x00	; 0
    1486:	bc 01       	movw	r22, r24
    1488:	62 0f       	add	r22, r18
    148a:	73 1f       	adc	r23, r19
    148c:	30 e1       	ldi	r19, 0x10	; 16
    148e:	20 e4       	ldi	r18, 0x40	; 64
    1490:	40 e1       	ldi	r20, 0x10	; 16
    1492:	57 ed       	ldi	r21, 0xD7	; 215
    1494:	e1 e8       	ldi	r30, 0x81	; 129
    1496:	40 93 66 06 	sts	0x0666, r20	; 0x800666 <__TEXT_REGION_LENGTH__+0x700666>
    149a:	50 93 a0 09 	sts	0x09A0, r21	; 0x8009a0 <__TEXT_REGION_LENGTH__+0x7009a0>
    149e:	f0 91 a1 09 	lds	r31, 0x09A1	; 0x8009a1 <__TEXT_REGION_LENGTH__+0x7009a1>
    14a2:	f6 ff       	sbrs	r31, 6
    14a4:	fc cf       	rjmp	.-8      	; 0x149e <MemoryClear+0x36>
    14a6:	20 93 a1 09 	sts	0x09A1, r18	; 0x8009a1 <__TEXT_REGION_LENGTH__+0x7009a1>
    14aa:	f0 91 a0 09 	lds	r31, 0x09A0	; 0x8009a0 <__TEXT_REGION_LENGTH__+0x7009a0>
    14ae:	10 92 a0 09 	sts	0x09A0, r1	; 0x8009a0 <__TEXT_REGION_LENGTH__+0x7009a0>
    14b2:	f0 91 a1 09 	lds	r31, 0x09A1	; 0x8009a1 <__TEXT_REGION_LENGTH__+0x7009a1>
    14b6:	f6 ff       	sbrs	r31, 6
    14b8:	fc cf       	rjmp	.-8      	; 0x14b2 <MemoryClear+0x4a>
    14ba:	20 93 a1 09 	sts	0x09A1, r18	; 0x8009a1 <__TEXT_REGION_LENGTH__+0x7009a1>
    14be:	f0 91 a0 09 	lds	r31, 0x09A0	; 0x8009a0 <__TEXT_REGION_LENGTH__+0x7009a0>
    14c2:	30 93 65 06 	sts	0x0665, r19	; 0x800665 <__TEXT_REGION_LENGTH__+0x700665>
    14c6:	f7 ff       	sbrs	r31, 7
    14c8:	e6 cf       	rjmp	.-52     	; 0x1496 <MemoryClear+0x2e>
    14ca:	40 93 66 06 	sts	0x0666, r20	; 0x800666 <__TEXT_REGION_LENGTH__+0x700666>
    14ce:	e0 93 a0 09 	sts	0x09A0, r30	; 0x8009a0 <__TEXT_REGION_LENGTH__+0x7009a0>
    14d2:	f0 91 a1 09 	lds	r31, 0x09A1	; 0x8009a1 <__TEXT_REGION_LENGTH__+0x7009a1>
    14d6:	f6 ff       	sbrs	r31, 6
    14d8:	fc cf       	rjmp	.-8      	; 0x14d2 <MemoryClear+0x6a>
    14da:	20 93 a1 09 	sts	0x09A1, r18	; 0x8009a1 <__TEXT_REGION_LENGTH__+0x7009a1>
    14de:	f0 91 a0 09 	lds	r31, 0x09A0	; 0x8009a0 <__TEXT_REGION_LENGTH__+0x7009a0>
    14e2:	90 93 a0 09 	sts	0x09A0, r25	; 0x8009a0 <__TEXT_REGION_LENGTH__+0x7009a0>
    14e6:	f0 91 a1 09 	lds	r31, 0x09A1	; 0x8009a1 <__TEXT_REGION_LENGTH__+0x7009a1>
    14ea:	f6 ff       	sbrs	r31, 6
    14ec:	fc cf       	rjmp	.-8      	; 0x14e6 <MemoryClear+0x7e>
    14ee:	20 93 a1 09 	sts	0x09A1, r18	; 0x8009a1 <__TEXT_REGION_LENGTH__+0x7009a1>
    14f2:	f0 91 a0 09 	lds	r31, 0x09A0	; 0x8009a0 <__TEXT_REGION_LENGTH__+0x7009a0>
    14f6:	80 93 a0 09 	sts	0x09A0, r24	; 0x8009a0 <__TEXT_REGION_LENGTH__+0x7009a0>
    14fa:	f0 91 a1 09 	lds	r31, 0x09A1	; 0x8009a1 <__TEXT_REGION_LENGTH__+0x7009a1>
    14fe:	f6 ff       	sbrs	r31, 6
    1500:	fc cf       	rjmp	.-8      	; 0x14fa <MemoryClear+0x92>
    1502:	20 93 a1 09 	sts	0x09A1, r18	; 0x8009a1 <__TEXT_REGION_LENGTH__+0x7009a1>
    1506:	f0 91 a0 09 	lds	r31, 0x09A0	; 0x8009a0 <__TEXT_REGION_LENGTH__+0x7009a0>
    150a:	10 92 a0 09 	sts	0x09A0, r1	; 0x8009a0 <__TEXT_REGION_LENGTH__+0x7009a0>
    150e:	f0 91 a1 09 	lds	r31, 0x09A1	; 0x8009a1 <__TEXT_REGION_LENGTH__+0x7009a1>
    1512:	f6 ff       	sbrs	r31, 6
    1514:	fc cf       	rjmp	.-8      	; 0x150e <MemoryClear+0xa6>
    1516:	20 93 a1 09 	sts	0x09A1, r18	; 0x8009a1 <__TEXT_REGION_LENGTH__+0x7009a1>
    151a:	f0 91 a0 09 	lds	r31, 0x09A0	; 0x8009a0 <__TEXT_REGION_LENGTH__+0x7009a0>
    151e:	30 93 65 06 	sts	0x0665, r19	; 0x800665 <__TEXT_REGION_LENGTH__+0x700665>
    1522:	01 96       	adiw	r24, 0x01	; 1
    1524:	86 17       	cp	r24, r22
    1526:	97 07       	cpc	r25, r23
    1528:	09 f0       	breq	.+2      	; 0x152c <MemoryClear+0xc4>
    152a:	b5 cf       	rjmp	.-150    	; 0x1496 <MemoryClear+0x2e>
    152c:	08 95       	ret

0000152e <MemoryUploadBlock>:

	// LEDTrigger(LED_MEMORY_CHANGED, LED_OFF);
	// LEDTrigger(LED_MEMORY_STORED, LED_PULSE);
}

bool MemoryUploadBlock(void* Buffer, uint16_t BlockAddress, uint16_t ByteCount) {
    152e:	fa 01       	movw	r30, r20
	if ( GlobalSettings.ActiveSetting == 0 ) {
    1530:	20 91 00 20 	lds	r18, 0x2000	; 0x802000 <GlobalSettings>
    1534:	21 11       	cpse	r18, r1
    1536:	07 c0       	rjmp	.+14     	; 0x1546 <MemoryUploadBlock+0x18>
		if (BlockAddress >= MEMORY_SIZE_PER_SETTING_4K) {
    1538:	61 15       	cp	r22, r1
    153a:	20 e1       	ldi	r18, 0x10	; 16
    153c:	72 07       	cpc	r23, r18
    153e:	88 f4       	brcc	.+34     	; 0x1562 <MemoryUploadBlock+0x34>
        /* Prevent writing out of bounds by silently ignoring it */
        return true;
    } else {
    	/* Calculate bytes left in memory and start writing */
			uint16_t BytesLeft = MEMORY_SIZE_PER_SETTING_4K - BlockAddress;
		ByteCount = MIN(ByteCount, BytesLeft);
    1540:	20 e0       	ldi	r18, 0x00	; 0
    1542:	30 e1       	ldi	r19, 0x10	; 16
    1544:	06 c0       	rjmp	.+12     	; 0x1552 <MemoryUploadBlock+0x24>
		MemoryWriteBlock(Buffer, BlockAddress, ByteCount);
		return true;
		}
	} else {
		if (BlockAddress >= MEMORY_SIZE_PER_SETTING_1K) {
    1546:	61 15       	cp	r22, r1
    1548:	24 e0       	ldi	r18, 0x04	; 4
    154a:	72 07       	cpc	r23, r18
    154c:	50 f4       	brcc	.+20     	; 0x1562 <MemoryUploadBlock+0x34>
			/* Prevent writing out of bounds by silently ignoring it */
			return true;
			} else {
			/* Calculate bytes left in memory and start writing */
			uint16_t BytesLeft = MEMORY_SIZE_PER_SETTING_1K - BlockAddress;
			ByteCount = MIN(ByteCount, BytesLeft);
    154e:	20 e0       	ldi	r18, 0x00	; 0
    1550:	34 e0       	ldi	r19, 0x04	; 4
    1552:	a9 01       	movw	r20, r18
    1554:	46 1b       	sub	r20, r22
    1556:	57 0b       	sbc	r21, r23
    1558:	e4 17       	cp	r30, r20
    155a:	f5 07       	cpc	r31, r21
    155c:	08 f4       	brcc	.+2      	; 0x1560 <MemoryUploadBlock+0x32>
    155e:	af 01       	movw	r20, r30
			MemoryWriteBlock(Buffer, BlockAddress, ByteCount);
    1560:	56 de       	rcall	.-852    	; 0x120e <MemoryWriteBlock>
			return true;
		}
    }
}
    1562:	81 e0       	ldi	r24, 0x01	; 1
    1564:	08 95       	ret

00001566 <MemoryDownloadBlock>:

bool MemoryDownloadBlock(void* Buffer, uint16_t BlockAddress, uint16_t ByteCount) {
    1566:	fa 01       	movw	r30, r20
	if ( GlobalSettings.ActiveSetting == 0 ) {
    1568:	20 91 00 20 	lds	r18, 0x2000	; 0x802000 <GlobalSettings>
    156c:	21 11       	cpse	r18, r1
    156e:	07 c0       	rjmp	.+14     	; 0x157e <MemoryDownloadBlock+0x18>
		if (BlockAddress >= MEMORY_SIZE_PER_SETTING_4K) {
    1570:	61 15       	cp	r22, r1
    1572:	20 e1       	ldi	r18, 0x10	; 16
    1574:	72 07       	cpc	r23, r18
    1576:	98 f4       	brcc	.+38     	; 0x159e <MemoryDownloadBlock+0x38>
        /* There are bytes out of bounds to be read. Notify that we are done. */
        return false;
    } else {
    	/* Calculate bytes left in memory and issue reading */
    		uint16_t BytesLeft = MEMORY_SIZE_PER_SETTING_4K - BlockAddress;
		ByteCount = MIN(ByteCount, BytesLeft);
    1578:	20 e0       	ldi	r18, 0x00	; 0
    157a:	30 e1       	ldi	r19, 0x10	; 16
    157c:	06 c0       	rjmp	.+12     	; 0x158a <MemoryDownloadBlock+0x24>
    	MemoryReadBlock(Buffer, BlockAddress, ByteCount);
        return true;
		}
	} else {
		if (BlockAddress >= MEMORY_SIZE_PER_SETTING_1K) {
    157e:	61 15       	cp	r22, r1
    1580:	24 e0       	ldi	r18, 0x04	; 4
    1582:	72 07       	cpc	r23, r18
    1584:	60 f4       	brcc	.+24     	; 0x159e <MemoryDownloadBlock+0x38>
			/* There are bytes out of bounds to be read. Notify that we are done. */
			return false;
			} else {
			/* Calculate bytes left in memory and issue reading */
			uint16_t BytesLeft = MEMORY_SIZE_PER_SETTING_1K - BlockAddress;
			ByteCount = MIN(ByteCount, BytesLeft);
    1586:	20 e0       	ldi	r18, 0x00	; 0
    1588:	34 e0       	ldi	r19, 0x04	; 4
    158a:	a9 01       	movw	r20, r18
    158c:	46 1b       	sub	r20, r22
    158e:	57 0b       	sbc	r21, r23
    1590:	e4 17       	cp	r30, r20
    1592:	f5 07       	cpc	r31, r21
    1594:	08 f4       	brcc	.+2      	; 0x1598 <MemoryDownloadBlock+0x32>
    1596:	af 01       	movw	r20, r30
			MemoryReadBlock(Buffer, BlockAddress, ByteCount);
    1598:	af dd       	rcall	.-1186   	; 0x10f8 <MemoryReadBlock>
			return true;
    159a:	81 e0       	ldi	r24, 0x01	; 1
    159c:	08 95       	ret

bool MemoryDownloadBlock(void* Buffer, uint16_t BlockAddress, uint16_t ByteCount) {
	if ( GlobalSettings.ActiveSetting == 0 ) {
		if (BlockAddress >= MEMORY_SIZE_PER_SETTING_4K) {
        /* There are bytes out of bounds to be read. Notify that we are done. */
        return false;
    159e:	80 e0       	ldi	r24, 0x00	; 0
			ByteCount = MIN(ByteCount, BytesLeft);
			MemoryReadBlock(Buffer, BlockAddress, ByteCount);
			return true;
		}
    }
}
    15a0:	08 95       	ret

000015a2 <ExecuteButtonAction>:
	BUTTON_PORT.DIRCLR = BUTTON_MASK;
	BUTTON_PORT.BUTTON_PINCTRL = PORT_OPC_PULLUP_gc;
}

static void ExecuteButtonAction(ButtonActionEnum ButtonAction)
{
    15a2:	0f 93       	push	r16
    15a4:	1f 93       	push	r17
    15a6:	cf 93       	push	r28
    15a8:	df 93       	push	r29
    15aa:	cd b7       	in	r28, 0x3d	; 61
    15ac:	de b7       	in	r29, 0x3e	; 62
    15ae:	a0 97       	sbiw	r28, 0x20	; 32
    15b0:	cd bf       	out	0x3d, r28	; 61
    15b2:	de bf       	out	0x3e, r29	; 62
	uint8_t UidBuffer[32];

	if (ButtonAction == BUTTON_ACTION_UID_RANDOM) {
    15b4:	81 30       	cpi	r24, 0x01	; 1
    15b6:	81 f4       	brne	.+32     	; 0x15d8 <ExecuteButtonAction+0x36>
    15b8:	10 e0       	ldi	r17, 0x00	; 0
		for (uint8_t i=0; i<ActiveConfiguration.UidSize; i++) {
    15ba:	80 91 50 21 	lds	r24, 0x2150	; 0x802150 <ActiveConfiguration+0x16>
    15be:	18 17       	cp	r17, r24
    15c0:	08 f0       	brcs	.+2      	; 0x15c4 <ExecuteButtonAction+0x22>
    15c2:	99 c0       	rjmp	.+306    	; 0x16f6 <ExecuteButtonAction+0x154>
			UidBuffer[i] = RandomGetByte();
    15c4:	85 dc       	rcall	.-1782   	; 0xed0 <RandomGetByte>
    15c6:	e1 e0       	ldi	r30, 0x01	; 1
    15c8:	f0 e0       	ldi	r31, 0x00	; 0
    15ca:	ec 0f       	add	r30, r28
    15cc:	fd 1f       	adc	r31, r29
    15ce:	e1 0f       	add	r30, r17
    15d0:	f1 1d       	adc	r31, r1
    15d2:	80 83       	st	Z, r24
static void ExecuteButtonAction(ButtonActionEnum ButtonAction)
{
	uint8_t UidBuffer[32];

	if (ButtonAction == BUTTON_ACTION_UID_RANDOM) {
		for (uint8_t i=0; i<ActiveConfiguration.UidSize; i++) {
    15d4:	1f 5f       	subi	r17, 0xFF	; 255
    15d6:	f1 cf       	rjmp	.-30     	; 0x15ba <ExecuteButtonAction+0x18>
			UidBuffer[i] = RandomGetByte();
		}

		ApplicationSetUid(UidBuffer);
	} else if (ButtonAction == BUTTON_ACTION_UID_LEFT_INCREMENT) {
    15d8:	82 30       	cpi	r24, 0x02	; 2
    15da:	b9 f5       	brne	.+110    	; 0x164a <ExecuteButtonAction+0xa8>
INLINE void ApplicationReset(void) {
    ActiveConfiguration.ApplicationResetFunc();
}

INLINE void ApplicationGetUid(ConfigurationUidType Uid) {
    ActiveConfiguration.ApplicationGetUidFunc(Uid);
    15dc:	e0 91 4a 21 	lds	r30, 0x214A	; 0x80214a <ActiveConfiguration+0x10>
    15e0:	f0 91 4b 21 	lds	r31, 0x214B	; 0x80214b <ActiveConfiguration+0x11>
    15e4:	8e 01       	movw	r16, r28
    15e6:	0f 5f       	subi	r16, 0xFF	; 255
    15e8:	1f 4f       	sbci	r17, 0xFF	; 255
    15ea:	c8 01       	movw	r24, r16
    15ec:	09 95       	icall
		ApplicationGetUid(UidBuffer);
		bool Carry = 1;
		uint8_t i;

		for (i=0; i<ActiveConfiguration.UidSize; i++) {
    15ee:	20 91 50 21 	lds	r18, 0x2150	; 0x802150 <ActiveConfiguration+0x16>
    15f2:	f8 01       	movw	r30, r16
		}

		ApplicationSetUid(UidBuffer);
	} else if (ButtonAction == BUTTON_ACTION_UID_LEFT_INCREMENT) {
		ApplicationGetUid(UidBuffer);
		bool Carry = 1;
    15f4:	91 e0       	ldi	r25, 0x01	; 1
    15f6:	8e 2f       	mov	r24, r30
    15f8:	80 1b       	sub	r24, r16
		uint8_t i;

		for (i=0; i<ActiveConfiguration.UidSize; i++) {
    15fa:	82 17       	cp	r24, r18
    15fc:	f8 f4       	brcc	.+62     	; 0x163c <ExecuteButtonAction+0x9a>
			if (Carry) {
    15fe:	99 23       	and	r25, r25
    1600:	39 f0       	breq	.+14     	; 0x1610 <ExecuteButtonAction+0x6e>
				if (UidBuffer[i] == 0xFF) {
    1602:	80 81       	ld	r24, Z
    1604:	91 e0       	ldi	r25, 0x01	; 1
    1606:	8f 3f       	cpi	r24, 0xFF	; 255
    1608:	09 f0       	breq	.+2      	; 0x160c <ExecuteButtonAction+0x6a>
    160a:	90 e0       	ldi	r25, 0x00	; 0
					Carry = 1;
				} else {
					Carry = 0;
				}

				UidBuffer[i] = (UidBuffer[i] + 1) & 0xFF;
    160c:	8f 5f       	subi	r24, 0xFF	; 255
    160e:	80 83       	st	Z, r24
    1610:	31 96       	adiw	r30, 0x01	; 1
    1612:	f1 cf       	rjmp	.-30     	; 0x15f6 <ExecuteButtonAction+0x54>
				UidBuffer[i] = (UidBuffer[i] + 1) & 0xFF;
			}
		}

		ApplicationSetUid(UidBuffer);
	} else if (ButtonAction == BUTTON_ACTION_UID_LEFT_DECREMENT) {
    1614:	84 30       	cpi	r24, 0x04	; 4
    1616:	09 f0       	breq	.+2      	; 0x161a <ExecuteButtonAction+0x78>
    1618:	49 c0       	rjmp	.+146    	; 0x16ac <ExecuteButtonAction+0x10a>
    161a:	e0 91 4a 21 	lds	r30, 0x214A	; 0x80214a <ActiveConfiguration+0x10>
    161e:	f0 91 4b 21 	lds	r31, 0x214B	; 0x80214b <ActiveConfiguration+0x11>
    1622:	8e 01       	movw	r16, r28
    1624:	0f 5f       	subi	r16, 0xFF	; 255
    1626:	1f 4f       	sbci	r17, 0xFF	; 255
    1628:	c8 01       	movw	r24, r16
    162a:	09 95       	icall
		ApplicationGetUid(UidBuffer);
		bool Carry = 1;
		uint8_t i;

		for (i=0; i<ActiveConfiguration.UidSize; i++) {
    162c:	20 91 50 21 	lds	r18, 0x2150	; 0x802150 <ActiveConfiguration+0x16>
    1630:	f8 01       	movw	r30, r16
		}

		ApplicationSetUid(UidBuffer);
	} else if (ButtonAction == BUTTON_ACTION_UID_LEFT_DECREMENT) {
		ApplicationGetUid(UidBuffer);
		bool Carry = 1;
    1632:	91 e0       	ldi	r25, 0x01	; 1
    1634:	8e 2f       	mov	r24, r30
    1636:	80 1b       	sub	r24, r16
		uint8_t i;

		for (i=0; i<ActiveConfiguration.UidSize; i++) {
    1638:	82 17       	cp	r24, r18
    163a:	70 f1       	brcs	.+92     	; 0x1698 <ExecuteButtonAction+0xf6>
}

INLINE void ApplicationSetUid(ConfigurationUidType Uid) {
    ActiveConfiguration.ApplicationSetUidFunc(Uid);
    163c:	e0 91 4c 21 	lds	r30, 0x214C	; 0x80214c <ActiveConfiguration+0x12>
    1640:	f0 91 4d 21 	lds	r31, 0x214D	; 0x80214d <ActiveConfiguration+0x13>
    1644:	c8 01       	movw	r24, r16
    1646:	09 95       	icall
    1648:	60 c0       	rjmp	.+192    	; 0x170a <ExecuteButtonAction+0x168>
				UidBuffer[i] = (UidBuffer[i] + 1) & 0xFF;
			}
		}

		ApplicationSetUid(UidBuffer);
	} else if (ButtonAction == BUTTON_ACTION_UID_RIGHT_INCREMENT) {
    164a:	83 30       	cpi	r24, 0x03	; 3
    164c:	19 f7       	brne	.-58     	; 0x1614 <ExecuteButtonAction+0x72>
INLINE void ApplicationReset(void) {
    ActiveConfiguration.ApplicationResetFunc();
}

INLINE void ApplicationGetUid(ConfigurationUidType Uid) {
    ActiveConfiguration.ApplicationGetUidFunc(Uid);
    164e:	e0 91 4a 21 	lds	r30, 0x214A	; 0x80214a <ActiveConfiguration+0x10>
    1652:	f0 91 4b 21 	lds	r31, 0x214B	; 0x80214b <ActiveConfiguration+0x11>
    1656:	ce 01       	movw	r24, r28
    1658:	01 96       	adiw	r24, 0x01	; 1
    165a:	09 95       	icall
		ApplicationGetUid(UidBuffer);
		bool Carry = 1;
		uint8_t i = ActiveConfiguration.UidSize;
    165c:	80 91 50 21 	lds	r24, 0x2150	; 0x802150 <ActiveConfiguration+0x16>
		}

		ApplicationSetUid(UidBuffer);
	} else if (ButtonAction == BUTTON_ACTION_UID_RIGHT_INCREMENT) {
		ApplicationGetUid(UidBuffer);
		bool Carry = 1;
    1660:	41 e0       	ldi	r20, 0x01	; 1
		uint8_t i = ActiveConfiguration.UidSize;

		while(i-- > 0) {
    1662:	81 50       	subi	r24, 0x01	; 1
    1664:	08 f4       	brcc	.+2      	; 0x1668 <ExecuteButtonAction+0xc6>
    1666:	47 c0       	rjmp	.+142    	; 0x16f6 <ExecuteButtonAction+0x154>
			if (Carry) {
    1668:	44 23       	and	r20, r20
    166a:	d9 f3       	breq	.-10     	; 0x1662 <ExecuteButtonAction+0xc0>
				if (UidBuffer[i] == 0xFF) {
    166c:	28 2f       	mov	r18, r24
    166e:	30 e0       	ldi	r19, 0x00	; 0
    1670:	e1 e0       	ldi	r30, 0x01	; 1
    1672:	f0 e0       	ldi	r31, 0x00	; 0
    1674:	ec 0f       	add	r30, r28
    1676:	fd 1f       	adc	r31, r29
    1678:	e2 0f       	add	r30, r18
    167a:	f3 1f       	adc	r31, r19
    167c:	90 81       	ld	r25, Z
    167e:	41 e0       	ldi	r20, 0x01	; 1
    1680:	9f 3f       	cpi	r25, 0xFF	; 255
    1682:	09 f0       	breq	.+2      	; 0x1686 <ExecuteButtonAction+0xe4>
    1684:	40 e0       	ldi	r20, 0x00	; 0
					Carry = 1;
				} else {
					Carry = 0;
				}

				UidBuffer[i] = (UidBuffer[i] + 1) & 0xFF;
    1686:	e1 e0       	ldi	r30, 0x01	; 1
    1688:	f0 e0       	ldi	r31, 0x00	; 0
    168a:	ec 0f       	add	r30, r28
    168c:	fd 1f       	adc	r31, r29
    168e:	e2 0f       	add	r30, r18
    1690:	f3 1f       	adc	r31, r19
    1692:	9f 5f       	subi	r25, 0xFF	; 255
    1694:	90 83       	st	Z, r25
    1696:	e5 cf       	rjmp	.-54     	; 0x1662 <ExecuteButtonAction+0xc0>
		ApplicationGetUid(UidBuffer);
		bool Carry = 1;
		uint8_t i;

		for (i=0; i<ActiveConfiguration.UidSize; i++) {
			if (Carry) {
    1698:	99 23       	and	r25, r25
    169a:	31 f0       	breq	.+12     	; 0x16a8 <ExecuteButtonAction+0x106>
				if (UidBuffer[i] == 0x00) {
    169c:	80 81       	ld	r24, Z
    169e:	91 e0       	ldi	r25, 0x01	; 1
    16a0:	81 11       	cpse	r24, r1
    16a2:	90 e0       	ldi	r25, 0x00	; 0
					Carry = 1;
				} else {
					Carry = 0;
				}

				UidBuffer[i] = (UidBuffer[i] - 1) & 0xFF;
    16a4:	81 50       	subi	r24, 0x01	; 1
    16a6:	80 83       	st	Z, r24
    16a8:	31 96       	adiw	r30, 0x01	; 1
    16aa:	c4 cf       	rjmp	.-120    	; 0x1634 <ExecuteButtonAction+0x92>
			}
		}

		ApplicationSetUid(UidBuffer);
	} else if (ButtonAction == BUTTON_ACTION_UID_RIGHT_DECREMENT) {
    16ac:	85 30       	cpi	r24, 0x05	; 5
    16ae:	51 f5       	brne	.+84     	; 0x1704 <ExecuteButtonAction+0x162>
    16b0:	e0 91 4a 21 	lds	r30, 0x214A	; 0x80214a <ActiveConfiguration+0x10>
    16b4:	f0 91 4b 21 	lds	r31, 0x214B	; 0x80214b <ActiveConfiguration+0x11>
    16b8:	ce 01       	movw	r24, r28
    16ba:	01 96       	adiw	r24, 0x01	; 1
    16bc:	09 95       	icall
		ApplicationGetUid(UidBuffer);
		bool Carry = 1;
		uint8_t i = ActiveConfiguration.UidSize;
    16be:	80 91 50 21 	lds	r24, 0x2150	; 0x802150 <ActiveConfiguration+0x16>
		}

		ApplicationSetUid(UidBuffer);
	} else if (ButtonAction == BUTTON_ACTION_UID_RIGHT_DECREMENT) {
		ApplicationGetUid(UidBuffer);
		bool Carry = 1;
    16c2:	41 e0       	ldi	r20, 0x01	; 1
		uint8_t i = ActiveConfiguration.UidSize;

		while(i-- > 0) {
    16c4:	81 50       	subi	r24, 0x01	; 1
    16c6:	b8 f0       	brcs	.+46     	; 0x16f6 <ExecuteButtonAction+0x154>
			if (Carry) {
    16c8:	44 23       	and	r20, r20
    16ca:	e1 f3       	breq	.-8      	; 0x16c4 <ExecuteButtonAction+0x122>
				if (UidBuffer[i] == 0x00) {
    16cc:	28 2f       	mov	r18, r24
    16ce:	30 e0       	ldi	r19, 0x00	; 0
    16d0:	e1 e0       	ldi	r30, 0x01	; 1
    16d2:	f0 e0       	ldi	r31, 0x00	; 0
    16d4:	ec 0f       	add	r30, r28
    16d6:	fd 1f       	adc	r31, r29
    16d8:	e2 0f       	add	r30, r18
    16da:	f3 1f       	adc	r31, r19
    16dc:	90 81       	ld	r25, Z
    16de:	41 e0       	ldi	r20, 0x01	; 1
    16e0:	91 11       	cpse	r25, r1
    16e2:	40 e0       	ldi	r20, 0x00	; 0
					Carry = 1;
				} else {
					Carry = 0;
				}

				UidBuffer[i] = (UidBuffer[i] - 1) & 0xFF;
    16e4:	e1 e0       	ldi	r30, 0x01	; 1
    16e6:	f0 e0       	ldi	r31, 0x00	; 0
    16e8:	ec 0f       	add	r30, r28
    16ea:	fd 1f       	adc	r31, r29
    16ec:	e2 0f       	add	r30, r18
    16ee:	f3 1f       	adc	r31, r19
    16f0:	91 50       	subi	r25, 0x01	; 1
    16f2:	90 83       	st	Z, r25
    16f4:	e7 cf       	rjmp	.-50     	; 0x16c4 <ExecuteButtonAction+0x122>
}

INLINE void ApplicationSetUid(ConfigurationUidType Uid) {
    ActiveConfiguration.ApplicationSetUidFunc(Uid);
    16f6:	e0 91 4c 21 	lds	r30, 0x214C	; 0x80214c <ActiveConfiguration+0x12>
    16fa:	f0 91 4d 21 	lds	r31, 0x214D	; 0x80214d <ActiveConfiguration+0x13>
    16fe:	ce 01       	movw	r24, r28
    1700:	01 96       	adiw	r24, 0x01	; 1
    1702:	a1 cf       	rjmp	.-190    	; 0x1646 <ExecuteButtonAction+0xa4>
			}
		}

		ApplicationSetUid(UidBuffer);
	} else if (ButtonAction == BUTTON_ACTION_CYCLE_SETTINGS) {
    1704:	86 30       	cpi	r24, 0x06	; 6
    1706:	09 f4       	brne	.+2      	; 0x170a <ExecuteButtonAction+0x168>
		SettingsCycle();
    1708:	ce d0       	rcall	.+412    	; 0x18a6 <SettingsCycle>
	}
}
    170a:	a0 96       	adiw	r28, 0x20	; 32
    170c:	cd bf       	out	0x3d, r28	; 61
    170e:	de bf       	out	0x3e, r29	; 62
    1710:	df 91       	pop	r29
    1712:	cf 91       	pop	r28
    1714:	1f 91       	pop	r17
    1716:	0f 91       	pop	r16
    1718:	08 95       	ret

0000171a <ButtonInit>:
    [BUTTON_ACTION_CYCLE_SETTINGS] = "SWITCHCARD"
};

void ButtonInit(void)
{
	BUTTON_PORT.DIRCLR = BUTTON_MASK;
    171a:	e0 e0       	ldi	r30, 0x00	; 0
    171c:	f6 e0       	ldi	r31, 0x06	; 6
    171e:	80 e4       	ldi	r24, 0x40	; 64
    1720:	82 83       	std	Z+2, r24	; 0x02
	BUTTON_PORT.BUTTON_PINCTRL = PORT_OPC_PULLUP_gc;
    1722:	88 e1       	ldi	r24, 0x18	; 24
    1724:	86 8b       	std	Z+22, r24	; 0x16
    1726:	08 95       	ret

00001728 <ButtonTick>:

void ButtonTick(void)
{
    //static uint8_t LastButtonState = 0;
    static uint8_t PressTickCounter = 0;
    uint8_t ThisButtonState = ~BUTTON_PORT.IN;
    1728:	90 91 08 06 	lds	r25, 0x0608	; 0x800608 <__TEXT_REGION_LENGTH__+0x700608>
    172c:	80 91 4c 20 	lds	r24, 0x204C	; 0x80204c <__data_end>
    //uint8_t ThisButtonChange = ThisButtonState ^ LastButtonState;
    //uint8_t ThisButtonPress = ThisButtonChange & ThisButtonState;
    //LastButtonState = ThisButtonState;

    if (ThisButtonState & BUTTON_MASK) {
    1730:	96 fd       	sbrc	r25, 6
    1732:	10 c0       	rjmp	.+32     	; 0x1754 <ButtonTick+0x2c>
    	/* Button is currently pressed */
    	if (PressTickCounter < LONG_PRESS_TICK_COUNT) {
    1734:	8a 30       	cpi	r24, 0x0A	; 10
    1736:	50 f0       	brcs	.+20     	; 0x174c <ButtonTick+0x24>
    		/* Count ticks while button is being pressed */
    		PressTickCounter++;
    	} else if (PressTickCounter == LONG_PRESS_TICK_COUNT) {
    1738:	8a 30       	cpi	r24, 0x0A	; 10
    173a:	b9 f4       	brne	.+46     	; 0x176a <ButtonTick+0x42>
    		/* Long button press detected execute button action and advance PressTickCounter
    		 * to an invalid state. */
    		ExecuteButtonAction(GlobalSettings.ActiveSettingPtr->ButtonLongAction);
    173c:	e0 91 01 20 	lds	r30, 0x2001	; 0x802001 <GlobalSettings+0x1>
    1740:	f0 91 02 20 	lds	r31, 0x2002	; 0x802002 <GlobalSettings+0x2>
    1744:	81 81       	ldd	r24, Z+1	; 0x01
    1746:	2d df       	rcall	.-422    	; 0x15a2 <ExecuteButtonAction>
    		PressTickCounter++;
    1748:	80 91 4c 20 	lds	r24, 0x204C	; 0x80204c <__data_end>
    174c:	8f 5f       	subi	r24, 0xFF	; 255
    174e:	80 93 4c 20 	sts	0x204C, r24	; 0x80204c <__data_end>
    1752:	08 95       	ret
    		/* Button is still pressed, ignore */
    	}
    } else if (!(ThisButtonState & BUTTON_MASK)) {
    	/* Button is currently not being pressed. Check if PressTickCounter contains
    	 * a recent short button press. */
    	if ( (PressTickCounter > 0) && (PressTickCounter <= LONG_PRESS_TICK_COUNT) ) {
    1754:	81 50       	subi	r24, 0x01	; 1
    1756:	8a 30       	cpi	r24, 0x0A	; 10
    1758:	30 f4       	brcc	.+12     	; 0x1766 <ButtonTick+0x3e>
    		/* We have a short button press */
    		ExecuteButtonAction(GlobalSettings.ActiveSettingPtr->ButtonAction);
    175a:	e0 91 01 20 	lds	r30, 0x2001	; 0x802001 <GlobalSettings+0x1>
    175e:	f0 91 02 20 	lds	r31, 0x2002	; 0x802002 <GlobalSettings+0x2>
    1762:	80 81       	ld	r24, Z
    1764:	1e df       	rcall	.-452    	; 0x15a2 <ExecuteButtonAction>
    	}

    	PressTickCounter = 0;
    1766:	10 92 4c 20 	sts	0x204C, r1	; 0x80204c <__data_end>
    176a:	08 95       	ret

0000176c <ButtonGetActionList>:
	}
}

void ButtonGetActionList(char* ListOut, uint16_t BufferSize)
{
    176c:	cf 93       	push	r28
    uint8_t i;

    /* Account for '\0' */
    BufferSize--;
    176e:	61 50       	subi	r22, 0x01	; 1
    1770:	71 09       	sbc	r23, r1
    1772:	47 e1       	ldi	r20, 0x17	; 23
    1774:	56 e0       	ldi	r21, 0x06	; 6

    for (i=0; i<BUTTON_ACTION_COUNT; i++) {
    1776:	20 e0       	ldi	r18, 0x00	; 0
            BufferSize--;
        }

        if ( i < (BUTTON_ACTION_COUNT - 1) ) {
            /* No comma on last configuration */
            *ListOut++ = ',';
    1778:	cc e2       	ldi	r28, 0x2C	; 44

    /* Account for '\0' */
    BufferSize--;

    for (i=0; i<BUTTON_ACTION_COUNT; i++) {
        const char* ActionName = ButtonActionTable[i];
    177a:	fa 01       	movw	r30, r20
    177c:	dc 01       	movw	r26, r24
    177e:	cd 01       	movw	r24, r26
        char c;

        while( (c = pgm_read_byte(ActionName)) != '\0' && BufferSize > sizeof(ButtonActionTable[i]) ) {
    1780:	34 91       	lpm	r19, Z
    1782:	31 11       	cpse	r19, r1
    1784:	08 c0       	rjmp	.+16     	; 0x1796 <ButtonGetActionList+0x2a>
            *ListOut++ = c;
            ActionName++;
            BufferSize--;
        }

        if ( i < (BUTTON_ACTION_COUNT - 1) ) {
    1786:	26 30       	cpi	r18, 0x06	; 6
    1788:	71 f0       	breq	.+28     	; 0x17a6 <ButtonGetActionList+0x3a>
            /* No comma on last configuration */
            *ListOut++ = ',';
    178a:	cd 01       	movw	r24, r26
    178c:	01 96       	adiw	r24, 0x01	; 1
    178e:	cc 93       	st	X, r28
            BufferSize--;
    1790:	61 50       	subi	r22, 0x01	; 1
    1792:	71 09       	sbc	r23, r1
    1794:	08 c0       	rjmp	.+16     	; 0x17a6 <ButtonGetActionList+0x3a>

    for (i=0; i<BUTTON_ACTION_COUNT; i++) {
        const char* ActionName = ButtonActionTable[i];
        char c;

        while( (c = pgm_read_byte(ActionName)) != '\0' && BufferSize > sizeof(ButtonActionTable[i]) ) {
    1796:	61 32       	cpi	r22, 0x21	; 33
    1798:	71 05       	cpc	r23, r1
    179a:	a8 f3       	brcs	.-22     	; 0x1786 <ButtonGetActionList+0x1a>
            /* While not end-of-string and enough buffer to
            * put a complete configuration name */
            *ListOut++ = c;
    179c:	3d 93       	st	X+, r19
            ActionName++;
    179e:	31 96       	adiw	r30, 0x01	; 1
            BufferSize--;
    17a0:	61 50       	subi	r22, 0x01	; 1
    17a2:	71 09       	sbc	r23, r1
    17a4:	ec cf       	rjmp	.-40     	; 0x177e <ButtonGetActionList+0x12>
    uint8_t i;

    /* Account for '\0' */
    BufferSize--;

    for (i=0; i<BUTTON_ACTION_COUNT; i++) {
    17a6:	2f 5f       	subi	r18, 0xFF	; 255
    17a8:	40 5e       	subi	r20, 0xE0	; 224
    17aa:	5f 4f       	sbci	r21, 0xFF	; 255
    17ac:	27 30       	cpi	r18, 0x07	; 7
    17ae:	29 f7       	brne	.-54     	; 0x177a <ButtonGetActionList+0xe>
            *ListOut++ = ',';
            BufferSize--;
        }
    }

    *ListOut = '\0';
    17b0:	fc 01       	movw	r30, r24
    17b2:	10 82       	st	Z, r1
}
    17b4:	cf 91       	pop	r28
    17b6:	08 95       	ret

000017b8 <ButtonSetActionById>:

void ButtonSetActionById(ButtonTypeEnum Type, ButtonActionEnum Action)
{
	#ifndef BUTTON_SETTING_GLOBAL
	if (Type == BUTTON_PRESS_SHORT) {
    17b8:	81 11       	cpse	r24, r1
    17ba:	06 c0       	rjmp	.+12     	; 0x17c8 <ButtonSetActionById+0x10>
		GlobalSettings.ActiveSettingPtr->ButtonAction = Action;
    17bc:	e0 91 01 20 	lds	r30, 0x2001	; 0x802001 <GlobalSettings+0x1>
    17c0:	f0 91 02 20 	lds	r31, 0x2002	; 0x802002 <GlobalSettings+0x2>
    17c4:	60 83       	st	Z, r22
    17c6:	08 95       	ret
		} else if (Type == BUTTON_PRESS_LONG) {
    17c8:	81 30       	cpi	r24, 0x01	; 1
    17ca:	29 f4       	brne	.+10     	; 0x17d6 <ButtonSetActionById+0x1e>
		GlobalSettings.ActiveSettingPtr->ButtonLongAction = Action;
    17cc:	e0 91 01 20 	lds	r30, 0x2001	; 0x802001 <GlobalSettings+0x1>
    17d0:	f0 91 02 20 	lds	r31, 0x2002	; 0x802002 <GlobalSettings+0x2>
    17d4:	61 83       	std	Z+1, r22	; 0x01
    17d6:	08 95       	ret

000017d8 <ButtonGetActionByName>:
	}
	#endif
}

void ButtonGetActionByName(ButtonTypeEnum Type, char* ActionOut, uint16_t BufferSize)
{
    17d8:	28 2f       	mov	r18, r24
    17da:	cb 01       	movw	r24, r22
	if (Type == BUTTON_PRESS_SHORT) {
    17dc:	21 11       	cpse	r18, r1
    17de:	0a c0       	rjmp	.+20     	; 0x17f4 <ButtonGetActionByName+0x1c>
		strncpy_P(ActionOut, ButtonActionTable[GlobalSettings.ActiveSettingPtr->ButtonAction], BufferSize);
    17e0:	e0 91 01 20 	lds	r30, 0x2001	; 0x802001 <GlobalSettings+0x1>
    17e4:	f0 91 02 20 	lds	r31, 0x2002	; 0x802002 <GlobalSettings+0x2>
    17e8:	20 81       	ld	r18, Z
    17ea:	60 e2       	ldi	r22, 0x20	; 32
    17ec:	26 9f       	mul	r18, r22
    17ee:	90 01       	movw	r18, r0
    17f0:	11 24       	eor	r1, r1
    17f2:	0b c0       	rjmp	.+22     	; 0x180a <ButtonGetActionByName+0x32>
		} else if (Type == BUTTON_PRESS_LONG) {
    17f4:	21 30       	cpi	r18, 0x01	; 1
    17f6:	71 f4       	brne	.+28     	; 0x1814 <ButtonGetActionByName+0x3c>
		strncpy_P(ActionOut, ButtonActionTable[GlobalSettings.ActiveSettingPtr->ButtonLongAction], BufferSize);
    17f8:	e0 91 01 20 	lds	r30, 0x2001	; 0x802001 <GlobalSettings+0x1>
    17fc:	f0 91 02 20 	lds	r31, 0x2002	; 0x802002 <GlobalSettings+0x2>
    1800:	21 81       	ldd	r18, Z+1	; 0x01
    1802:	e0 e2       	ldi	r30, 0x20	; 32
    1804:	2e 9f       	mul	r18, r30
    1806:	90 01       	movw	r18, r0
    1808:	11 24       	eor	r1, r1
    180a:	b9 01       	movw	r22, r18
    180c:	69 5e       	subi	r22, 0xE9	; 233
    180e:	79 4f       	sbci	r23, 0xF9	; 249
    1810:	0c 94 68 2a 	jmp	0x54d0	; 0x54d0 <strncpy_P>
		} else {
		/* Should not happen (TM) */
		*ActionOut = '\0';
    1814:	fb 01       	movw	r30, r22
    1816:	10 82       	st	Z, r1
    1818:	08 95       	ret

0000181a <ButtonSetActionByName>:
	}
}

bool ButtonSetActionByName(ButtonTypeEnum Type, const char* Action)
{
    181a:	ef 92       	push	r14
    181c:	ff 92       	push	r15
    181e:	0f 93       	push	r16
    1820:	1f 93       	push	r17
    1822:	cf 93       	push	r28
    1824:	df 93       	push	r29
    1826:	d8 2f       	mov	r29, r24
    1828:	7b 01       	movw	r14, r22
    182a:	07 e1       	ldi	r16, 0x17	; 23
    182c:	16 e0       	ldi	r17, 0x06	; 6
	uint8_t i;

	for (i=0; i<BUTTON_ACTION_COUNT; i++) {
    182e:	c0 e0       	ldi	r28, 0x00	; 0
		if (strcmp_P(Action, ButtonActionTable[i]) == 0) {
    1830:	b8 01       	movw	r22, r16
    1832:	c7 01       	movw	r24, r14
    1834:	0e 94 5f 2a 	call	0x54be	; 0x54be <strcmp_P>
    1838:	89 2b       	or	r24, r25
    183a:	29 f4       	brne	.+10     	; 0x1846 <ButtonSetActionByName+0x2c>
			ButtonSetActionById(Type, i);
    183c:	6c 2f       	mov	r22, r28
    183e:	8d 2f       	mov	r24, r29
    1840:	bb df       	rcall	.-138    	; 0x17b8 <ButtonSetActionById>
			return true;
    1842:	81 e0       	ldi	r24, 0x01	; 1
    1844:	06 c0       	rjmp	.+12     	; 0x1852 <ButtonSetActionByName+0x38>

bool ButtonSetActionByName(ButtonTypeEnum Type, const char* Action)
{
	uint8_t i;

	for (i=0; i<BUTTON_ACTION_COUNT; i++) {
    1846:	cf 5f       	subi	r28, 0xFF	; 255
    1848:	00 5e       	subi	r16, 0xE0	; 224
    184a:	1f 4f       	sbci	r17, 0xFF	; 255
    184c:	c7 30       	cpi	r28, 0x07	; 7
    184e:	81 f7       	brne	.-32     	; 0x1830 <ButtonSetActionByName+0x16>
			return true;
		}
	}

	/* Button action not found */
	return false;
    1850:	80 e0       	ldi	r24, 0x00	; 0
}
    1852:	df 91       	pop	r29
    1854:	cf 91       	pop	r28
    1856:	1f 91       	pop	r17
    1858:	0f 91       	pop	r16
    185a:	ff 90       	pop	r15
    185c:	ef 90       	pop	r14
    185e:	08 95       	ret

00001860 <SettingsLoad>:
	}
}

uint8_t SettingsGetActiveById(void) {
	return GlobalSettings.ActiveSetting;
}
    1860:	4b e2       	ldi	r20, 0x2B	; 43
    1862:	50 e0       	ldi	r21, 0x00	; 0
    1864:	60 e0       	ldi	r22, 0x00	; 0
    1866:	70 e0       	ldi	r23, 0x00	; 0
    1868:	80 e0       	ldi	r24, 0x00	; 0
    186a:	90 e2       	ldi	r25, 0x20	; 32
    186c:	0c 94 30 2d 	jmp	0x5a60	; 0x5a60 <eeprom_read_block>

00001870 <SettingsSave>:
    1870:	4b e2       	ldi	r20, 0x2B	; 43
    1872:	50 e0       	ldi	r21, 0x00	; 0
    1874:	60 e0       	ldi	r22, 0x00	; 0
    1876:	70 e0       	ldi	r23, 0x00	; 0
    1878:	80 e0       	ldi	r24, 0x00	; 0
    187a:	90 e2       	ldi	r25, 0x20	; 32
    187c:	0c 94 3b 2d 	jmp	0x5a76	; 0x5a76 <eeprom_write_block>

00001880 <SettingsSetActiveById>:
    1880:	88 30       	cpi	r24, 0x08	; 8
    1882:	78 f4       	brcc	.+30     	; 0x18a2 <SettingsSetActiveById+0x22>
    1884:	80 93 00 20 	sts	0x2000, r24	; 0x802000 <GlobalSettings>
    1888:	25 e0       	ldi	r18, 0x05	; 5
    188a:	82 9f       	mul	r24, r18
    188c:	c0 01       	movw	r24, r0
    188e:	11 24       	eor	r1, r1
    1890:	8d 5f       	subi	r24, 0xFD	; 253
    1892:	9f 4d       	sbci	r25, 0xDF	; 223
    1894:	80 93 01 20 	sts	0x2001, r24	; 0x802001 <GlobalSettings+0x1>
    1898:	90 93 02 20 	sts	0x2002, r25	; 0x802002 <GlobalSettings+0x2>
    189c:	db da       	rcall	.-2634   	; 0xe54 <ConfigurationInit>
    189e:	81 e0       	ldi	r24, 0x01	; 1
    18a0:	08 95       	ret
    18a2:	80 e0       	ldi	r24, 0x00	; 0
    18a4:	08 95       	ret

000018a6 <SettingsCycle>:
    18a6:	30 91 00 20 	lds	r19, 0x2000	; 0x802000 <GlobalSettings>
    18aa:	29 e0       	ldi	r18, 0x09	; 9
    18ac:	45 e0       	ldi	r20, 0x05	; 5
    18ae:	21 50       	subi	r18, 0x01	; 1
    18b0:	b1 f0       	breq	.+44     	; 0x18de <SettingsCycle+0x38>
    18b2:	83 2f       	mov	r24, r19
    18b4:	90 e0       	ldi	r25, 0x00	; 0
    18b6:	01 96       	adiw	r24, 0x01	; 1
    18b8:	87 70       	andi	r24, 0x07	; 7
    18ba:	99 27       	eor	r25, r25
    18bc:	38 2f       	mov	r19, r24
    18be:	bc 01       	movw	r22, r24
    18c0:	6f 5f       	subi	r22, 0xFF	; 255
    18c2:	7f 4f       	sbci	r23, 0xFF	; 255
    18c4:	46 9f       	mul	r20, r22
    18c6:	f0 01       	movw	r30, r0
    18c8:	47 9f       	mul	r20, r23
    18ca:	f0 0d       	add	r31, r0
    18cc:	11 24       	eor	r1, r1
    18ce:	e0 50       	subi	r30, 0x00	; 0
    18d0:	f0 4e       	sbci	r31, 0xE0	; 224
    18d2:	50 81       	ld	r21, Z
    18d4:	55 23       	and	r21, r21
    18d6:	59 f3       	breq	.-42     	; 0x18ae <SettingsCycle+0x8>
    18d8:	d3 df       	rcall	.-90     	; 0x1880 <SettingsSetActiveById>
    18da:	81 11       	cpse	r24, r1
    18dc:	c9 cf       	rjmp	.-110    	; 0x1870 <SettingsSave>
    18de:	08 95       	ret

000018e0 <SettingsGetActiveByName>:

void SettingsGetActiveByName(char* SettingOut, uint16_t BufferSize) {
    18e0:	fc 01       	movw	r30, r24
	SettingOut[0] = 'N';
    18e2:	8e e4       	ldi	r24, 0x4E	; 78
    18e4:	80 83       	st	Z, r24
	SettingOut[1] = 'O';
    18e6:	8f e4       	ldi	r24, 0x4F	; 79
    18e8:	81 83       	std	Z+1, r24	; 0x01
	SettingOut[2] = '.';	
    18ea:	8e e2       	ldi	r24, 0x2E	; 46
    18ec:	82 83       	std	Z+2, r24	; 0x02
	SettingOut[3] = SettingsGetActiveById() + '0';
    18ee:	80 91 00 20 	lds	r24, 0x2000	; 0x802000 <GlobalSettings>
    18f2:	80 5d       	subi	r24, 0xD0	; 208
    18f4:	83 83       	std	Z+3, r24	; 0x03
	SettingOut[4] = '\0';
    18f6:	14 82       	std	Z+4, r1	; 0x04
    18f8:	08 95       	ret

000018fa <SettingsSetActiveByName>:
}

bool SettingsSetActiveByName(const char* Setting) {
    18fa:	fc 01       	movw	r30, r24
	uint8_t SettingNr = Setting[0] - '0';
    18fc:	90 81       	ld	r25, Z

	if ((Setting[1] == '\0') && (SettingNr < SETTINGS_COUNT)) {
    18fe:	81 81       	ldd	r24, Z+1	; 0x01
    1900:	81 11       	cpse	r24, r1
    1902:	05 c0       	rjmp	.+10     	; 0x190e <SettingsSetActiveByName+0x14>
	SettingOut[3] = SettingsGetActiveById() + '0';
	SettingOut[4] = '\0';
}

bool SettingsSetActiveByName(const char* Setting) {
	uint8_t SettingNr = Setting[0] - '0';
    1904:	80 ed       	ldi	r24, 0xD0	; 208
    1906:	89 0f       	add	r24, r25

	if ((Setting[1] == '\0') && (SettingNr < SETTINGS_COUNT)) {
    1908:	88 30       	cpi	r24, 0x08	; 8
    190a:	08 f4       	brcc	.+2      	; 0x190e <SettingsSetActiveByName+0x14>
		return SettingsSetActiveById(SettingNr);
    190c:	b9 cf       	rjmp	.-142    	; 0x1880 <SettingsSetActiveById>
	} else {
		return false;
	}
}
    190e:	80 e0       	ldi	r24, 0x00	; 0
    1910:	08 95       	ret

00001912 <MapIdToText>:
#include "Map.h"

bool MapIdToText(const MapEntryType* MapPtr, uint8_t MapSize, MapIdType Id, char* Text, uint16_t MaxBufferSize)
{
    1912:	0f 93       	push	r16
    1914:	1f 93       	push	r17
    1916:	fc 01       	movw	r30, r24
    while (MapSize--) {
    1918:	66 23       	and	r22, r22
    191a:	79 f0       	breq	.+30     	; 0x193a <MapIdToText+0x28>
        if (pgm_read_byte(&MapPtr->Id) == Id) {
    191c:	94 91       	lpm	r25, Z
    191e:	61 50       	subi	r22, 0x01	; 1
    1920:	94 13       	cpse	r25, r20
    1922:	09 c0       	rjmp	.+18     	; 0x1936 <MapIdToText+0x24>
            strncpy_P(Text, MapPtr->Text, MaxBufferSize);
    1924:	bf 01       	movw	r22, r30
    1926:	6f 5f       	subi	r22, 0xFF	; 255
    1928:	7f 4f       	sbci	r23, 0xFF	; 255
    192a:	a8 01       	movw	r20, r16
    192c:	c9 01       	movw	r24, r18
    192e:	0e 94 68 2a 	call	0x54d0	; 0x54d0 <strncpy_P>
            return true;
    1932:	81 e0       	ldi	r24, 0x01	; 1
    1934:	03 c0       	rjmp	.+6      	; 0x193c <MapIdToText+0x2a>
        }

        MapPtr++;
    1936:	b1 96       	adiw	r30, 0x21	; 33
    1938:	ef cf       	rjmp	.-34     	; 0x1918 <MapIdToText+0x6>
    }

    return false;
    193a:	80 e0       	ldi	r24, 0x00	; 0
}
    193c:	1f 91       	pop	r17
    193e:	0f 91       	pop	r16
    1940:	08 95       	ret

00001942 <MapTextToId>:

bool MapTextToId(const MapEntryType* MapPtr, uint8_t MapSize, MapTextPtrType Text, MapIdType* IdPtr)
{
    1942:	cf 92       	push	r12
    1944:	df 92       	push	r13
    1946:	ef 92       	push	r14
    1948:	ff 92       	push	r15
    194a:	1f 93       	push	r17
    194c:	cf 93       	push	r28
    194e:	df 93       	push	r29
    1950:	ec 01       	movw	r28, r24
    1952:	7a 01       	movw	r14, r20
    1954:	69 01       	movw	r12, r18
    while (MapSize--) {
    1956:	16 2f       	mov	r17, r22
    1958:	11 23       	and	r17, r17
    195a:	89 f0       	breq	.+34     	; 0x197e <MapTextToId+0x3c>
    195c:	be 01       	movw	r22, r28
    195e:	6f 5f       	subi	r22, 0xFF	; 255
    1960:	7f 4f       	sbci	r23, 0xFF	; 255
        if (strcmp_P(Text, MapPtr->Text) == 0) {
    1962:	c7 01       	movw	r24, r14
    1964:	0e 94 5f 2a 	call	0x54be	; 0x54be <strcmp_P>
    1968:	11 50       	subi	r17, 0x01	; 1
    196a:	89 2b       	or	r24, r25
    196c:	31 f4       	brne	.+12     	; 0x197a <MapTextToId+0x38>
            if (sizeof(MapIdType) == 1) {
                *IdPtr = pgm_read_byte(&MapPtr->Id);
    196e:	fe 01       	movw	r30, r28
    1970:	c4 91       	lpm	r28, Z
    1972:	f6 01       	movw	r30, r12
    1974:	c0 83       	st	Z, r28
            } else if (sizeof(MapIdType) == 2) {
                *IdPtr = pgm_read_word(&MapPtr->Id);
            }
            return true;
    1976:	81 e0       	ldi	r24, 0x01	; 1
    1978:	03 c0       	rjmp	.+6      	; 0x1980 <MapTextToId+0x3e>
        }

        MapPtr++;
    197a:	a1 96       	adiw	r28, 0x21	; 33
    197c:	ed cf       	rjmp	.-38     	; 0x1958 <MapTextToId+0x16>
    }

    return false;
    197e:	80 e0       	ldi	r24, 0x00	; 0
}
    1980:	df 91       	pop	r29
    1982:	cf 91       	pop	r28
    1984:	1f 91       	pop	r17
    1986:	ff 90       	pop	r15
    1988:	ef 90       	pop	r14
    198a:	df 90       	pop	r13
    198c:	cf 90       	pop	r12
    198e:	08 95       	ret

00001990 <MapToString>:

void MapToString(MapEntryType* MapPtr, uint8_t MapSize, char* String, uint16_t MaxBufferSize)
{
    1990:	cf 93       	push	r28
    1992:	01 96       	adiw	r24, 0x01	; 1
            /* More than one map entries left */
            if (BytesLeft == 0) {
                return;
            }

            *String++ = ',';
    1994:	cc e2       	ldi	r28, 0x2C	; 44
void MapToString(MapEntryType* MapPtr, uint8_t MapSize, char* String, uint16_t MaxBufferSize)
{
    uint8_t EntriesLeft = MapSize;
    uint16_t BytesLeft = MaxBufferSize;

    while (EntriesLeft > 0) {
    1996:	66 23       	and	r22, r22
    1998:	c9 f0       	breq	.+50     	; 0x19cc <MapToString+0x3c>
        const char* Text = MapPtr->Text;
    199a:	fc 01       	movw	r30, r24
    199c:	da 01       	movw	r26, r20
    199e:	ad 01       	movw	r20, r26
        char c;

        while( (c = pgm_read_byte(Text)) != '\0') {
    19a0:	74 91       	lpm	r23, Z
    19a2:	77 23       	and	r23, r23
    19a4:	41 f0       	breq	.+16     	; 0x19b6 <MapToString+0x26>
            if (BytesLeft == 0) {
    19a6:	21 15       	cp	r18, r1
    19a8:	31 05       	cpc	r19, r1
    19aa:	a1 f0       	breq	.+40     	; 0x19d4 <MapToString+0x44>
                return;
            }

            *String++ = c;
    19ac:	7d 93       	st	X+, r23
            Text++;
    19ae:	31 96       	adiw	r30, 0x01	; 1
            BytesLeft--;
    19b0:	21 50       	subi	r18, 0x01	; 1
    19b2:	31 09       	sbc	r19, r1
    19b4:	f4 cf       	rjmp	.-24     	; 0x199e <MapToString+0xe>
        }

        if (EntriesLeft > 1) {
    19b6:	62 30       	cpi	r22, 0x02	; 2
    19b8:	30 f0       	brcs	.+12     	; 0x19c6 <MapToString+0x36>
            /* More than one map entries left */
            if (BytesLeft == 0) {
    19ba:	21 15       	cp	r18, r1
    19bc:	31 05       	cpc	r19, r1
    19be:	51 f0       	breq	.+20     	; 0x19d4 <MapToString+0x44>
                return;
            }

            *String++ = ',';
    19c0:	4f 5f       	subi	r20, 0xFF	; 255
    19c2:	5f 4f       	sbci	r21, 0xFF	; 255
    19c4:	cc 93       	st	X, r28
        }

        MapPtr++;
        EntriesLeft--;
    19c6:	61 50       	subi	r22, 0x01	; 1
    19c8:	81 96       	adiw	r24, 0x21	; 33
    19ca:	e5 cf       	rjmp	.-54     	; 0x1996 <MapToString+0x6>
    }

    /* Terminate string */
    if (BytesLeft > 0) {
    19cc:	23 2b       	or	r18, r19
    19ce:	11 f0       	breq	.+4      	; 0x19d4 <MapToString+0x44>
        *String++ = '\0';
    19d0:	fa 01       	movw	r30, r20
    19d2:	10 82       	st	Z, r1
        BytesLeft--;
    }
}
    19d4:	cf 91       	pop	r28
    19d6:	08 95       	ret

000019d8 <fifo_buffer_input>:
	/* USART */
	USART_Rx_Enable(&USART);

	///* USART */
	//USART_RxdInterruptLevel_Set(&USART,USART_RXCINTLVL_LO_gc);
	USART_RxdInterruptLevel_Set(&USART,USART_RXCINTLVL_HI_gc);
    19d8:	ef e4       	ldi	r30, 0x4F	; 79
    19da:	f0 e2       	ldi	r31, 0x20	; 32
    19dc:	a2 81       	ldd	r26, Z+2	; 0x02
    19de:	b3 81       	ldd	r27, Z+3	; 0x03
    19e0:	a1 5b       	subi	r26, 0xB1	; 177
    19e2:	bf 4d       	sbci	r27, 0xDF	; 223
    19e4:	16 96       	adiw	r26, 0x06	; 6
    19e6:	8c 93       	st	X, r24
    19e8:	82 81       	ldd	r24, Z+2	; 0x02
    19ea:	93 81       	ldd	r25, Z+3	; 0x03
    19ec:	01 96       	adiw	r24, 0x01	; 1
    19ee:	8f 77       	andi	r24, 0x7F	; 127
    19f0:	99 27       	eor	r25, r25
    19f2:	82 83       	std	Z+2, r24	; 0x02
    19f4:	93 83       	std	Z+3, r25	; 0x03
    19f6:	80 81       	ld	r24, Z
    19f8:	91 81       	ldd	r25, Z+1	; 0x01
    19fa:	01 96       	adiw	r24, 0x01	; 1
    19fc:	80 83       	st	Z, r24
    19fe:	91 83       	std	Z+1, r25	; 0x01
    1a00:	08 95       	ret

00001a02 <__vector_58>:
+------------------------------------------------------------------------------
| Description : USART USART
+------------------------------------------------------------------------------
*/
ISR(USARTE0_RXC_vect)  
{
    1a02:	1f 92       	push	r1
    1a04:	0f 92       	push	r0
    1a06:	0f b6       	in	r0, 0x3f	; 63
    1a08:	0f 92       	push	r0
    1a0a:	11 24       	eor	r1, r1
    1a0c:	2f 93       	push	r18
    1a0e:	3f 93       	push	r19
    1a10:	4f 93       	push	r20
    1a12:	5f 93       	push	r21
    1a14:	6f 93       	push	r22
    1a16:	7f 93       	push	r23
    1a18:	8f 93       	push	r24
    1a1a:	9f 93       	push	r25
    1a1c:	af 93       	push	r26
    1a1e:	bf 93       	push	r27
    1a20:	ef 93       	push	r30
    1a22:	ff 93       	push	r31
    fifo_buffer_input(USART_GetChar(&USART));	
    1a24:	80 91 a0 0a 	lds	r24, 0x0AA0	; 0x800aa0 <__TEXT_REGION_LENGTH__+0x700aa0>
    1a28:	d7 df       	rcall	.-82     	; 0x19d8 <fifo_buffer_input>
    1a2a:	ff 91       	pop	r31
    1a2c:	ef 91       	pop	r30
    1a2e:	bf 91       	pop	r27
    1a30:	af 91       	pop	r26
    1a32:	9f 91       	pop	r25
    1a34:	8f 91       	pop	r24
    1a36:	7f 91       	pop	r23
    1a38:	6f 91       	pop	r22
    1a3a:	5f 91       	pop	r21
    1a3c:	4f 91       	pop	r20
    1a3e:	3f 91       	pop	r19
    1a40:	2f 91       	pop	r18
    1a42:	0f 90       	pop	r0
    1a44:	0f be       	out	0x3f, r0	; 63
    1a46:	0f 90       	pop	r0
    1a48:	1f 90       	pop	r1
    1a4a:	18 95       	reti

00001a4c <TerminalSendString>:
uint8_t TerminalBuffer[TERMINAL_BUFFER_SIZE];
TerminalStateEnum TerminalState = TERMINAL_UNINITIALIZED;
static uint8_t TerminalInitDelay = INIT_DELAY;

void TerminalSendString(const char* s) {
    CDC_Device_SendString(&TerminalHandle, s);
    1a4c:	bc 01       	movw	r22, r24
    1a4e:	8c e2       	ldi	r24, 0x2C	; 44
    1a50:	90 e2       	ldi	r25, 0x20	; 32
    1a52:	0c 94 cd 27 	jmp	0x4f9a	; 0x4f9a <CDC_Device_SendString>

00001a56 <TerminalSendStringP>:
}

void TerminalSendStringP(const char* s) {
    1a56:	cf 93       	push	r28
    1a58:	df 93       	push	r29
    char c;

    while( (c = pgm_read_byte(s++)) != '\0' ) {
    1a5a:	fc 01       	movw	r30, r24
    1a5c:	64 91       	lpm	r22, Z
    1a5e:	ec 01       	movw	r28, r24
    1a60:	21 96       	adiw	r28, 0x01	; 1
    1a62:	66 23       	and	r22, r22
    1a64:	31 f0       	breq	.+12     	; 0x1a72 <TerminalSendStringP+0x1c>
void EVENT_USB_Device_Connect(void);
void EVENT_USB_Device_Disconnect(void);
void EVENT_USB_Device_ConfigurationChanged(void);
void EVENT_USB_Device_ControlRequest(void);

INLINE void TerminalSendChar(char c) { CDC_Device_SendByte(&TerminalHandle, c); }
    1a66:	8c e2       	ldi	r24, 0x2C	; 44
    1a68:	90 e2       	ldi	r25, 0x20	; 32
    1a6a:	0e 94 1b 28 	call	0x5036	; 0x5036 <CDC_Device_SendByte>
    1a6e:	ce 01       	movw	r24, r28
    1a70:	f4 cf       	rjmp	.-24     	; 0x1a5a <TerminalSendStringP+0x4>
        TerminalSendChar(c);
    }
}
    1a72:	df 91       	pop	r29
    1a74:	cf 91       	pop	r28
    1a76:	08 95       	ret

00001a78 <TerminalSendBlock>:
#endif



void TerminalSendBlock(const void* Buffer, uint16_t ByteCount)
{
    1a78:	ab 01       	movw	r20, r22
    CDC_Device_SendData(&TerminalHandle, Buffer, ByteCount);
    1a7a:	bc 01       	movw	r22, r24
    1a7c:	8c e2       	ldi	r24, 0x2C	; 44
    1a7e:	90 e2       	ldi	r25, 0x20	; 32
    1a80:	0c 94 f7 27 	jmp	0x4fee	; 0x4fee <CDC_Device_SendData>

00001a84 <TerminalInit>:
    }
}

void TerminalInit(void)
{
    TERMINAL_VBUS_PORT.DIRCLR = TERMINAL_VBUS_MASK;
    1a84:	80 e2       	ldi	r24, 0x20	; 32
    1a86:	80 93 62 06 	sts	0x0662, r24	; 0x800662 <__TEXT_REGION_LENGTH__+0x700662>
    1a8a:	08 95       	ret

00001a8c <TerminalTask>:
}

void TerminalTask(void)
{
    1a8c:	cf 93       	push	r28
    1a8e:	df 93       	push	r29
	CDC_Device_USBTask(&TerminalHandle);
    1a90:	8c e2       	ldi	r24, 0x2C	; 44
    1a92:	90 e2       	ldi	r25, 0x20	; 32
    1a94:	0e 94 80 28 	call	0x5100	; 0x5100 <CDC_Device_USBTask>
	USB_USBTask();
    1a98:	0e 94 65 23 	call	0x46ca	; 0x46ca <USB_USBTask>
    CDC_Device_SendData(&TerminalHandle, Buffer, ByteCount);
}


static void ProcessByte(void) {
    int16_t Byte = CDC_Device_ReceiveByte(&TerminalHandle);
    1a9c:	8c e2       	ldi	r24, 0x2C	; 44
    1a9e:	90 e2       	ldi	r25, 0x20	; 32
    1aa0:	0e 94 9c 28 	call	0x5138	; 0x5138 <CDC_Device_ReceiveByte>
    1aa4:	ec 01       	movw	r28, r24

    if (Byte >= 0) {
    1aa6:	97 fd       	sbrc	r25, 7
    1aa8:	07 c0       	rjmp	.+14     	; 0x1ab8 <TerminalTask+0x2c>
        /* Byte received */
    	//LEDPulse(LED_RED);

        if (XModemProcessByte(Byte)) {
    1aaa:	fa d2       	rcall	.+1524   	; 0x20a0 <XModemProcessByte>
    1aac:	81 11       	cpse	r24, r1
    1aae:	04 c0       	rjmp	.+8      	; 0x1ab8 <TerminalTask+0x2c>
            /* XModem handled the byte */
        } else if (CommandLineProcessByte(Byte)) {
    1ab0:	8c 2f       	mov	r24, r28
{
	CDC_Device_USBTask(&TerminalHandle);
	USB_USBTask();

    ProcessByte();
}
    1ab2:	df 91       	pop	r29
    1ab4:	cf 91       	pop	r28
        /* Byte received */
    	//LEDPulse(LED_RED);

        if (XModemProcessByte(Byte)) {
            /* XModem handled the byte */
        } else if (CommandLineProcessByte(Byte)) {
    1ab6:	8a c4       	rjmp	.+2324   	; 0x23cc <CommandLineProcessByte>
{
	CDC_Device_USBTask(&TerminalHandle);
	USB_USBTask();

    ProcessByte();
}
    1ab8:	df 91       	pop	r29
    1aba:	cf 91       	pop	r28
    1abc:	08 95       	ret

00001abe <TerminalTick>:
    }
}

static void SenseVBus(void)
{
    switch(TerminalState) {
    1abe:	80 91 d5 20 	lds	r24, 0x20D5	; 0x8020d5 <TerminalState>
    1ac2:	81 30       	cpi	r24, 0x01	; 1
    1ac4:	79 f0       	breq	.+30     	; 0x1ae4 <TerminalTick+0x26>
    1ac6:	28 f0       	brcs	.+10     	; 0x1ad2 <TerminalTick+0x14>
    1ac8:	82 30       	cpi	r24, 0x02	; 2
    1aca:	d1 f0       	breq	.+52     	; 0x1b00 <TerminalTick+0x42>
    1acc:	83 30       	cpi	r24, 0x03	; 3
    1ace:	09 f1       	breq	.+66     	; 0x1b12 <TerminalTick+0x54>
    1ad0:	2c c0       	rjmp	.+88     	; 0x1b2a <TerminalTick+0x6c>
    case TERMINAL_UNINITIALIZED:
    	if (TERMINAL_VBUS_PORT.IN & TERMINAL_VBUS_MASK) {
    1ad2:	80 91 68 06 	lds	r24, 0x0668	; 0x800668 <__TEXT_REGION_LENGTH__+0x700668>
    1ad6:	85 ff       	sbrs	r24, 5
    1ad8:	28 c0       	rjmp	.+80     	; 0x1b2a <TerminalTick+0x6c>
    		/* Not initialized and VBUS sense high */
    		TerminalInitDelay = INIT_DELAY;
    1ada:	84 e1       	ldi	r24, 0x14	; 20
    1adc:	80 93 2b 20 	sts	0x202B, r24	; 0x80202b <TerminalInitDelay>
    		TerminalState = TERMINAL_INITIALIZING;
    1ae0:	81 e0       	ldi	r24, 0x01	; 1
    1ae2:	0b c0       	rjmp	.+22     	; 0x1afa <TerminalTick+0x3c>
    	}
    break;

    case TERMINAL_INITIALIZING:
    	if (--TerminalInitDelay == 0) {
    1ae4:	80 91 2b 20 	lds	r24, 0x202B	; 0x80202b <TerminalInitDelay>
    1ae8:	81 50       	subi	r24, 0x01	; 1
    1aea:	80 93 2b 20 	sts	0x202B, r24	; 0x80202b <TerminalInitDelay>
    1aee:	81 11       	cpse	r24, r1
    1af0:	1c c0       	rjmp	.+56     	; 0x1b2a <TerminalTick+0x6c>
            SystemStartUSBClock();
    1af2:	5c d9       	rcall	.-3400   	; 0xdac <SystemStartUSBClock>
            USB_Init();
    1af4:	0e 94 09 27 	call	0x4e12	; 0x4e12 <USB_Init>
            TerminalState = TERMINAL_INITIALIZED;
    1af8:	82 e0       	ldi	r24, 0x02	; 2
    1afa:	80 93 d5 20 	sts	0x20D5, r24	; 0x8020d5 <TerminalState>
    1afe:	15 c0       	rjmp	.+42     	; 0x1b2a <TerminalTick+0x6c>
    	}
    	break;

    case TERMINAL_INITIALIZED:
    	if (!(TERMINAL_VBUS_PORT.IN & TERMINAL_VBUS_MASK)) {
    1b00:	80 91 68 06 	lds	r24, 0x0668	; 0x800668 <__TEXT_REGION_LENGTH__+0x700668>
    1b04:	85 fd       	sbrc	r24, 5
    1b06:	11 c0       	rjmp	.+34     	; 0x1b2a <TerminalTick+0x6c>
    		/* Initialized and VBUS sense low */
    		TerminalInitDelay = INIT_DELAY;
    1b08:	84 e1       	ldi	r24, 0x14	; 20
    1b0a:	80 93 2b 20 	sts	0x202B, r24	; 0x80202b <TerminalInitDelay>
    		TerminalState = TERMINAL_UNITIALIZING;
    1b0e:	83 e0       	ldi	r24, 0x03	; 3
    1b10:	f4 cf       	rjmp	.-24     	; 0x1afa <TerminalTick+0x3c>
    	}
    	break;

    case TERMINAL_UNITIALIZING:
    	if (--TerminalInitDelay == 0) {
    1b12:	80 91 2b 20 	lds	r24, 0x202B	; 0x80202b <TerminalInitDelay>
    1b16:	81 50       	subi	r24, 0x01	; 1
    1b18:	80 93 2b 20 	sts	0x202B, r24	; 0x80202b <TerminalInitDelay>
    1b1c:	81 11       	cpse	r24, r1
    1b1e:	05 c0       	rjmp	.+10     	; 0x1b2a <TerminalTick+0x6c>
        	USB_Disable();
    1b20:	0e 94 ce 26 	call	0x4d9c	; 0x4d9c <USB_Disable>
        	SystemStopUSBClock();
    1b24:	5c d9       	rcall	.-3400   	; 0xdde <SystemStopUSBClock>
        	TerminalState = TERMINAL_UNINITIALIZED;
    1b26:	10 92 d5 20 	sts	0x20D5, r1	; 0x8020d5 <TerminalState>

void TerminalTick(void)
{
	SenseVBus();

    XModemTick();
    1b2a:	fc d3       	rcall	.+2040   	; 0x2324 <XModemTick>
    CommandLineTick();
    1b2c:	4c c5       	rjmp	.+2712   	; 0x25c6 <CommandLineTick>

00001b2e <EVENT_USB_Device_Connect>:
}

/** Event handler for the library USB Connection event. */
void EVENT_USB_Device_Connect(void)
{
    1b2e:	08 95       	ret

00001b30 <EVENT_USB_Device_Disconnect>:
    //LEDSetOn(LED_GREEN);
}

/** Event handler for the library USB Disconnection event. */
void EVENT_USB_Device_Disconnect(void)
{
    1b30:	08 95       	ret

00001b32 <EVENT_USB_Device_ConfigurationChanged>:


/** Event handler for the library USB Configuration Changed event. */
void EVENT_USB_Device_ConfigurationChanged(void)
{
    CDC_Device_ConfigureEndpoints(&TerminalHandle);
    1b32:	8c e2       	ldi	r24, 0x2C	; 44
    1b34:	90 e2       	ldi	r25, 0x20	; 32
    1b36:	0c 94 a8 27 	jmp	0x4f50	; 0x4f50 <CDC_Device_ConfigureEndpoints>

00001b3a <EVENT_USB_Device_ControlRequest>:
}

/** Event handler for the library USB Control Request reception event. */
void EVENT_USB_Device_ControlRequest(void)
{
    CDC_Device_ProcessControlRequest(&TerminalHandle);
    1b3a:	8c e2       	ldi	r24, 0x2C	; 44
    1b3c:	90 e2       	ldi	r25, 0x20	; 32
    1b3e:	0c 94 ef 28 	jmp	0x51de	; 0x51de <CDC_Device_ProcessControlRequest>

00001b42 <CommandGetVersion>:
#include "../Application/MifareUltralight.h"

extern const PROGMEM CommandEntryType CommandTable[];

CommandStatusIdType CommandGetVersion(char* OutParam) {
	snprintf_P(OutParam, TERMINAL_BUFFER_SIZE, PSTR("Chameleon-new-1.0"));
    1b42:	2e e1       	ldi	r18, 0x1E	; 30
    1b44:	37 e0       	ldi	r19, 0x07	; 7
    1b46:	3f 93       	push	r19
    1b48:	2f 93       	push	r18
    1b4a:	21 e0       	ldi	r18, 0x01	; 1
    1b4c:	2f 93       	push	r18
    1b4e:	1f 92       	push	r1
    1b50:	9f 93       	push	r25
    1b52:	8f 93       	push	r24
    1b54:	0e 94 94 2a 	call	0x5528	; 0x5528 <snprintf_P>
	return COMMAND_INFO_OK_WITH_TEXT_ID;
    1b58:	0f 90       	pop	r0
    1b5a:	0f 90       	pop	r0
    1b5c:	0f 90       	pop	r0
    1b5e:	0f 90       	pop	r0
    1b60:	0f 90       	pop	r0
    1b62:	0f 90       	pop	r0
}
    1b64:	85 e6       	ldi	r24, 0x65	; 101
    1b66:	08 95       	ret

00001b68 <CommandGetConfig>:

CommandStatusIdType CommandGetConfig(char* OutParam) {
	ConfigurationGetByName(OutParam, TERMINAL_BUFFER_SIZE);
    1b68:	60 e0       	ldi	r22, 0x00	; 0
    1b6a:	71 e0       	ldi	r23, 0x01	; 1
    1b6c:	79 d9       	rcall	.-3342   	; 0xe60 <ConfigurationGetByName>
	return COMMAND_INFO_OK_WITH_TEXT_ID;
}
    1b6e:	85 e6       	ldi	r24, 0x65	; 101
    1b70:	08 95       	ret

00001b72 <CommandSetConfig>:

CommandStatusIdType CommandSetConfig(char* OutMessage, const char* InParam) {
    1b72:	cb 01       	movw	r24, r22
	if (ConfigurationSetByName(InParam)) {
    1b74:	85 d9       	rcall	.-3318   	; 0xe80 <ConfigurationSetByName>
    1b76:	88 23       	and	r24, r24
    1b78:	19 f0       	breq	.+6      	; 0x1b80 <CommandSetConfig+0xe>
		SettingsSave();
    1b7a:	7a de       	rcall	.-780    	; 0x1870 <SettingsSave>
		return COMMAND_INFO_OK_ID;
    1b7c:	84 e6       	ldi	r24, 0x64	; 100
    1b7e:	08 95       	ret
	} else {
		return COMMAND_ERR_INVALID_PARAM_ID;
    1b80:	8a ec       	ldi	r24, 0xCA	; 202
	}
}
    1b82:	08 95       	ret

00001b84 <CommandExecConfig>:

CommandStatusIdType CommandExecConfig(char* OutMessage) {
  ConfigurationGetList(OutMessage, TERMINAL_BUFFER_SIZE);
    1b84:	60 e0       	ldi	r22, 0x00	; 0
    1b86:	71 e0       	ldi	r23, 0x01	; 1
    1b88:	9c d9       	rcall	.-3272   	; 0xec2 <ConfigurationGetList>
  return COMMAND_INFO_OK_WITH_TEXT_ID;
}
    1b8a:	85 e6       	ldi	r24, 0x65	; 101
    1b8c:	08 95       	ret

00001b8e <CommandGetUid>:

CommandStatusIdType CommandGetUid(char* OutParam) {
    1b8e:	ef 92       	push	r14
    1b90:	ff 92       	push	r15
    1b92:	0f 93       	push	r16
    1b94:	1f 93       	push	r17
    1b96:	cf 93       	push	r28
    1b98:	df 93       	push	r29
    1b9a:	cd b7       	in	r28, 0x3d	; 61
    1b9c:	de b7       	in	r29, 0x3e	; 62
    1b9e:	a0 97       	sbiw	r28, 0x20	; 32
    1ba0:	cd bf       	out	0x3d, r28	; 61
    1ba2:	de bf       	out	0x3e, r29	; 62
    1ba4:	7c 01       	movw	r14, r24
  uint8_t UidBuffer[COMMAND_UID_BUFSIZE];
  uint16_t UidSize = ActiveConfiguration.UidSize;
    1ba6:	ea e3       	ldi	r30, 0x3A	; 58
    1ba8:	f1 e2       	ldi	r31, 0x21	; 33
    1baa:	06 89       	ldd	r16, Z+22	; 0x16
    1bac:	10 e0       	ldi	r17, 0x00	; 0
INLINE void ApplicationReset(void) {
    ActiveConfiguration.ApplicationResetFunc();
}

INLINE void ApplicationGetUid(ConfigurationUidType Uid) {
    ActiveConfiguration.ApplicationGetUidFunc(Uid);
    1bae:	00 88       	ldd	r0, Z+16	; 0x10
    1bb0:	f1 89       	ldd	r31, Z+17	; 0x11
    1bb2:	e0 2d       	mov	r30, r0
    1bb4:	ce 01       	movw	r24, r28
    1bb6:	01 96       	adiw	r24, 0x01	; 1
    1bb8:	09 95       	icall

  ApplicationGetUid(UidBuffer);
  BufferToHexString(OutParam, TERMINAL_BUFFER_SIZE, UidBuffer, UidSize);
    1bba:	98 01       	movw	r18, r16
    1bbc:	ae 01       	movw	r20, r28
    1bbe:	4f 5f       	subi	r20, 0xFF	; 255
    1bc0:	5f 4f       	sbci	r21, 0xFF	; 255
    1bc2:	60 e0       	ldi	r22, 0x00	; 0
    1bc4:	71 e0       	ldi	r23, 0x01	; 1
    1bc6:	c7 01       	movw	r24, r14
    1bc8:	9f d9       	rcall	.-3266   	; 0xf08 <BufferToHexString>
  return COMMAND_INFO_OK_WITH_TEXT_ID;
}
    1bca:	85 e6       	ldi	r24, 0x65	; 101
    1bcc:	a0 96       	adiw	r28, 0x20	; 32
    1bce:	cd bf       	out	0x3d, r28	; 61
    1bd0:	de bf       	out	0x3e, r29	; 62
    1bd2:	df 91       	pop	r29
    1bd4:	cf 91       	pop	r28
    1bd6:	1f 91       	pop	r17
    1bd8:	0f 91       	pop	r16
    1bda:	ff 90       	pop	r15
    1bdc:	ef 90       	pop	r14
    1bde:	08 95       	ret

00001be0 <CommandSetUid>:

CommandStatusIdType CommandSetUid(char* OutMessage, const char* InParam) {
    1be0:	df 92       	push	r13
    1be2:	ef 92       	push	r14
    1be4:	ff 92       	push	r15
    1be6:	0f 93       	push	r16
    1be8:	1f 93       	push	r17
    1bea:	cf 93       	push	r28
    1bec:	df 93       	push	r29
    1bee:	cd b7       	in	r28, 0x3d	; 61
    1bf0:	de b7       	in	r29, 0x3e	; 62
    1bf2:	a0 97       	sbiw	r28, 0x20	; 32
    1bf4:	cd bf       	out	0x3d, r28	; 61
    1bf6:	de bf       	out	0x3e, r29	; 62
    1bf8:	7b 01       	movw	r14, r22
  uint8_t UidBuffer[COMMAND_UID_BUFSIZE];
  uint16_t UidSize = ActiveConfiguration.UidSize;
    1bfa:	00 91 50 21 	lds	r16, 0x2150	; 0x802150 <ActiveConfiguration+0x16>
    1bfe:	10 e0       	ldi	r17, 0x00	; 0

  if (strcmp_P(InParam, PSTR(COMMAND_UID_RANDOM)) == 0) {
    1c00:	65 e1       	ldi	r22, 0x15	; 21
    1c02:	77 e0       	ldi	r23, 0x07	; 7
    1c04:	c7 01       	movw	r24, r14
    1c06:	0e 94 5f 2a 	call	0x54be	; 0x54be <strcmp_P>
    1c0a:	89 2b       	or	r24, r25
    1c0c:	c9 f4       	brne	.+50     	; 0x1c40 <CommandSetUid+0x60>
    1c0e:	d1 2c       	mov	r13, r1
    /* Load with random bytes */
    for (uint8_t i=0; i<UidSize; i++) {
    1c10:	ed 2c       	mov	r14, r13
    1c12:	f1 2c       	mov	r15, r1
    1c14:	e0 16       	cp	r14, r16
    1c16:	f1 06       	cpc	r15, r17
    1c18:	50 f4       	brcc	.+20     	; 0x1c2e <CommandSetUid+0x4e>
      UidBuffer[i] = RandomGetByte();
    1c1a:	5a d9       	rcall	.-3404   	; 0xed0 <RandomGetByte>
    1c1c:	e1 e0       	ldi	r30, 0x01	; 1
    1c1e:	f0 e0       	ldi	r31, 0x00	; 0
    1c20:	ec 0f       	add	r30, r28
    1c22:	fd 1f       	adc	r31, r29
    1c24:	ee 0d       	add	r30, r14
    1c26:	ff 1d       	adc	r31, r15
    1c28:	80 83       	st	Z, r24
  uint8_t UidBuffer[COMMAND_UID_BUFSIZE];
  uint16_t UidSize = ActiveConfiguration.UidSize;

  if (strcmp_P(InParam, PSTR(COMMAND_UID_RANDOM)) == 0) {
    /* Load with random bytes */
    for (uint8_t i=0; i<UidSize; i++) {
    1c2a:	d3 94       	inc	r13
    1c2c:	f1 cf       	rjmp	.-30     	; 0x1c10 <CommandSetUid+0x30>
}

INLINE void ApplicationSetUid(ConfigurationUidType Uid) {
    ActiveConfiguration.ApplicationSetUidFunc(Uid);
    1c2e:	e0 91 4c 21 	lds	r30, 0x214C	; 0x80214c <ActiveConfiguration+0x12>
    1c32:	f0 91 4d 21 	lds	r31, 0x214D	; 0x80214d <ActiveConfiguration+0x13>
    1c36:	ce 01       	movw	r24, r28
    1c38:	01 96       	adiw	r24, 0x01	; 1
    1c3a:	09 95       	icall
      return COMMAND_ERR_INVALID_PARAM_ID;
    }
  }

  ApplicationSetUid(UidBuffer);
  return COMMAND_INFO_OK_ID;
    1c3c:	84 e6       	ldi	r24, 0x64	; 100
    1c3e:	0a c0       	rjmp	.+20     	; 0x1c54 <CommandSetUid+0x74>
    for (uint8_t i=0; i<UidSize; i++) {
      UidBuffer[i] = RandomGetByte();
    }
  } else {
    /* Convert to Bytes */
    if (HexStringToBuffer(UidBuffer, sizeof(UidBuffer), InParam) != UidSize) {
    1c40:	a7 01       	movw	r20, r14
    1c42:	60 e2       	ldi	r22, 0x20	; 32
    1c44:	70 e0       	ldi	r23, 0x00	; 0
    1c46:	ce 01       	movw	r24, r28
    1c48:	01 96       	adiw	r24, 0x01	; 1
    1c4a:	98 d9       	rcall	.-3280   	; 0xf7c <HexStringToBuffer>
    1c4c:	80 17       	cp	r24, r16
    1c4e:	91 07       	cpc	r25, r17
    1c50:	71 f3       	breq	.-36     	; 0x1c2e <CommandSetUid+0x4e>
      /* Malformed input. Abort */
      return COMMAND_ERR_INVALID_PARAM_ID;
    1c52:	8a ec       	ldi	r24, 0xCA	; 202
    }
  }

  ApplicationSetUid(UidBuffer);
  return COMMAND_INFO_OK_ID;
}
    1c54:	a0 96       	adiw	r28, 0x20	; 32
    1c56:	cd bf       	out	0x3d, r28	; 61
    1c58:	de bf       	out	0x3e, r29	; 62
    1c5a:	df 91       	pop	r29
    1c5c:	cf 91       	pop	r28
    1c5e:	1f 91       	pop	r17
    1c60:	0f 91       	pop	r16
    1c62:	ff 90       	pop	r15
    1c64:	ef 90       	pop	r14
    1c66:	df 90       	pop	r13
    1c68:	08 95       	ret

00001c6a <CommandGetReadOnly>:

CommandStatusIdType CommandGetReadOnly(char* OutParam)
{
    1c6a:	fc 01       	movw	r30, r24
  if (ActiveConfiguration.ReadOnly) {
    1c6c:	80 91 51 21 	lds	r24, 0x2151	; 0x802151 <ActiveConfiguration+0x17>
    1c70:	88 23       	and	r24, r24
    1c72:	11 f0       	breq	.+4      	; 0x1c78 <CommandGetReadOnly+0xe>
    OutParam[0] = COMMAND_CHAR_TRUE;
    1c74:	81 e3       	ldi	r24, 0x31	; 49
    1c76:	01 c0       	rjmp	.+2      	; 0x1c7a <CommandGetReadOnly+0x10>
  } else {
    OutParam[0] = COMMAND_CHAR_FALSE;
    1c78:	80 e3       	ldi	r24, 0x30	; 48
    1c7a:	80 83       	st	Z, r24
  }

  OutParam[1] = '\0';
    1c7c:	11 82       	std	Z+1, r1	; 0x01

  return COMMAND_INFO_OK_WITH_TEXT_ID;
}
    1c7e:	85 e6       	ldi	r24, 0x65	; 101
    1c80:	08 95       	ret

00001c82 <CommandSetReadOnly>:

CommandStatusIdType CommandSetReadOnly(char* OutMessage, const char* InParam)
{
  if (InParam[1] == '\0') {
    1c82:	fb 01       	movw	r30, r22
    1c84:	81 81       	ldd	r24, Z+1	; 0x01
    1c86:	81 11       	cpse	r24, r1
    1c88:	0d c0       	rjmp	.+26     	; 0x1ca4 <CommandSetReadOnly+0x22>
    if (InParam[0] == COMMAND_CHAR_TRUE) {
    1c8a:	80 81       	ld	r24, Z
    1c8c:	81 33       	cpi	r24, 0x31	; 49
    1c8e:	21 f4       	brne	.+8      	; 0x1c98 <CommandSetReadOnly+0x16>
      ActiveConfiguration.ReadOnly = true;
    1c90:	81 e0       	ldi	r24, 0x01	; 1
    1c92:	80 93 51 21 	sts	0x2151, r24	; 0x802151 <ActiveConfiguration+0x17>
    1c96:	04 c0       	rjmp	.+8      	; 0x1ca0 <CommandSetReadOnly+0x1e>
      return COMMAND_INFO_OK_ID;
    } else if (InParam[0] == COMMAND_CHAR_FALSE) {
    1c98:	80 33       	cpi	r24, 0x30	; 48
    1c9a:	21 f4       	brne	.+8      	; 0x1ca4 <CommandSetReadOnly+0x22>
      ActiveConfiguration.ReadOnly = false;
    1c9c:	10 92 51 21 	sts	0x2151, r1	; 0x802151 <ActiveConfiguration+0x17>
      return COMMAND_INFO_OK_ID;
    1ca0:	84 e6       	ldi	r24, 0x64	; 100
    1ca2:	08 95       	ret
    }
  }

  return COMMAND_ERR_INVALID_PARAM_ID;
    1ca4:	8a ec       	ldi	r24, 0xCA	; 202
}
    1ca6:	08 95       	ret

00001ca8 <CommandExecUpload>:

CommandStatusIdType CommandExecUpload(char* OutMessage) {
    XModemReceive(MemoryUploadBlock);
    1ca8:	87 e9       	ldi	r24, 0x97	; 151
    1caa:	9a e0       	ldi	r25, 0x0A	; 10
    1cac:	c8 d1       	rcall	.+912    	; 0x203e <XModemReceive>
    return COMMAND_INFO_XMODEM_WAIT_ID;
}
    1cae:	8e e6       	ldi	r24, 0x6E	; 110
    1cb0:	08 95       	ret

00001cb2 <CommandExecDownload>:

CommandStatusIdType CommandExecDownload(char* OutMessage) {
    XModemSend(MemoryDownloadBlock);
    1cb2:	83 eb       	ldi	r24, 0xB3	; 179
    1cb4:	9a e0       	ldi	r25, 0x0A	; 10
    1cb6:	de d1       	rcall	.+956    	; 0x2074 <XModemSend>
    return COMMAND_INFO_XMODEM_WAIT_ID;
}
    1cb8:	8e e6       	ldi	r24, 0x6E	; 110
    1cba:	08 95       	ret

00001cbc <CommandExecReset>:
			 *  enumerating the device once attached until \ref USB_Attach() is called.
			 */
			static inline void USB_Detach(void) ATTR_ALWAYS_INLINE;
			static inline void USB_Detach(void)
			{
				USB.CTRLB &= ~USB_ATTACH_bm;
    1cbc:	e0 ec       	ldi	r30, 0xC0	; 192
    1cbe:	f4 e0       	ldi	r31, 0x04	; 4
    1cc0:	81 81       	ldd	r24, Z+1	; 0x01
    1cc2:	8e 7f       	andi	r24, 0xFE	; 254
    1cc4:	81 83       	std	Z+1, r24	; 0x01

CommandStatusIdType CommandExecReset(char* OutMessage) {
	USB_Detach();
	USB_Disable();
    1cc6:	0e 94 ce 26 	call	0x4d9c	; 0x4d9c <USB_Disable>
	SystemReset();
    1cca:	64 d8       	rcall	.-3896   	; 0xd94 <SystemReset>
	return COMMAND_INFO_OK_ID;
}
    1ccc:	84 e6       	ldi	r24, 0x64	; 100
    1cce:	08 95       	ret

00001cd0 <CommandExecUpgrade>:
    1cd0:	e0 ec       	ldi	r30, 0xC0	; 192
    1cd2:	f4 e0       	ldi	r31, 0x04	; 4
    1cd4:	81 81       	ldd	r24, Z+1	; 0x01
    1cd6:	8e 7f       	andi	r24, 0xFE	; 254
    1cd8:	81 83       	std	Z+1, r24	; 0x01

#ifdef SUPPORT_FIRMWARE_UPGRADE
CommandStatusIdType CommandExecUpgrade(char* OutMessage) {
	USB_Detach();
	USB_Disable();
    1cda:	0e 94 ce 26 	call	0x4d9c	; 0x4d9c <USB_Disable>
	SystemEnterBootloader();
    1cde:	60 d8       	rcall	.-3904   	; 0xda0 <SystemEnterBootloader>
	return COMMAND_INFO_OK_ID;
}
    1ce0:	84 e6       	ldi	r24, 0x64	; 100
    1ce2:	08 95       	ret

00001ce4 <CommandGetMemSize>:
#endif

CommandStatusIdType CommandGetMemSize(char* OutParam) {
	snprintf_P(OutParam, TERMINAL_BUFFER_SIZE, PSTR("%u"), ActiveConfiguration.MemorySize);
    1ce4:	ea e3       	ldi	r30, 0x3A	; 58
    1ce6:	f1 e2       	ldi	r31, 0x21	; 33
    1ce8:	25 89       	ldd	r18, Z+21	; 0x15
    1cea:	2f 93       	push	r18
    1cec:	24 89       	ldd	r18, Z+20	; 0x14
    1cee:	2f 93       	push	r18
    1cf0:	22 e1       	ldi	r18, 0x12	; 18
    1cf2:	37 e0       	ldi	r19, 0x07	; 7
    1cf4:	3f 93       	push	r19
    1cf6:	2f 93       	push	r18
    1cf8:	21 e0       	ldi	r18, 0x01	; 1
    1cfa:	2f 93       	push	r18
    1cfc:	1f 92       	push	r1
    1cfe:	9f 93       	push	r25
    1d00:	8f 93       	push	r24
    1d02:	0e 94 94 2a 	call	0x5528	; 0x5528 <snprintf_P>
	return COMMAND_INFO_OK_WITH_TEXT_ID;
    1d06:	8d b7       	in	r24, 0x3d	; 61
    1d08:	9e b7       	in	r25, 0x3e	; 62
    1d0a:	08 96       	adiw	r24, 0x08	; 8
    1d0c:	8d bf       	out	0x3d, r24	; 61
    1d0e:	9e bf       	out	0x3e, r25	; 62
}
    1d10:	85 e6       	ldi	r24, 0x65	; 101
    1d12:	08 95       	ret

00001d14 <CommandGetUidSize>:

CommandStatusIdType CommandGetUidSize(char* OutParam) {
    snprintf_P(OutParam, TERMINAL_BUFFER_SIZE, PSTR("%u"), ActiveConfiguration.UidSize);
    1d14:	20 91 50 21 	lds	r18, 0x2150	; 0x802150 <ActiveConfiguration+0x16>
    1d18:	1f 92       	push	r1
    1d1a:	2f 93       	push	r18
    1d1c:	2f e0       	ldi	r18, 0x0F	; 15
    1d1e:	37 e0       	ldi	r19, 0x07	; 7
    1d20:	3f 93       	push	r19
    1d22:	2f 93       	push	r18
    1d24:	21 e0       	ldi	r18, 0x01	; 1
    1d26:	2f 93       	push	r18
    1d28:	1f 92       	push	r1
    1d2a:	9f 93       	push	r25
    1d2c:	8f 93       	push	r24
    1d2e:	0e 94 94 2a 	call	0x5528	; 0x5528 <snprintf_P>
    return COMMAND_INFO_OK_WITH_TEXT_ID;
    1d32:	8d b7       	in	r24, 0x3d	; 61
    1d34:	9e b7       	in	r25, 0x3e	; 62
    1d36:	08 96       	adiw	r24, 0x08	; 8
    1d38:	8d bf       	out	0x3d, r24	; 61
    1d3a:	9e bf       	out	0x3e, r25	; 62
}
    1d3c:	85 e6       	ldi	r24, 0x65	; 101
    1d3e:	08 95       	ret

00001d40 <CommandExecButton>:

CommandStatusIdType CommandExecButton(char* OutMessage)
{
	ButtonGetActionList(OutMessage, TERMINAL_BUFFER_SIZE);
    1d40:	60 e0       	ldi	r22, 0x00	; 0
    1d42:	71 e0       	ldi	r23, 0x01	; 1
    1d44:	13 dd       	rcall	.-1498   	; 0x176c <ButtonGetActionList>
	return COMMAND_INFO_OK_WITH_TEXT_ID;
}
    1d46:	85 e6       	ldi	r24, 0x65	; 101
    1d48:	08 95       	ret

00001d4a <CommandGetButton>:

CommandStatusIdType CommandGetButton(char* OutParam)
{
	ButtonGetActionByName(BUTTON_PRESS_SHORT, OutParam, TERMINAL_BUFFER_SIZE);
    1d4a:	40 e0       	ldi	r20, 0x00	; 0
    1d4c:	51 e0       	ldi	r21, 0x01	; 1
    1d4e:	bc 01       	movw	r22, r24
    1d50:	80 e0       	ldi	r24, 0x00	; 0
    1d52:	42 dd       	rcall	.-1404   	; 0x17d8 <ButtonGetActionByName>
	return COMMAND_INFO_OK_WITH_TEXT_ID;
}
    1d54:	85 e6       	ldi	r24, 0x65	; 101
    1d56:	08 95       	ret

00001d58 <CommandSetButton>:

CommandStatusIdType CommandSetButton(char* OutMessage, const char* InParam)
{
	if (ButtonSetActionByName(BUTTON_PRESS_SHORT, InParam)) {
    1d58:	80 e0       	ldi	r24, 0x00	; 0
    1d5a:	5f dd       	rcall	.-1346   	; 0x181a <ButtonSetActionByName>
    1d5c:	88 23       	and	r24, r24
    1d5e:	19 f0       	breq	.+6      	; 0x1d66 <CommandSetButton+0xe>
		SettingsSave();
    1d60:	87 dd       	rcall	.-1266   	; 0x1870 <SettingsSave>
		return COMMAND_INFO_OK_ID;
    1d62:	84 e6       	ldi	r24, 0x64	; 100
    1d64:	08 95       	ret
		} else {
		return COMMAND_ERR_INVALID_PARAM_ID;
    1d66:	8a ec       	ldi	r24, 0xCA	; 202
	}
}
    1d68:	08 95       	ret

00001d6a <CommandExecButtonLong>:

CommandStatusIdType CommandExecButtonLong(char* OutMessage)
{
	ButtonGetActionList(OutMessage, TERMINAL_BUFFER_SIZE);
    1d6a:	60 e0       	ldi	r22, 0x00	; 0
    1d6c:	71 e0       	ldi	r23, 0x01	; 1
    1d6e:	fe dc       	rcall	.-1540   	; 0x176c <ButtonGetActionList>
	return COMMAND_INFO_OK_WITH_TEXT_ID;
}
    1d70:	85 e6       	ldi	r24, 0x65	; 101
    1d72:	08 95       	ret

00001d74 <CommandGetButtonLong>:

CommandStatusIdType CommandGetButtonLong(char* OutParam)
{
	ButtonGetActionByName(BUTTON_PRESS_LONG, OutParam, TERMINAL_BUFFER_SIZE);
    1d74:	40 e0       	ldi	r20, 0x00	; 0
    1d76:	51 e0       	ldi	r21, 0x01	; 1
    1d78:	bc 01       	movw	r22, r24
    1d7a:	81 e0       	ldi	r24, 0x01	; 1
    1d7c:	2d dd       	rcall	.-1446   	; 0x17d8 <ButtonGetActionByName>
	return COMMAND_INFO_OK_WITH_TEXT_ID;
}
    1d7e:	85 e6       	ldi	r24, 0x65	; 101
    1d80:	08 95       	ret

00001d82 <CommandSetButtonLong>:

CommandStatusIdType CommandSetButtonLong(char* OutMessage, const char* InParam)
{
	if (ButtonSetActionByName(BUTTON_PRESS_LONG, InParam)) {
    1d82:	81 e0       	ldi	r24, 0x01	; 1
    1d84:	4a dd       	rcall	.-1388   	; 0x181a <ButtonSetActionByName>
    1d86:	88 23       	and	r24, r24
    1d88:	19 f0       	breq	.+6      	; 0x1d90 <CommandSetButtonLong+0xe>
		SettingsSave();
    1d8a:	72 dd       	rcall	.-1308   	; 0x1870 <SettingsSave>
		return COMMAND_INFO_OK_ID;
    1d8c:	84 e6       	ldi	r24, 0x64	; 100
    1d8e:	08 95       	ret
		} else {
		return COMMAND_ERR_INVALID_PARAM_ID;
    1d90:	8a ec       	ldi	r24, 0xCA	; 202
	}
}
    1d92:	08 95       	ret

00001d94 <CommandGetSetting>:

CommandStatusIdType CommandGetSetting(char* OutParam) {
	SettingsGetActiveByName(OutParam, TERMINAL_BUFFER_SIZE);
    1d94:	60 e0       	ldi	r22, 0x00	; 0
    1d96:	71 e0       	ldi	r23, 0x01	; 1
    1d98:	a3 dd       	rcall	.-1210   	; 0x18e0 <SettingsGetActiveByName>
	return COMMAND_INFO_OK_WITH_TEXT_ID;
}
    1d9a:	85 e6       	ldi	r24, 0x65	; 101
    1d9c:	08 95       	ret

00001d9e <CommandSetSetting>:

CommandStatusIdType CommandSetSetting(char* OutMessage, const char* InParam) {
    1d9e:	cb 01       	movw	r24, r22
	if (SettingsSetActiveByName(InParam)) {
    1da0:	ac dd       	rcall	.-1192   	; 0x18fa <SettingsSetActiveByName>
    1da2:	88 23       	and	r24, r24
    1da4:	19 f0       	breq	.+6      	; 0x1dac <CommandSetSetting+0xe>
		SettingsSave();
    1da6:	64 dd       	rcall	.-1336   	; 0x1870 <SettingsSave>
		return COMMAND_INFO_OK_ID;
    1da8:	84 e6       	ldi	r24, 0x64	; 100
    1daa:	08 95       	ret
	} else {
		return COMMAND_ERR_INVALID_PARAM_ID;
    1dac:	8a ec       	ldi	r24, 0xCA	; 202
	}
}
    1dae:	08 95       	ret

00001db0 <CommandExecClear>:

CommandStatusIdType CommandExecClear(char* OutParam) {
	MemoryClear();
    1db0:	5b db       	rcall	.-2378   	; 0x1468 <MemoryClear>
	return COMMAND_INFO_OK_ID;
}
    1db2:	84 e6       	ldi	r24, 0x64	; 100
    1db4:	08 95       	ret

00001db6 <CommandExecHelp>:

CommandStatusIdType CommandExecHelp(char* OutMessage) {
    1db6:	df 92       	push	r13
    1db8:	ef 92       	push	r14
    1dba:	ff 92       	push	r15
    1dbc:	0f 93       	push	r16
    1dbe:	1f 93       	push	r17
    1dc0:	cf 93       	push	r28
    1dc2:	df 93       	push	r29
    1dc4:	ec 01       	movw	r28, r24
    const CommandEntryType* EntryPtr = CommandTable;
    uint16_t ByteCount = TERMINAL_BUFFER_SIZE - 1; /* Account for '\0' */
    1dc6:	ee 24       	eor	r14, r14
    1dc8:	ea 94       	dec	r14
    1dca:	f1 2c       	mov	r15, r1
	MemoryClear();
	return COMMAND_INFO_OK_ID;
}

CommandStatusIdType CommandExecHelp(char* OutMessage) {
    const CommandEntryType* EntryPtr = CommandTable;
    1dcc:	08 e0       	ldi	r16, 0x08	; 8
    1dce:	18 e0       	ldi	r17, 0x08	; 8
            *OutMessage++ = c;
            CommandName++;
            ByteCount--;
        }

        *OutMessage++ = ',';
    1dd0:	9c e2       	ldi	r25, 0x2C	; 44
    1dd2:	d9 2e       	mov	r13, r25

CommandStatusIdType CommandExecHelp(char* OutMessage) {
    const CommandEntryType* EntryPtr = CommandTable;
    uint16_t ByteCount = TERMINAL_BUFFER_SIZE - 1; /* Account for '\0' */

    while(strcmp_P(COMMAND_LIST_END, EntryPtr->Command) != 0) {
    1dd4:	b8 01       	movw	r22, r16
    1dd6:	8b e4       	ldi	r24, 0x4B	; 75
    1dd8:	90 e2       	ldi	r25, 0x20	; 32
    1dda:	0e 94 5f 2a 	call	0x54be	; 0x54be <strcmp_P>
    1dde:	89 2b       	or	r24, r25
    1de0:	b9 f0       	breq	.+46     	; 0x1e10 <CommandExecHelp+0x5a>
    1de2:	de 01       	movw	r26, r28
    1de4:	f8 01       	movw	r30, r16
        const char* CommandName = EntryPtr->Command;
        char c;

        while( (c = pgm_read_byte(CommandName)) != '\0' && ByteCount > 32) {
    1de6:	24 91       	lpm	r18, Z
    1de8:	ed 01       	movw	r28, r26
    1dea:	21 96       	adiw	r28, 0x01	; 1
    1dec:	c7 01       	movw	r24, r14
    1dee:	01 97       	sbiw	r24, 0x01	; 1
    1df0:	22 23       	and	r18, r18
    1df2:	49 f0       	breq	.+18     	; 0x1e06 <CommandExecHelp+0x50>
    1df4:	31 e2       	ldi	r19, 0x21	; 33
    1df6:	e3 16       	cp	r14, r19
    1df8:	f1 04       	cpc	r15, r1
    1dfa:	28 f0       	brcs	.+10     	; 0x1e06 <CommandExecHelp+0x50>
            *OutMessage++ = c;
    1dfc:	2c 93       	st	X, r18
    1dfe:	de 01       	movw	r26, r28
            CommandName++;
    1e00:	31 96       	adiw	r30, 0x01	; 1
            ByteCount--;
    1e02:	7c 01       	movw	r14, r24
    1e04:	f0 cf       	rjmp	.-32     	; 0x1de6 <CommandExecHelp+0x30>
        }

        *OutMessage++ = ',';
    1e06:	dc 92       	st	X, r13
        ByteCount--;
    1e08:	7c 01       	movw	r14, r24

        EntryPtr++;
    1e0a:	08 5e       	subi	r16, 0xE8	; 232
    1e0c:	1f 4f       	sbci	r17, 0xFF	; 255
    1e0e:	e2 cf       	rjmp	.-60     	; 0x1dd4 <CommandExecHelp+0x1e>
    }

    *--OutMessage = '\0';
    1e10:	21 97       	sbiw	r28, 0x01	; 1
    1e12:	18 82       	st	Y, r1

    return COMMAND_INFO_OK_WITH_TEXT_ID;
}
    1e14:	85 e6       	ldi	r24, 0x65	; 101
    1e16:	df 91       	pop	r29
    1e18:	cf 91       	pop	r28
    1e1a:	1f 91       	pop	r17
    1e1c:	0f 91       	pop	r16
    1e1e:	ff 90       	pop	r15
    1e20:	ef 90       	pop	r14
    1e22:	df 90       	pop	r13
    1e24:	08 95       	ret

00001e26 <CommandGetRssi>:

CommandStatusIdType CommandGetRssi(char* OutParam) {
    1e26:	fc 01       	movw	r30, r24

}

static inline uint16_t AntennaLevelGet(void)
{
	ADCA.CH0.CTRL |= ADC_CH_START_bm;
    1e28:	20 91 20 02 	lds	r18, 0x0220	; 0x800220 <__TEXT_REGION_LENGTH__+0x700220>
    1e2c:	20 68       	ori	r18, 0x80	; 128
    1e2e:	20 93 20 02 	sts	0x0220, r18	; 0x800220 <__TEXT_REGION_LENGTH__+0x700220>
	while( !(ADCA.CH0.INTFLAGS & ADC_CH_CHIF_bm) );
    1e32:	80 91 23 02 	lds	r24, 0x0223	; 0x800223 <__TEXT_REGION_LENGTH__+0x700223>
    1e36:	80 ff       	sbrs	r24, 0
    1e38:	fc cf       	rjmp	.-8      	; 0x1e32 <CommandGetRssi+0xc>

	ADCA.CH0.INTFLAGS = ADC_CH_CHIF_bm;
    1e3a:	81 e0       	ldi	r24, 0x01	; 1
    1e3c:	80 93 23 02 	sts	0x0223, r24	; 0x800223 <__TEXT_REGION_LENGTH__+0x700223>

	int16_t Result = ADCA.CH0RES - ANTENNA_LEVEL_OFFSET;
    1e40:	a0 91 10 02 	lds	r26, 0x0210	; 0x800210 <__TEXT_REGION_LENGTH__+0x700210>
    1e44:	b0 91 11 02 	lds	r27, 0x0211	; 0x800211 <__TEXT_REGION_LENGTH__+0x700211>
    1e48:	ae 5b       	subi	r26, 0xBE	; 190
    1e4a:	b1 09       	sbc	r27, r1
    1e4c:	b7 ff       	sbrs	r27, 7
    1e4e:	02 c0       	rjmp	.+4      	; 0x1e54 <CommandGetRssi+0x2e>
    1e50:	a0 e0       	ldi	r26, 0x00	; 0
    1e52:	b0 e0       	ldi	r27, 0x00	; 0
	if (Result < 0) Result = 0;

	return (uint16_t) (((uint32_t) Result * ANTENNA_LEVEL_NUMERATOR) / ANTENNA_LEVEL_DENOMINATOR);
    1e54:	29 e6       	ldi	r18, 0x69	; 105
    1e56:	37 e5       	ldi	r19, 0x57	; 87
    1e58:	4b e0       	ldi	r20, 0x0B	; 11
    1e5a:	50 e0       	ldi	r21, 0x00	; 0
    1e5c:	0e 94 ec 29 	call	0x53d8	; 0x53d8 <__mulshisi3>
    1e60:	aa 27       	eor	r26, r26
    1e62:	bb 27       	eor	r27, r27
    snprintf_P(OutParam, TERMINAL_BUFFER_SIZE,  PSTR("%5u mV"), AntennaLevelGet());
    1e64:	9f 93       	push	r25
    1e66:	8f 93       	push	r24
    1e68:	28 e0       	ldi	r18, 0x08	; 8
    1e6a:	37 e0       	ldi	r19, 0x07	; 7
    1e6c:	3f 93       	push	r19
    1e6e:	2f 93       	push	r18
    1e70:	81 e0       	ldi	r24, 0x01	; 1
    1e72:	8f 93       	push	r24
    1e74:	1f 92       	push	r1
    1e76:	ff 93       	push	r31
    1e78:	ef 93       	push	r30
    1e7a:	0e 94 94 2a 	call	0x5528	; 0x5528 <snprintf_P>
    return COMMAND_INFO_OK_WITH_TEXT_ID;
    1e7e:	8d b7       	in	r24, 0x3d	; 61
    1e80:	9e b7       	in	r25, 0x3e	; 62
    1e82:	08 96       	adiw	r24, 0x08	; 8
    1e84:	8d bf       	out	0x3d, r24	; 61
    1e86:	9e bf       	out	0x3e, r25	; 62
}
    1e88:	85 e6       	ldi	r24, 0x65	; 101
    1e8a:	08 95       	ret

00001e8c <CommandGetUltralightPassword>:
CommandStatusIdType CommandGetUltralightPassword(char* OutParam) {
    1e8c:	0f 93       	push	r16
    1e8e:	1f 93       	push	r17
    1e90:	cf 93       	push	r28
    1e92:	df 93       	push	r29
    1e94:	00 d0       	rcall	.+0      	; 0x1e96 <CommandGetUltralightPassword+0xa>
    1e96:	00 d0       	rcall	.+0      	; 0x1e98 <CommandGetUltralightPassword+0xc>
    1e98:	cd b7       	in	r28, 0x3d	; 61
    1e9a:	de b7       	in	r29, 0x3e	; 62
    1e9c:	18 2f       	mov	r17, r24
    1e9e:	09 2f       	mov	r16, r25
	uint8_t pwd[4];
	/* Read saved password from authentication */
	MemoryReadBlock(pwd, MIFARE_ULTRALIGHT_PWD_ADDRESS, sizeof(pwd));
    1ea0:	44 e0       	ldi	r20, 0x04	; 4
    1ea2:	50 e0       	ldi	r21, 0x00	; 0
    1ea4:	68 e0       	ldi	r22, 0x08	; 8
    1ea6:	71 e0       	ldi	r23, 0x01	; 1
    1ea8:	ce 01       	movw	r24, r28
    1eaa:	01 96       	adiw	r24, 0x01	; 1
    1eac:	25 d9       	rcall	.-3510   	; 0x10f8 <MemoryReadBlock>
	snprintf_P(OutParam, TERMINAL_BUFFER_SIZE,  PSTR("%02x%02x%02x%02x"), pwd[0], pwd[1], pwd[2], pwd[3]);
    1eae:	8c 81       	ldd	r24, Y+4	; 0x04
    1eb0:	1f 92       	push	r1
    1eb2:	8f 93       	push	r24
    1eb4:	8b 81       	ldd	r24, Y+3	; 0x03
    1eb6:	1f 92       	push	r1
    1eb8:	8f 93       	push	r24
    1eba:	8a 81       	ldd	r24, Y+2	; 0x02
    1ebc:	1f 92       	push	r1
    1ebe:	8f 93       	push	r24
    1ec0:	89 81       	ldd	r24, Y+1	; 0x01
    1ec2:	1f 92       	push	r1
    1ec4:	8f 93       	push	r24
    1ec6:	27 ef       	ldi	r18, 0xF7	; 247
    1ec8:	36 e0       	ldi	r19, 0x06	; 6
    1eca:	3f 93       	push	r19
    1ecc:	2f 93       	push	r18
    1ece:	81 e0       	ldi	r24, 0x01	; 1
    1ed0:	8f 93       	push	r24
    1ed2:	1f 92       	push	r1
    1ed4:	0f 93       	push	r16
    1ed6:	1f 93       	push	r17
    1ed8:	0e 94 94 2a 	call	0x5528	; 0x5528 <snprintf_P>
	return COMMAND_INFO_OK_WITH_TEXT_ID;
    1edc:	cd bf       	out	0x3d, r28	; 61
    1ede:	de bf       	out	0x3e, r29	; 62
}
    1ee0:	85 e6       	ldi	r24, 0x65	; 101
    1ee2:	24 96       	adiw	r28, 0x04	; 4
    1ee4:	cd bf       	out	0x3d, r28	; 61
    1ee6:	de bf       	out	0x3e, r29	; 62
    1ee8:	df 91       	pop	r29
    1eea:	cf 91       	pop	r28
    1eec:	1f 91       	pop	r17
    1eee:	0f 91       	pop	r16
    1ef0:	08 95       	ret

00001ef2 <ComPass>:
 #define MEM_OFFSET_DETECTION_DATA  4096 + 16
 #define MEM_LEN_DETECTION_DATA 192

 /* Function to encrypt the transfer for collected data */
 void ComPass(char *toBeEncFileName, int key, int len)
 {
    1ef2:	8f 92       	push	r8
    1ef4:	9f 92       	push	r9
    1ef6:	af 92       	push	r10
    1ef8:	bf 92       	push	r11
    1efa:	cf 92       	push	r12
    1efc:	df 92       	push	r13
    1efe:	ef 92       	push	r14
    1f00:	ff 92       	push	r15
    1f02:	0f 93       	push	r16
    1f04:	1f 93       	push	r17
    1f06:	cf 93       	push	r28
    1f08:	df 93       	push	r29
    1f0a:	cd b7       	in	r28, 0x3d	; 61
    1f0c:	de b7       	in	r29, 0x3e	; 62
    1f0e:	c3 51       	subi	r28, 0x13	; 19
    1f10:	d1 40       	sbci	r29, 0x01	; 1
    1f12:	cd bf       	out	0x3d, r28	; 61
    1f14:	de bf       	out	0x3e, r29	; 62
    1f16:	7c 01       	movw	r14, r24
    1f18:	5b 01       	movw	r10, r22
    1f1a:	8a 01       	movw	r16, r20
	 char newFileName[275] = { 0 };
    1f1c:	9e 01       	movw	r18, r28
    1f1e:	2f 5f       	subi	r18, 0xFF	; 255
    1f20:	3f 4f       	sbci	r19, 0xFF	; 255
    1f22:	69 01       	movw	r12, r18
    1f24:	83 e1       	ldi	r24, 0x13	; 19
    1f26:	91 e0       	ldi	r25, 0x01	; 1
    1f28:	d9 01       	movw	r26, r18
    1f2a:	fc 01       	movw	r30, r24
    1f2c:	1d 92       	st	X+, r1
    1f2e:	31 97       	sbiw	r30, 0x01	; 1
    1f30:	e9 f7       	brne	.-6      	; 0x1f2c <ComPass+0x3a>
	 memcpy(newFileName, toBeEncFileName, len);
    1f32:	b7 01       	movw	r22, r14
    1f34:	c9 01       	movw	r24, r18
    1f36:	0e 94 84 2a 	call	0x5508	; 0x5508 <memcpy>
    1f3a:	f6 01       	movw	r30, r12
	 int i, s, t, size = len;
	 for (i = 0; i < size; i++)
    1f3c:	67 01       	movw	r12, r14
    1f3e:	48 01       	movw	r8, r16
    1f40:	8e 18       	sub	r8, r14
    1f42:	9f 08       	sbc	r9, r15
    1f44:	8a 0c       	add	r8, r10
    1f46:	9b 1c       	adc	r9, r11
    1f48:	c6 01       	movw	r24, r12
    1f4a:	8e 19       	sub	r24, r14
    1f4c:	9f 09       	sbc	r25, r15
    1f4e:	80 17       	cp	r24, r16
    1f50:	91 07       	cpc	r25, r17
    1f52:	7c f4       	brge	.+30     	; 0x1f72 <ComPass+0x80>
	 {
		 s = newFileName[i];
    1f54:	41 91       	ld	r20, Z+
    1f56:	94 01       	movw	r18, r8
    1f58:	2c 0d       	add	r18, r12
    1f5a:	3d 1d       	adc	r19, r13
		 t = (size + key + i - size / key) ^ s;
    1f5c:	c8 01       	movw	r24, r16
    1f5e:	b5 01       	movw	r22, r10
    1f60:	0e 94 ad 29 	call	0x535a	; 0x535a <__divmodhi4>
    1f64:	26 1b       	sub	r18, r22
    1f66:	37 0b       	sbc	r19, r23
    1f68:	24 27       	eor	r18, r20
		 toBeEncFileName[i] = t;
    1f6a:	d6 01       	movw	r26, r12
    1f6c:	2d 93       	st	X+, r18
    1f6e:	6d 01       	movw	r12, r26
    1f70:	eb cf       	rjmp	.-42     	; 0x1f48 <ComPass+0x56>
	 }
 }
    1f72:	cd 5e       	subi	r28, 0xED	; 237
    1f74:	de 4f       	sbci	r29, 0xFE	; 254
    1f76:	cd bf       	out	0x3d, r28	; 61
    1f78:	de bf       	out	0x3e, r29	; 62
    1f7a:	df 91       	pop	r29
    1f7c:	cf 91       	pop	r28
    1f7e:	1f 91       	pop	r17
    1f80:	0f 91       	pop	r16
    1f82:	ff 90       	pop	r15
    1f84:	ef 90       	pop	r14
    1f86:	df 90       	pop	r13
    1f88:	cf 90       	pop	r12
    1f8a:	bf 90       	pop	r11
    1f8c:	af 90       	pop	r10
    1f8e:	9f 90       	pop	r9
    1f90:	8f 90       	pop	r8
    1f92:	08 95       	ret

00001f94 <CommandGetDetection>:

 CommandStatusIdType CommandGetDetection(char* OutParam)
 {
    1f94:	ef 92       	push	r14
    1f96:	ff 92       	push	r15
    1f98:	0f 93       	push	r16
    1f9a:	1f 93       	push	r17
    1f9c:	cf 93       	push	r28
    1f9e:	df 93       	push	r29
    1fa0:	ec 01       	movw	r28, r24
	 /* Read UID / s0-b0 */
	 MemoryReadBlock(OutParam, 0, 16);
    1fa2:	40 e1       	ldi	r20, 0x10	; 16
    1fa4:	50 e0       	ldi	r21, 0x00	; 0
    1fa6:	60 e0       	ldi	r22, 0x00	; 0
    1fa8:	70 e0       	ldi	r23, 0x00	; 0
    1faa:	a6 d8       	rcall	.-3764   	; 0x10f8 <MemoryReadBlock>

	 /* Read saved nonce data from authentication */
	 MemoryReadBlock(OutParam+16, MEM_OFFSET_DETECTION_DATA, MEM_LEN_DETECTION_DATA);
    1fac:	40 ec       	ldi	r20, 0xC0	; 192
    1fae:	50 e0       	ldi	r21, 0x00	; 0
    1fb0:	60 e1       	ldi	r22, 0x10	; 16
    1fb2:	70 e1       	ldi	r23, 0x10	; 16
    1fb4:	ce 01       	movw	r24, r28
    1fb6:	40 96       	adiw	r24, 0x10	; 16
    1fb8:	9f d8       	rcall	.-3778   	; 0x10f8 <MemoryReadBlock>

	 /* add file integrity to byte !! 209, 210 !! */
	 ISO14443AAppendCRCA(OutParam, 208);
    1fba:	60 ed       	ldi	r22, 0xD0	; 208
    1fbc:	70 e0       	ldi	r23, 0x00	; 0
    1fbe:	ce 01       	movw	r24, r28
    1fc0:	0e 94 56 1f 	call	0x3eac	; 0x3eac <ISO14443AAppendCRCA>
	 
	 /* encrypt data , but not CRC*/
	 ComPass(OutParam, (int)123321, 208);
    1fc4:	40 ed       	ldi	r20, 0xD0	; 208
    1fc6:	50 e0       	ldi	r21, 0x00	; 0
    1fc8:	69 eb       	ldi	r22, 0xB9	; 185
    1fca:	71 ee       	ldi	r23, 0xE1	; 225
    1fcc:	ce 01       	movw	r24, r28
    1fce:	91 df       	rcall	.-222    	; 0x1ef2 <ComPass>
    1fd0:	8e 01       	movw	r16, r28
    1fd2:	7e 01       	movw	r14, r28
    1fd4:	82 ed       	ldi	r24, 0xD2	; 210
    1fd6:	e8 0e       	add	r14, r24
    1fd8:	f1 1c       	adc	r15, r1

	 /* send data + CRC */
	 for(uint16_t num=0; num < 208+2; num++)
	 TerminalSendChar(OutParam[num]);
    1fda:	f8 01       	movw	r30, r16
    1fdc:	61 91       	ld	r22, Z+
    1fde:	8f 01       	movw	r16, r30
void EVENT_USB_Device_Connect(void);
void EVENT_USB_Device_Disconnect(void);
void EVENT_USB_Device_ConfigurationChanged(void);
void EVENT_USB_Device_ControlRequest(void);

INLINE void TerminalSendChar(char c) { CDC_Device_SendByte(&TerminalHandle, c); }
    1fe0:	8c e2       	ldi	r24, 0x2C	; 44
    1fe2:	90 e2       	ldi	r25, 0x20	; 32
    1fe4:	0e 94 1b 28 	call	0x5036	; 0x5036 <CDC_Device_SendByte>
	 
	 /* encrypt data , but not CRC*/
	 ComPass(OutParam, (int)123321, 208);

	 /* send data + CRC */
	 for(uint16_t num=0; num < 208+2; num++)
    1fe8:	0e 15       	cp	r16, r14
    1fea:	1f 05       	cpc	r17, r15
    1fec:	b1 f7       	brne	.-20     	; 0x1fda <CommandGetDetection+0x46>
	 TerminalSendChar(OutParam[num]);

	 OutParam[0]=0;
    1fee:	18 82       	st	Y, r1
	 return COMMAND_INFO_OK_ID;
 }
    1ff0:	84 e6       	ldi	r24, 0x64	; 100
    1ff2:	df 91       	pop	r29
    1ff4:	cf 91       	pop	r28
    1ff6:	1f 91       	pop	r17
    1ff8:	0f 91       	pop	r16
    1ffa:	ff 90       	pop	r15
    1ffc:	ef 90       	pop	r14
    1ffe:	08 95       	ret

00002000 <CommandSetDetection>:

 CommandStatusIdType CommandSetDetection(char* OutMessage, const char* InParam)
 {
    2000:	cf 93       	push	r28
    2002:	df 93       	push	r29
    2004:	cd b7       	in	r28, 0x3d	; 61
    2006:	de b7       	in	r29, 0x3e	; 62
    2008:	c8 5c       	subi	r28, 0xC8	; 200
    200a:	d1 09       	sbc	r29, r1
    200c:	cd bf       	out	0x3d, r28	; 61
    200e:	de bf       	out	0x3e, r29	; 62
	 /* Fill memory for detection with 0xFF,  clearing it */
	 uint8_t t[200];
	 memset(t, 0xff, 200);
    2010:	48 ec       	ldi	r20, 0xC8	; 200
    2012:	50 e0       	ldi	r21, 0x00	; 0
    2014:	6f ef       	ldi	r22, 0xFF	; 255
    2016:	70 e0       	ldi	r23, 0x00	; 0
    2018:	ce 01       	movw	r24, r28
    201a:	01 96       	adiw	r24, 0x01	; 1
    201c:	0e 94 8d 2a 	call	0x551a	; 0x551a <memset>
	 MemoryWriteBlock(t, MEM_OFFSET_DETECTION_DATA, MEM_LEN_DETECTION_DATA);
    2020:	40 ec       	ldi	r20, 0xC0	; 192
    2022:	50 e0       	ldi	r21, 0x00	; 0
    2024:	60 e1       	ldi	r22, 0x10	; 16
    2026:	70 e1       	ldi	r23, 0x10	; 16
    2028:	ce 01       	movw	r24, r28
    202a:	01 96       	adiw	r24, 0x01	; 1
    202c:	f0 d8       	rcall	.-3616   	; 0x120e <MemoryWriteBlock>
	 return COMMAND_INFO_OK_ID;
 }
    202e:	84 e6       	ldi	r24, 0x64	; 100
    2030:	c8 53       	subi	r28, 0x38	; 56
    2032:	df 4f       	sbci	r29, 0xFF	; 255
    2034:	cd bf       	out	0x3d, r28	; 61
    2036:	de bf       	out	0x3e, r29	; 62
    2038:	df 91       	pop	r29
    203a:	cf 91       	pop	r28
    203c:	08 95       	ret

0000203e <XModemReceive>:
    return Checksum;
}

void XModemReceive(XModemCallbackType TheCallbackFunc)
{
    State = STATE_RECEIVE_INIT;
    203e:	21 e0       	ldi	r18, 0x01	; 1
    2040:	20 93 e4 20 	sts	0x20E4, r18	; 0x8020e4 <State>
    CurrentFrameNumber = FIRST_FRAME_NUMBER;
    2044:	20 93 e3 20 	sts	0x20E3, r18	; 0x8020e3 <CurrentFrameNumber>
    RetryCount = RECV_INIT_COUNT;
    2048:	24 e1       	ldi	r18, 0x14	; 20
    204a:	20 93 e0 20 	sts	0x20E0, r18	; 0x8020e0 <RetryCount>
    RetryTimeout = RECV_INIT_TIMEOUT;
    204e:	25 e0       	ldi	r18, 0x05	; 5
    2050:	30 e0       	ldi	r19, 0x00	; 0
    2052:	20 93 de 20 	sts	0x20DE, r18	; 0x8020de <RetryTimeout>
    2056:	30 93 df 20 	sts	0x20DF, r19	; 0x8020df <RetryTimeout+0x1>
    BlockAddress = 0;
    205a:	10 92 d8 20 	sts	0x20D8, r1	; 0x8020d8 <BlockAddress>
    205e:	10 92 d9 20 	sts	0x20D9, r1	; 0x8020d9 <BlockAddress+0x1>
    2062:	10 92 da 20 	sts	0x20DA, r1	; 0x8020da <BlockAddress+0x2>
    2066:	10 92 db 20 	sts	0x20DB, r1	; 0x8020db <BlockAddress+0x3>

    CallbackFunc = TheCallbackFunc;
    206a:	80 93 d6 20 	sts	0x20D6, r24	; 0x8020d6 <CallbackFunc>
    206e:	90 93 d7 20 	sts	0x20D7, r25	; 0x8020d7 <CallbackFunc+0x1>
    2072:	08 95       	ret

00002074 <XModemSend>:
}

void XModemSend(XModemCallbackType TheCallbackFunc)
{
    State = STATE_SEND_INIT;
    2074:	27 e0       	ldi	r18, 0x07	; 7
    2076:	20 93 e4 20 	sts	0x20E4, r18	; 0x8020e4 <State>
    RetryTimeout = SEND_INIT_TIMEOUT;
    207a:	24 e6       	ldi	r18, 0x64	; 100
    207c:	30 e0       	ldi	r19, 0x00	; 0
    207e:	20 93 de 20 	sts	0x20DE, r18	; 0x8020de <RetryTimeout>
    2082:	30 93 df 20 	sts	0x20DF, r19	; 0x8020df <RetryTimeout+0x1>
    BlockAddress = 0;
    2086:	10 92 d8 20 	sts	0x20D8, r1	; 0x8020d8 <BlockAddress>
    208a:	10 92 d9 20 	sts	0x20D9, r1	; 0x8020d9 <BlockAddress+0x1>
    208e:	10 92 da 20 	sts	0x20DA, r1	; 0x8020da <BlockAddress+0x2>
    2092:	10 92 db 20 	sts	0x20DB, r1	; 0x8020db <BlockAddress+0x3>

    CallbackFunc = TheCallbackFunc;
    2096:	80 93 d6 20 	sts	0x20D6, r24	; 0x8020d6 <CallbackFunc>
    209a:	90 93 d7 20 	sts	0x20D7, r25	; 0x8020d7 <CallbackFunc+0x1>
    209e:	08 95       	ret

000020a0 <XModemProcessByte>:
}

bool XModemProcessByte(uint8_t Byte)
{
    20a0:	cf 93       	push	r28
    switch(State) {
    20a2:	90 91 e4 20 	lds	r25, 0x20E4	; 0x8020e4 <State>
    20a6:	95 30       	cpi	r25, 0x05	; 5
    20a8:	c9 f1       	breq	.+114    	; 0x211c <XModemProcessByte+0x7c>
    20aa:	30 f4       	brcc	.+12     	; 0x20b8 <XModemProcessByte+0x18>
    20ac:	93 30       	cpi	r25, 0x03	; 3
    20ae:	11 f1       	breq	.+68     	; 0x20f4 <XModemProcessByte+0x54>
    20b0:	28 f5       	brcc	.+74     	; 0x20fc <XModemProcessByte+0x5c>
    20b2:	91 30       	cpi	r25, 0x01	; 1
    20b4:	68 f4       	brcc	.+26     	; 0x20d0 <XModemProcessByte+0x30>
    20b6:	32 c1       	rjmp	.+612    	; 0x231c <XModemProcessByte+0x27c>
    20b8:	97 30       	cpi	r25, 0x07	; 7
    20ba:	09 f4       	brne	.+2      	; 0x20be <XModemProcessByte+0x1e>
    20bc:	a0 c0       	rjmp	.+320    	; 0x21fe <XModemProcessByte+0x15e>
    20be:	08 f4       	brcc	.+2      	; 0x20c2 <XModemProcessByte+0x22>
    20c0:	42 c0       	rjmp	.+132    	; 0x2146 <XModemProcessByte+0xa6>
    20c2:	98 30       	cpi	r25, 0x08	; 8
    20c4:	09 f4       	brne	.+2      	; 0x20c8 <XModemProcessByte+0x28>
    20c6:	a0 c0       	rjmp	.+320    	; 0x2208 <XModemProcessByte+0x168>
    20c8:	99 30       	cpi	r25, 0x09	; 9
    20ca:	09 f4       	brne	.+2      	; 0x20ce <XModemProcessByte+0x2e>
    20cc:	24 c1       	rjmp	.+584    	; 0x2316 <XModemProcessByte+0x276>
    20ce:	26 c1       	rjmp	.+588    	; 0x231c <XModemProcessByte+0x27c>
    case STATE_RECEIVE_INIT:
    case STATE_RECEIVE_WAIT:
        if (Byte == BYTE_SOH) {
    20d0:	81 30       	cpi	r24, 0x01	; 1
    20d2:	41 f4       	brne	.+16     	; 0x20e4 <XModemProcessByte+0x44>
            /* Next frame incoming */
            BufferIdx = 0;
    20d4:	10 92 dc 20 	sts	0x20DC, r1	; 0x8020dc <BufferIdx>
    20d8:	10 92 dd 20 	sts	0x20DD, r1	; 0x8020dd <BufferIdx+0x1>
            Checksum = CHECKSUM_INIT_VALUE;
    20dc:	10 92 e1 20 	sts	0x20E1, r1	; 0x8020e1 <Checksum>
            State = STATE_RECEIVE_FRAMENUM1;
    20e0:	83 e0       	ldi	r24, 0x03	; 3
    20e2:	ed c0       	rjmp	.+474    	; 0x22be <XModemProcessByte+0x21e>
        } else if (Byte == BYTE_EOT) {
    20e4:	84 30       	cpi	r24, 0x04	; 4
    20e6:	11 f4       	brne	.+4      	; 0x20ec <XModemProcessByte+0x4c>
INLINE void TerminalSendByte(uint8_t Byte) { CDC_Device_SendByte(&TerminalHandle, Byte); }
    20e8:	66 e0       	ldi	r22, 0x06	; 6
    20ea:	84 c0       	rjmp	.+264    	; 0x21f4 <XModemProcessByte+0x154>
            /* Transmission finished */
            TerminalSendByte(BYTE_ACK);
            State = STATE_OFF;
        } else if (Byte == BYTE_CAN) {
    20ec:	88 31       	cpi	r24, 0x18	; 24
    20ee:	09 f0       	breq	.+2      	; 0x20f2 <XModemProcessByte+0x52>
    20f0:	e8 c0       	rjmp	.+464    	; 0x22c2 <XModemProcessByte+0x222>
    20f2:	11 c1       	rjmp	.+546    	; 0x2316 <XModemProcessByte+0x276>

        break;

    case STATE_RECEIVE_FRAMENUM1:
        /* Store frame number */
        ReceivedFrameNumber = Byte;
    20f4:	80 93 e2 20 	sts	0x20E2, r24	; 0x8020e2 <ReceivedFrameNumber>
        State = STATE_RECEIVE_FRAMENUM2;
    20f8:	84 e0       	ldi	r24, 0x04	; 4
    20fa:	e1 c0       	rjmp	.+450    	; 0x22be <XModemProcessByte+0x21e>
        break;

    case STATE_RECEIVE_FRAMENUM2:
        if (Byte == (255 - ReceivedFrameNumber)) {
    20fc:	90 e0       	ldi	r25, 0x00	; 0
    20fe:	40 91 e2 20 	lds	r20, 0x20E2	; 0x8020e2 <ReceivedFrameNumber>
    2102:	2f ef       	ldi	r18, 0xFF	; 255
    2104:	30 e0       	ldi	r19, 0x00	; 0
    2106:	24 1b       	sub	r18, r20
    2108:	31 09       	sbc	r19, r1
    210a:	82 17       	cp	r24, r18
    210c:	93 07       	cpc	r25, r19
    210e:	21 f4       	brne	.+8      	; 0x2118 <XModemProcessByte+0x78>
            /* frame-number check passed. */
            State = STATE_RECEIVE_DATA;
    2110:	85 e0       	ldi	r24, 0x05	; 5
    2112:	d5 c0       	rjmp	.+426    	; 0x22be <XModemProcessByte+0x21e>

    case STATE_RECEIVE_PROCESS:
        if (ReceivedFrameNumber == CurrentFrameNumber) {
            /* This is the expected frame. Calculate and verify checksum */

            if (CalcChecksum(TerminalBuffer, XMODEM_BLOCK_SIZE) == Byte) {
    2114:	98 17       	cp	r25, r24
    2116:	39 f1       	breq	.+78     	; 0x2166 <XModemProcessByte+0xc6>
    2118:	65 e1       	ldi	r22, 0x15	; 21
    211a:	65 c0       	rjmp	.+202    	; 0x21e6 <XModemProcessByte+0x146>

        break;

    case STATE_RECEIVE_DATA:
        /* Process byte and update checksum */
        TerminalBuffer[BufferIdx++] = Byte;
    211c:	20 91 dc 20 	lds	r18, 0x20DC	; 0x8020dc <BufferIdx>
    2120:	30 91 dd 20 	lds	r19, 0x20DD	; 0x8020dd <BufferIdx+0x1>
    2124:	a9 01       	movw	r20, r18
    2126:	4f 5f       	subi	r20, 0xFF	; 255
    2128:	5f 4f       	sbci	r21, 0xFF	; 255
    212a:	40 93 dc 20 	sts	0x20DC, r20	; 0x8020dc <BufferIdx>
    212e:	50 93 dd 20 	sts	0x20DD, r21	; 0x8020dd <BufferIdx+0x1>
    2132:	f9 01       	movw	r30, r18
    2134:	ee 5a       	subi	r30, 0xAE	; 174
    2136:	fe 4d       	sbci	r31, 0xDE	; 222
    2138:	80 83       	st	Z, r24

        if (BufferIdx == XMODEM_BLOCK_SIZE) {
    213a:	40 38       	cpi	r20, 0x80	; 128
    213c:	51 05       	cpc	r21, r1
    213e:	09 f0       	breq	.+2      	; 0x2142 <XModemProcessByte+0xa2>
    2140:	c0 c0       	rjmp	.+384    	; 0x22c2 <XModemProcessByte+0x222>
            /* Block full */
            State = STATE_RECEIVE_PROCESS;
    2142:	86 e0       	ldi	r24, 0x06	; 6
    2144:	bc c0       	rjmp	.+376    	; 0x22be <XModemProcessByte+0x21e>
        }

        break;

    case STATE_RECEIVE_PROCESS:
        if (ReceivedFrameNumber == CurrentFrameNumber) {
    2146:	20 91 e2 20 	lds	r18, 0x20E2	; 0x8020e2 <ReceivedFrameNumber>
    214a:	90 91 e3 20 	lds	r25, 0x20E3	; 0x8020e3 <CurrentFrameNumber>
    214e:	29 13       	cpse	r18, r25
    2150:	42 c0       	rjmp	.+132    	; 0x21d6 <XModemProcessByte+0x136>
    2152:	e2 e5       	ldi	r30, 0x52	; 82
    2154:	f1 e2       	ldi	r31, 0x21	; 33
    2156:	90 e0       	ldi	r25, 0x00	; 0

static uint8_t CalcChecksum(const void* Buffer, uint16_t ByteCount) {
    uint8_t Checksum = CHECKSUM_INIT_VALUE;
    uint8_t* DataPtr = (uint8_t*) Buffer;

    while(ByteCount--) {
    2158:	21 e2       	ldi	r18, 0x21	; 33
    215a:	e2 3d       	cpi	r30, 0xD2	; 210
    215c:	f2 07       	cpc	r31, r18
    215e:	d1 f2       	breq	.-76     	; 0x2114 <XModemProcessByte+0x74>
        Checksum += *DataPtr++;
    2160:	21 91       	ld	r18, Z+
    2162:	92 0f       	add	r25, r18
    2164:	f9 cf       	rjmp	.-14     	; 0x2158 <XModemProcessByte+0xb8>
        if (ReceivedFrameNumber == CurrentFrameNumber) {
            /* This is the expected frame. Calculate and verify checksum */

            if (CalcChecksum(TerminalBuffer, XMODEM_BLOCK_SIZE) == Byte) {
                /* Checksum is valid. Pass received data to callback function */
                if (CallbackFunc(TerminalBuffer, BlockAddress, XMODEM_BLOCK_SIZE)) {
    2166:	60 91 d8 20 	lds	r22, 0x20D8	; 0x8020d8 <BlockAddress>
    216a:	70 91 d9 20 	lds	r23, 0x20D9	; 0x8020d9 <BlockAddress+0x1>
    216e:	e0 91 d6 20 	lds	r30, 0x20D6	; 0x8020d6 <CallbackFunc>
    2172:	f0 91 d7 20 	lds	r31, 0x20D7	; 0x8020d7 <CallbackFunc+0x1>
    2176:	40 e8       	ldi	r20, 0x80	; 128
    2178:	50 e0       	ldi	r21, 0x00	; 0
    217a:	82 e5       	ldi	r24, 0x52	; 82
    217c:	91 e2       	ldi	r25, 0x21	; 33
    217e:	09 95       	icall
    2180:	c8 2f       	mov	r28, r24
    2182:	88 23       	and	r24, r24
    2184:	11 f1       	breq	.+68     	; 0x21ca <XModemProcessByte+0x12a>
                    /* Proceed to next frame and send ACK */
                    CurrentFrameNumber++;
    2186:	80 91 e3 20 	lds	r24, 0x20E3	; 0x8020e3 <CurrentFrameNumber>
    218a:	8f 5f       	subi	r24, 0xFF	; 255
    218c:	80 93 e3 20 	sts	0x20E3, r24	; 0x8020e3 <CurrentFrameNumber>
                    BlockAddress += XMODEM_BLOCK_SIZE;
    2190:	80 91 d8 20 	lds	r24, 0x20D8	; 0x8020d8 <BlockAddress>
    2194:	90 91 d9 20 	lds	r25, 0x20D9	; 0x8020d9 <BlockAddress+0x1>
    2198:	a0 91 da 20 	lds	r26, 0x20DA	; 0x8020da <BlockAddress+0x2>
    219c:	b0 91 db 20 	lds	r27, 0x20DB	; 0x8020db <BlockAddress+0x3>
    21a0:	80 58       	subi	r24, 0x80	; 128
    21a2:	9f 4f       	sbci	r25, 0xFF	; 255
    21a4:	af 4f       	sbci	r26, 0xFF	; 255
    21a6:	bf 4f       	sbci	r27, 0xFF	; 255
    21a8:	80 93 d8 20 	sts	0x20D8, r24	; 0x8020d8 <BlockAddress>
    21ac:	90 93 d9 20 	sts	0x20D9, r25	; 0x8020d9 <BlockAddress+0x1>
    21b0:	a0 93 da 20 	sts	0x20DA, r26	; 0x8020da <BlockAddress+0x2>
    21b4:	b0 93 db 20 	sts	0x20DB, r27	; 0x8020db <BlockAddress+0x3>
void EVENT_USB_Device_Connect(void);
void EVENT_USB_Device_Disconnect(void);
void EVENT_USB_Device_ConfigurationChanged(void);
void EVENT_USB_Device_ControlRequest(void);

INLINE void TerminalSendChar(char c) { CDC_Device_SendByte(&TerminalHandle, c); }
    21b8:	66 e0       	ldi	r22, 0x06	; 6
    21ba:	8c e2       	ldi	r24, 0x2C	; 44
    21bc:	90 e2       	ldi	r25, 0x20	; 32
    21be:	0e 94 1b 28 	call	0x5036	; 0x5036 <CDC_Device_SendByte>
                    TerminalSendChar(BYTE_ACK);
                    State = STATE_RECEIVE_WAIT;
    21c2:	82 e0       	ldi	r24, 0x02	; 2
    21c4:	80 93 e4 20 	sts	0x20E4, r24	; 0x8020e4 <State>
    21c8:	aa c0       	rjmp	.+340    	; 0x231e <XModemProcessByte+0x27e>
INLINE void TerminalSendByte(uint8_t Byte) { CDC_Device_SendByte(&TerminalHandle, Byte); }
    21ca:	68 e1       	ldi	r22, 0x18	; 24
    21cc:	8c e2       	ldi	r24, 0x2C	; 44
    21ce:	90 e2       	ldi	r25, 0x20	; 32
    21d0:	0e 94 1b 28 	call	0x5036	; 0x5036 <CDC_Device_SendByte>
    21d4:	0e c0       	rjmp	.+28     	; 0x21f2 <XModemProcessByte+0x152>
            } else {
                /* Data seems to be damaged */
                TerminalSendByte(BYTE_NAK);
                State = STATE_RECEIVE_WAIT;
            }
        } else if (ReceivedFrameNumber == (CurrentFrameNumber - 1)) {
    21d6:	30 e0       	ldi	r19, 0x00	; 0
    21d8:	89 2f       	mov	r24, r25
    21da:	90 e0       	ldi	r25, 0x00	; 0
    21dc:	01 97       	sbiw	r24, 0x01	; 1
    21de:	28 17       	cp	r18, r24
    21e0:	39 07       	cpc	r19, r25
    21e2:	39 f4       	brne	.+14     	; 0x21f2 <XModemProcessByte+0x152>
    21e4:	66 e0       	ldi	r22, 0x06	; 6
    21e6:	8c e2       	ldi	r24, 0x2C	; 44
    21e8:	90 e2       	ldi	r25, 0x20	; 32
    21ea:	0e 94 1b 28 	call	0x5036	; 0x5036 <CDC_Device_SendByte>
            /* This is a retransmission */
            TerminalSendByte(BYTE_ACK);
            State = STATE_RECEIVE_WAIT;
    21ee:	82 e0       	ldi	r24, 0x02	; 2
    21f0:	66 c0       	rjmp	.+204    	; 0x22be <XModemProcessByte+0x21e>
    21f2:	68 e1       	ldi	r22, 0x18	; 24
    21f4:	8c e2       	ldi	r24, 0x2C	; 44
    21f6:	90 e2       	ldi	r25, 0x20	; 32
    21f8:	0e 94 1b 28 	call	0x5036	; 0x5036 <CDC_Device_SendByte>
    21fc:	8c c0       	rjmp	.+280    	; 0x2316 <XModemProcessByte+0x276>

        break;

    case STATE_SEND_INIT:
        /* Start sending on NAK */
        if (Byte == BYTE_NAK) {
    21fe:	85 31       	cpi	r24, 0x15	; 21
    2200:	19 f4       	brne	.+6      	; 0x2208 <XModemProcessByte+0x168>
            CurrentFrameNumber = FIRST_FRAME_NUMBER - 1;
    2202:	10 92 e3 20 	sts	0x20E3, r1	; 0x8020e3 <CurrentFrameNumber>
    2206:	06 c0       	rjmp	.+12     	; 0x2214 <XModemProcessByte+0x174>
        }

        /* Fallthrough */

    case STATE_SEND_WAIT:
        if (Byte == BYTE_CAN) {
    2208:	88 31       	cpi	r24, 0x18	; 24
    220a:	09 f4       	brne	.+2      	; 0x220e <XModemProcessByte+0x16e>
    220c:	6d cf       	rjmp	.-294    	; 0x20e8 <XModemProcessByte+0x48>
            /* Cancel */
            TerminalSendByte(BYTE_ACK);
            State = STATE_OFF;
        } else if (Byte == BYTE_ACK) {
    220e:	86 30       	cpi	r24, 0x06	; 6
    2210:	09 f0       	breq	.+2      	; 0x2214 <XModemProcessByte+0x174>
    2212:	59 c0       	rjmp	.+178    	; 0x22c6 <XModemProcessByte+0x226>
            /* Acknowledge. Proceed to next frame, get data and calc checksum */
            CurrentFrameNumber++;
    2214:	80 91 e3 20 	lds	r24, 0x20E3	; 0x8020e3 <CurrentFrameNumber>
    2218:	8f 5f       	subi	r24, 0xFF	; 255
    221a:	80 93 e3 20 	sts	0x20E3, r24	; 0x8020e3 <CurrentFrameNumber>

            if (CallbackFunc(TerminalBuffer, BlockAddress, XMODEM_BLOCK_SIZE)) {
    221e:	60 91 d8 20 	lds	r22, 0x20D8	; 0x8020d8 <BlockAddress>
    2222:	70 91 d9 20 	lds	r23, 0x20D9	; 0x8020d9 <BlockAddress+0x1>
    2226:	e0 91 d6 20 	lds	r30, 0x20D6	; 0x8020d6 <CallbackFunc>
    222a:	f0 91 d7 20 	lds	r31, 0x20D7	; 0x8020d7 <CallbackFunc+0x1>
    222e:	40 e8       	ldi	r20, 0x80	; 128
    2230:	50 e0       	ldi	r21, 0x00	; 0
    2232:	82 e5       	ldi	r24, 0x52	; 82
    2234:	91 e2       	ldi	r25, 0x21	; 33
    2236:	09 95       	icall
    2238:	c8 2f       	mov	r28, r24
    223a:	88 23       	and	r24, r24
    223c:	d1 f1       	breq	.+116    	; 0x22b2 <XModemProcessByte+0x212>
    223e:	61 e0       	ldi	r22, 0x01	; 1
    2240:	8c e2       	ldi	r24, 0x2C	; 44
    2242:	90 e2       	ldi	r25, 0x20	; 32
    2244:	0e 94 1b 28 	call	0x5036	; 0x5036 <CDC_Device_SendByte>
    2248:	60 91 e3 20 	lds	r22, 0x20E3	; 0x8020e3 <CurrentFrameNumber>
    224c:	8c e2       	ldi	r24, 0x2C	; 44
    224e:	90 e2       	ldi	r25, 0x20	; 32
    2250:	0e 94 1b 28 	call	0x5036	; 0x5036 <CDC_Device_SendByte>
                TerminalSendByte(BYTE_SOH);
                TerminalSendByte(CurrentFrameNumber);
                TerminalSendByte(255 - CurrentFrameNumber);
    2254:	60 91 e3 20 	lds	r22, 0x20E3	; 0x8020e3 <CurrentFrameNumber>
    2258:	60 95       	com	r22
    225a:	8c e2       	ldi	r24, 0x2C	; 44
    225c:	90 e2       	ldi	r25, 0x20	; 32
    225e:	0e 94 1b 28 	call	0x5036	; 0x5036 <CDC_Device_SendByte>
                TerminalSendBlock(TerminalBuffer, XMODEM_BLOCK_SIZE);
    2262:	60 e8       	ldi	r22, 0x80	; 128
    2264:	70 e0       	ldi	r23, 0x00	; 0
    2266:	82 e5       	ldi	r24, 0x52	; 82
    2268:	91 e2       	ldi	r25, 0x21	; 33
    226a:	06 dc       	rcall	.-2036   	; 0x1a78 <TerminalSendBlock>
    226c:	e2 e5       	ldi	r30, 0x52	; 82
    226e:	f1 e2       	ldi	r31, 0x21	; 33
static uint32_t BlockAddress;

static XModemCallbackType CallbackFunc;

static uint8_t CalcChecksum(const void* Buffer, uint16_t ByteCount) {
    uint8_t Checksum = CHECKSUM_INIT_VALUE;
    2270:	60 e0       	ldi	r22, 0x00	; 0
    uint8_t* DataPtr = (uint8_t*) Buffer;

    while(ByteCount--) {
    2272:	81 e2       	ldi	r24, 0x21	; 33
    2274:	e2 3d       	cpi	r30, 0xD2	; 210
    2276:	f8 07       	cpc	r31, r24
    2278:	19 f0       	breq	.+6      	; 0x2280 <XModemProcessByte+0x1e0>
        Checksum += *DataPtr++;
    227a:	81 91       	ld	r24, Z+
    227c:	68 0f       	add	r22, r24
    227e:	f9 cf       	rjmp	.-14     	; 0x2272 <XModemProcessByte+0x1d2>
    2280:	8c e2       	ldi	r24, 0x2C	; 44
    2282:	90 e2       	ldi	r25, 0x20	; 32
    2284:	0e 94 1b 28 	call	0x5036	; 0x5036 <CDC_Device_SendByte>
                TerminalSendByte(CurrentFrameNumber);
                TerminalSendByte(255 - CurrentFrameNumber);
                TerminalSendBlock(TerminalBuffer, XMODEM_BLOCK_SIZE);
                TerminalSendByte(CalcChecksum(TerminalBuffer, XMODEM_BLOCK_SIZE));

                BlockAddress += XMODEM_BLOCK_SIZE;
    2288:	80 91 d8 20 	lds	r24, 0x20D8	; 0x8020d8 <BlockAddress>
    228c:	90 91 d9 20 	lds	r25, 0x20D9	; 0x8020d9 <BlockAddress+0x1>
    2290:	a0 91 da 20 	lds	r26, 0x20DA	; 0x8020da <BlockAddress+0x2>
    2294:	b0 91 db 20 	lds	r27, 0x20DB	; 0x8020db <BlockAddress+0x3>
    2298:	80 58       	subi	r24, 0x80	; 128
    229a:	9f 4f       	sbci	r25, 0xFF	; 255
    229c:	af 4f       	sbci	r26, 0xFF	; 255
    229e:	bf 4f       	sbci	r27, 0xFF	; 255
    22a0:	80 93 d8 20 	sts	0x20D8, r24	; 0x8020d8 <BlockAddress>
    22a4:	90 93 d9 20 	sts	0x20D9, r25	; 0x8020d9 <BlockAddress+0x1>
    22a8:	a0 93 da 20 	sts	0x20DA, r26	; 0x8020da <BlockAddress+0x2>
    22ac:	b0 93 db 20 	sts	0x20DB, r27	; 0x8020db <BlockAddress+0x3>
    22b0:	36 c0       	rjmp	.+108    	; 0x231e <XModemProcessByte+0x27e>
    22b2:	64 e0       	ldi	r22, 0x04	; 4
    22b4:	8c e2       	ldi	r24, 0x2C	; 44
    22b6:	90 e2       	ldi	r25, 0x20	; 32
    22b8:	0e 94 1b 28 	call	0x5036	; 0x5036 <CDC_Device_SendByte>
            } else {
                TerminalSendByte(BYTE_EOT);
                State = STATE_SEND_EOT;
    22bc:	89 e0       	ldi	r24, 0x09	; 9
    22be:	80 93 e4 20 	sts	0x20E4, r24	; 0x8020e4 <State>
    default:
        return false;
        break;
    }

    return true;
    22c2:	c1 e0       	ldi	r28, 0x01	; 1
    22c4:	2c c0       	rjmp	.+88     	; 0x231e <XModemProcessByte+0x27e>
                BlockAddress += XMODEM_BLOCK_SIZE;
            } else {
                TerminalSendByte(BYTE_EOT);
                State = STATE_SEND_EOT;
            }
        } else if (Byte == BYTE_NAK){
    22c6:	85 31       	cpi	r24, 0x15	; 21
    22c8:	e1 f7       	brne	.-8      	; 0x22c2 <XModemProcessByte+0x222>
    22ca:	61 e0       	ldi	r22, 0x01	; 1
    22cc:	8c e2       	ldi	r24, 0x2C	; 44
    22ce:	90 e2       	ldi	r25, 0x20	; 32
    22d0:	0e 94 1b 28 	call	0x5036	; 0x5036 <CDC_Device_SendByte>
    22d4:	60 91 e3 20 	lds	r22, 0x20E3	; 0x8020e3 <CurrentFrameNumber>
    22d8:	8c e2       	ldi	r24, 0x2C	; 44
    22da:	90 e2       	ldi	r25, 0x20	; 32
    22dc:	0e 94 1b 28 	call	0x5036	; 0x5036 <CDC_Device_SendByte>
            /* Resend frame */
            TerminalSendByte(BYTE_SOH);
            TerminalSendByte(CurrentFrameNumber);
            TerminalSendByte(255 - CurrentFrameNumber);
    22e0:	60 91 e3 20 	lds	r22, 0x20E3	; 0x8020e3 <CurrentFrameNumber>
    22e4:	60 95       	com	r22
    22e6:	8c e2       	ldi	r24, 0x2C	; 44
    22e8:	90 e2       	ldi	r25, 0x20	; 32
    22ea:	0e 94 1b 28 	call	0x5036	; 0x5036 <CDC_Device_SendByte>
            TerminalSendBlock(TerminalBuffer, XMODEM_BLOCK_SIZE);
    22ee:	60 e8       	ldi	r22, 0x80	; 128
    22f0:	70 e0       	ldi	r23, 0x00	; 0
    22f2:	82 e5       	ldi	r24, 0x52	; 82
    22f4:	91 e2       	ldi	r25, 0x21	; 33
    22f6:	c0 db       	rcall	.-2176   	; 0x1a78 <TerminalSendBlock>
    22f8:	e2 e5       	ldi	r30, 0x52	; 82
    22fa:	f1 e2       	ldi	r31, 0x21	; 33
static uint32_t BlockAddress;

static XModemCallbackType CallbackFunc;

static uint8_t CalcChecksum(const void* Buffer, uint16_t ByteCount) {
    uint8_t Checksum = CHECKSUM_INIT_VALUE;
    22fc:	60 e0       	ldi	r22, 0x00	; 0
    uint8_t* DataPtr = (uint8_t*) Buffer;

    while(ByteCount--) {
    22fe:	21 e2       	ldi	r18, 0x21	; 33
    2300:	e2 3d       	cpi	r30, 0xD2	; 210
    2302:	f2 07       	cpc	r31, r18
    2304:	19 f0       	breq	.+6      	; 0x230c <XModemProcessByte+0x26c>
        Checksum += *DataPtr++;
    2306:	81 91       	ld	r24, Z+
    2308:	68 0f       	add	r22, r24
    230a:	f9 cf       	rjmp	.-14     	; 0x22fe <XModemProcessByte+0x25e>
    230c:	8c e2       	ldi	r24, 0x2C	; 44
    230e:	90 e2       	ldi	r25, 0x20	; 32
    2310:	0e 94 1b 28 	call	0x5036	; 0x5036 <CDC_Device_SendByte>
    2314:	d6 cf       	rjmp	.-84     	; 0x22c2 <XModemProcessByte+0x222>

        break;

    case STATE_SEND_EOT:
        /* Receive Ack */
        State = STATE_OFF;
    2316:	10 92 e4 20 	sts	0x20E4, r1	; 0x8020e4 <State>
    231a:	d3 cf       	rjmp	.-90     	; 0x22c2 <XModemProcessByte+0x222>
        break;

    default:
        return false;
    231c:	c0 e0       	ldi	r28, 0x00	; 0
        break;
    }

    return true;
}
    231e:	8c 2f       	mov	r24, r28
    2320:	cf 91       	pop	r28
    2322:	08 95       	ret

00002324 <XModemTick>:

void XModemTick(void)
{
    /* Timeouts go here */
    switch(State) {
    2324:	80 91 e4 20 	lds	r24, 0x20E4	; 0x8020e4 <State>
    2328:	81 30       	cpi	r24, 0x01	; 1
    232a:	19 f0       	breq	.+6      	; 0x2332 <XModemTick+0xe>
    232c:	87 30       	cpi	r24, 0x07	; 7
    232e:	29 f1       	breq	.+74     	; 0x237a <XModemTick+0x56>
    2330:	08 95       	ret
    case STATE_RECEIVE_INIT:
        if (RetryTimeout-- == 0) {
    2332:	80 91 de 20 	lds	r24, 0x20DE	; 0x8020de <RetryTimeout>
    2336:	90 91 df 20 	lds	r25, 0x20DF	; 0x8020df <RetryTimeout+0x1>
    233a:	9c 01       	movw	r18, r24
    233c:	21 50       	subi	r18, 0x01	; 1
    233e:	31 09       	sbc	r19, r1
    2340:	20 93 de 20 	sts	0x20DE, r18	; 0x8020de <RetryTimeout>
    2344:	30 93 df 20 	sts	0x20DF, r19	; 0x8020df <RetryTimeout+0x1>
    2348:	89 2b       	or	r24, r25
    234a:	31 f5       	brne	.+76     	; 0x2398 <XModemTick+0x74>
            if (RetryCount-- > 0) {
    234c:	80 91 e0 20 	lds	r24, 0x20E0	; 0x8020e0 <RetryCount>
    2350:	9f ef       	ldi	r25, 0xFF	; 255
    2352:	98 0f       	add	r25, r24
    2354:	90 93 e0 20 	sts	0x20E0, r25	; 0x8020e0 <RetryCount>
    2358:	88 23       	and	r24, r24
    235a:	31 f0       	breq	.+12     	; 0x2368 <XModemTick+0x44>
void EVENT_USB_Device_Connect(void);
void EVENT_USB_Device_Disconnect(void);
void EVENT_USB_Device_ConfigurationChanged(void);
void EVENT_USB_Device_ControlRequest(void);

INLINE void TerminalSendChar(char c) { CDC_Device_SendByte(&TerminalHandle, c); }
    235c:	65 e1       	ldi	r22, 0x15	; 21
    235e:	8c e2       	ldi	r24, 0x2C	; 44
    2360:	90 e2       	ldi	r25, 0x20	; 32
    2362:	0e 94 1b 28 	call	0x5036	; 0x5036 <CDC_Device_SendByte>
    2366:	02 c0       	rjmp	.+4      	; 0x236c <XModemTick+0x48>
                /* Put out communication request */
                TerminalSendChar(BYTE_NAK);
            } else {
                /* Just shut off after some time. */
                State = STATE_OFF;
    2368:	10 92 e4 20 	sts	0x20E4, r1	; 0x8020e4 <State>
            }

            RetryTimeout = RECV_INIT_TIMEOUT;
    236c:	85 e0       	ldi	r24, 0x05	; 5
    236e:	90 e0       	ldi	r25, 0x00	; 0
    2370:	80 93 de 20 	sts	0x20DE, r24	; 0x8020de <RetryTimeout>
    2374:	90 93 df 20 	sts	0x20DF, r25	; 0x8020df <RetryTimeout+0x1>
    2378:	08 95       	ret
        }
        break;

    case STATE_SEND_INIT:
        if (RetryTimeout-- == 0) {
    237a:	80 91 de 20 	lds	r24, 0x20DE	; 0x8020de <RetryTimeout>
    237e:	90 91 df 20 	lds	r25, 0x20DF	; 0x8020df <RetryTimeout+0x1>
    2382:	9c 01       	movw	r18, r24
    2384:	21 50       	subi	r18, 0x01	; 1
    2386:	31 09       	sbc	r19, r1
    2388:	20 93 de 20 	sts	0x20DE, r18	; 0x8020de <RetryTimeout>
    238c:	30 93 df 20 	sts	0x20DF, r19	; 0x8020df <RetryTimeout+0x1>
    2390:	89 2b       	or	r24, r25
    2392:	11 f4       	brne	.+4      	; 0x2398 <XModemTick+0x74>
            /* Abort */
            State = STATE_OFF;
    2394:	10 92 e4 20 	sts	0x20E4, r1	; 0x8020e4 <State>
    2398:	08 95       	ret

0000239a <GetStatusMessageP>:
    TerminalSendStringP(PSTR(OPTIONAL_ANSWER_TRAILER));
  }
}

void CommandLineInit(void) {
  BufferIdx = 0;
    239a:	e2 e4       	ldi	r30, 0x42	; 66
    239c:	f7 e0       	ldi	r31, 0x07	; 7
    239e:	20 e0       	ldi	r18, 0x00	; 0
    23a0:	30 e0       	ldi	r19, 0x00	; 0
    23a2:	94 91       	lpm	r25, Z
    23a4:	98 13       	cpse	r25, r24
    23a6:	09 c0       	rjmp	.+18     	; 0x23ba <GetStatusMessageP+0x20>
    23a8:	41 e2       	ldi	r20, 0x21	; 33
    23aa:	42 9f       	mul	r20, r18
    23ac:	c0 01       	movw	r24, r0
    23ae:	43 9f       	mul	r20, r19
    23b0:	90 0d       	add	r25, r0
    23b2:	11 24       	eor	r1, r1
    23b4:	8d 5b       	subi	r24, 0xBD	; 189
    23b6:	98 4f       	sbci	r25, 0xF8	; 248
    23b8:	08 95       	ret
    23ba:	2f 5f       	subi	r18, 0xFF	; 255
    23bc:	3f 4f       	sbci	r19, 0xFF	; 255
    23be:	b1 96       	adiw	r30, 0x21	; 33
    23c0:	26 30       	cpi	r18, 0x06	; 6
    23c2:	31 05       	cpc	r19, r1
    23c4:	71 f7       	brne	.-36     	; 0x23a2 <GetStatusMessageP+0x8>
    23c6:	80 e0       	ldi	r24, 0x00	; 0
    23c8:	90 e0       	ldi	r25, 0x00	; 0
    23ca:	08 95       	ret

000023cc <CommandLineProcessByte>:
}

bool CommandLineProcessByte(uint8_t b) {
    23cc:	cf 92       	push	r12
    23ce:	df 92       	push	r13
    23d0:	ef 92       	push	r14
    23d2:	ff 92       	push	r15
    23d4:	0f 93       	push	r16
    23d6:	1f 93       	push	r17
    23d8:	cf 93       	push	r28
	if (IS_CHARACTER(b)) {
    23da:	98 2f       	mov	r25, r24
    23dc:	9f 7d       	andi	r25, 0xDF	; 223
    23de:	91 54       	subi	r25, 0x41	; 65
    23e0:	9a 31       	cpi	r25, 0x1A	; 26
    23e2:	60 f0       	brcs	.+24     	; 0x23fc <CommandLineProcessByte+0x30>
    23e4:	90 ed       	ldi	r25, 0xD0	; 208
    23e6:	98 0f       	add	r25, r24
    23e8:	9a 30       	cpi	r25, 0x0A	; 10
    23ea:	40 f0       	brcs	.+16     	; 0x23fc <CommandLineProcessByte+0x30>
    23ec:	8f 35       	cpi	r24, 0x5F	; 95
    23ee:	31 f0       	breq	.+12     	; 0x23fc <CommandLineProcessByte+0x30>
    23f0:	98 2f       	mov	r25, r24
    23f2:	9d 7f       	andi	r25, 0xFD	; 253
    23f4:	9d 33       	cpi	r25, 0x3D	; 61
    23f6:	11 f0       	breq	.+4      	; 0x23fc <CommandLineProcessByte+0x30>
    23f8:	80 32       	cpi	r24, 0x20	; 32
    23fa:	c9 f4       	brne	.+50     	; 0x242e <CommandLineProcessByte+0x62>
		
    /* Store uppercase character */
		if (IS_LOWERCASE(b))
    23fc:	9f e9       	ldi	r25, 0x9F	; 159
    23fe:	98 0f       	add	r25, r24
    2400:	9a 31       	cpi	r25, 0x1A	; 26
    2402:	08 f4       	brcc	.+2      	; 0x2406 <CommandLineProcessByte+0x3a>
			b = TO_UPPERCASE(b);
    2404:	80 52       	subi	r24, 0x20	; 32

    /* Prevent buffer overflow and account for '\0' */
		if (BufferIdx < TERMINAL_BUFFER_SIZE - 1)
    2406:	20 91 ea 20 	lds	r18, 0x20EA	; 0x8020ea <BufferIdx>
    240a:	30 91 eb 20 	lds	r19, 0x20EB	; 0x8020eb <BufferIdx+0x1>
    240e:	2f 3f       	cpi	r18, 0xFF	; 255
    2410:	31 05       	cpc	r19, r1
    2412:	08 f0       	brcs	.+2      	; 0x2416 <CommandLineProcessByte+0x4a>
    2414:	cf c0       	rjmp	.+414    	; 0x25b4 <CommandLineProcessByte+0x1e8>
			TerminalBuffer[BufferIdx++] = b;
    2416:	a9 01       	movw	r20, r18
    2418:	4f 5f       	subi	r20, 0xFF	; 255
    241a:	5f 4f       	sbci	r21, 0xFF	; 255
    241c:	40 93 ea 20 	sts	0x20EA, r20	; 0x8020ea <BufferIdx>
    2420:	50 93 eb 20 	sts	0x20EB, r21	; 0x8020eb <BufferIdx+0x1>
    2424:	f9 01       	movw	r30, r18
    2426:	ee 5a       	subi	r30, 0xAE	; 174
    2428:	fe 4d       	sbci	r31, 0xDE	; 222
    242a:	80 83       	st	Z, r24
    242c:	c3 c0       	rjmp	.+390    	; 0x25b4 <CommandLineProcessByte+0x1e8>

	} else if (b == '\r') {
    242e:	8d 30       	cpi	r24, 0x0D	; 13
    2430:	09 f0       	breq	.+2      	; 0x2434 <CommandLineProcessByte+0x68>
    2432:	95 c0       	rjmp	.+298    	; 0x255e <CommandLineProcessByte+0x192>
    /* Process on \r. Terminate string and decode. */
    TerminalBuffer[BufferIdx] = '\0';
    2434:	e0 91 ea 20 	lds	r30, 0x20EA	; 0x8020ea <BufferIdx>
    2438:	f0 91 eb 20 	lds	r31, 0x20EB	; 0x8020eb <BufferIdx+0x1>
    243c:	ee 5a       	subi	r30, 0xAE	; 174
    243e:	fe 4d       	sbci	r31, 0xDE	; 222
    2440:	10 82       	st	Z, r1
    BufferIdx = 0;
    2442:	10 92 ea 20 	sts	0x20EA, r1	; 0x8020ea <BufferIdx>
    2446:	10 92 eb 20 	sts	0x20EB, r1	; 0x8020eb <BufferIdx+0x1>

        if (!TaskPending)
    244a:	80 91 e9 20 	lds	r24, 0x20E9	; 0x8020e9 <TaskPending>
    244e:	81 11       	cpse	r24, r1
    2450:	b1 c0       	rjmp	.+354    	; 0x25b4 <CommandLineProcessByte+0x1e8>
  bool CommandFound = false;
  CommandStatusIdType StatusId = COMMAND_ERR_UNKNOWN_CMD_ID;
  char* pTerminalBuffer = (char*) TerminalBuffer;

  /* Do some sanity check first */
  if (!IS_COMMAND_DELIMITER(pTerminalBuffer[0])) {
    2452:	80 91 52 21 	lds	r24, 0x2152	; 0x802152 <TerminalBuffer>
    2456:	98 2f       	mov	r25, r24
    2458:	9f 7d       	andi	r25, 0xDF	; 223
    245a:	09 f4       	brne	.+2      	; 0x245e <CommandLineProcessByte+0x92>
    245c:	95 c0       	rjmp	.+298    	; 0x2588 <CommandLineProcessByte+0x1bc>
    245e:	8d 7f       	andi	r24, 0xFD	; 253
    2460:	8d 33       	cpi	r24, 0x3D	; 61
    2462:	09 f4       	brne	.+2      	; 0x2466 <CommandLineProcessByte+0x9a>
    2464:	91 c0       	rjmp	.+290    	; 0x2588 <CommandLineProcessByte+0x1bc>
    2466:	e2 e5       	ldi	r30, 0x52	; 82
    2468:	f1 e2       	ldi	r31, 0x21	; 33
    246a:	7f 01       	movw	r14, r30
    char* pCommandDelimiter = pTerminalBuffer;
    char CommandDelimiter = '\0';

    /* Search for command delimiter, store it and replace with '\0' */
    while(!(IS_COMMAND_DELIMITER(*pCommandDelimiter)))
    246c:	c1 91       	ld	r28, Z+
    246e:	cc 23       	and	r28, r28
    2470:	31 f0       	breq	.+12     	; 0x247e <CommandLineProcessByte+0xb2>
    2472:	cf 33       	cpi	r28, 0x3F	; 63
    2474:	21 f0       	breq	.+8      	; 0x247e <CommandLineProcessByte+0xb2>
    2476:	cd 33       	cpi	r28, 0x3D	; 61
    2478:	11 f0       	breq	.+4      	; 0x247e <CommandLineProcessByte+0xb2>
    247a:	c0 32       	cpi	r28, 0x20	; 32
    247c:	b1 f7       	brne	.-20     	; 0x246a <CommandLineProcessByte+0x9e>
      pCommandDelimiter++;

    CommandDelimiter = *pCommandDelimiter;
    *pCommandDelimiter = '\0';
    247e:	f7 01       	movw	r30, r14
    2480:	10 82       	st	Z, r1
    2482:	88 e0       	ldi	r24, 0x08	; 8
    2484:	c8 2e       	mov	r12, r24
    2486:	88 e0       	ldi	r24, 0x08	; 8
    2488:	d8 2e       	mov	r13, r24
    248a:	00 e0       	ldi	r16, 0x00	; 0
    248c:	10 e0       	ldi	r17, 0x00	; 0

    /* Search in command table */
    for (i = 0; i < ARRAY_COUNT(CommandTable); i++) {
      if (strcmp_P(pTerminalBuffer, CommandTable[i].Command) == 0) {
    248e:	b6 01       	movw	r22, r12
    2490:	82 e5       	ldi	r24, 0x52	; 82
    2492:	91 e2       	ldi	r25, 0x21	; 33
    2494:	0e 94 5f 2a 	call	0x54be	; 0x54be <strcmp_P>
    2498:	89 2b       	or	r24, r25
    249a:	09 f0       	breq	.+2      	; 0x249e <CommandLineProcessByte+0xd2>
    249c:	56 c0       	rjmp	.+172    	; 0x254a <CommandLineProcessByte+0x17e>

        /* Command found. Clear buffer, and call appropriate function */
        char* pParam = ++pCommandDelimiter;
    249e:	b7 01       	movw	r22, r14
    24a0:	6f 5f       	subi	r22, 0xFF	; 255
    24a2:	7f 4f       	sbci	r23, 0xFF	; 255
        pTerminalBuffer[0] = '\0';
    24a4:	10 92 52 21 	sts	0x2152, r1	; 0x802152 <TerminalBuffer>
static CommandStatusIdType CallCommandFunc(	const CommandEntryType* CommandEntry, char CommandDelimiter, char* pParam) {
  char* pTerminalBuffer = (char*) TerminalBuffer;
  CommandStatusIdType Status = COMMAND_ERR_INVALID_USAGE_ID;

  /* Call appropriate function depending on CommandDelimiter */
  if (CommandDelimiter == CHAR_GET_MODE) {
    24a8:	cf 33       	cpi	r28, 0x3F	; 63
    24aa:	49 f4       	brne	.+18     	; 0x24be <CommandLineProcessByte+0xf2>
    CommandGetFuncType GetFunc = pgm_read_ptr(&CommandEntry->GetFunc);
    24ac:	88 e1       	ldi	r24, 0x18	; 24
    24ae:	80 9f       	mul	r24, r16
    24b0:	f0 01       	movw	r30, r0
    24b2:	81 9f       	mul	r24, r17
    24b4:	f0 0d       	add	r31, r0
    24b6:	11 24       	eor	r1, r1
    24b8:	e2 5e       	subi	r30, 0xE2	; 226
    24ba:	f7 4f       	sbci	r31, 0xF7	; 247
    24bc:	15 c0       	rjmp	.+42     	; 0x24e8 <CommandLineProcessByte+0x11c>
    if (GetFunc != NO_FUNCTION) {
            Status = GetFunc(pTerminalBuffer);
    }
  } else if (CommandDelimiter == CHAR_SET_MODE) {
    24be:	cd 33       	cpi	r28, 0x3D	; 61
    24c0:	49 f4       	brne	.+18     	; 0x24d4 <CommandLineProcessByte+0x108>
    CommandSetFuncType SetFunc = pgm_read_ptr(&CommandEntry->SetFunc);
    24c2:	88 e1       	ldi	r24, 0x18	; 24
    24c4:	80 9f       	mul	r24, r16
    24c6:	f0 01       	movw	r30, r0
    24c8:	81 9f       	mul	r24, r17
    24ca:	f0 0d       	add	r31, r0
    24cc:	11 24       	eor	r1, r1
    24ce:	e4 5e       	subi	r30, 0xE4	; 228
    24d0:	f7 4f       	sbci	r31, 0xF7	; 247
    24d2:	20 c0       	rjmp	.+64     	; 0x2514 <CommandLineProcessByte+0x148>
    if (SetFunc != NO_FUNCTION) {
            Status = SetFunc(pTerminalBuffer, pParam);
    }
  } else if (CommandDelimiter == CHAR_EXEC_MODE){
    24d4:	c1 11       	cpse	r28, r1
    24d6:	13 c0       	rjmp	.+38     	; 0x24fe <CommandLineProcessByte+0x132>
    CommandExecFuncType ExecFunc = pgm_read_ptr(&CommandEntry->ExecFunc);
    24d8:	88 e1       	ldi	r24, 0x18	; 24
    24da:	80 9f       	mul	r24, r16
    24dc:	f0 01       	movw	r30, r0
    24de:	81 9f       	mul	r24, r17
    24e0:	f0 0d       	add	r31, r0
    24e2:	11 24       	eor	r1, r1
    24e4:	e8 5e       	subi	r30, 0xE8	; 232
    24e6:	f7 4f       	sbci	r31, 0xF7	; 247
    24e8:	25 91       	lpm	r18, Z+
    24ea:	34 91       	lpm	r19, Z
    if (ExecFunc != NO_FUNCTION) {
    24ec:	21 15       	cp	r18, r1
    24ee:	31 05       	cpc	r19, r1
    24f0:	09 f4       	brne	.+2      	; 0x24f4 <CommandLineProcessByte+0x128>
    24f2:	4d c0       	rjmp	.+154    	; 0x258e <CommandLineProcessByte+0x1c2>
            Status = ExecFunc(pTerminalBuffer);
    24f4:	82 e5       	ldi	r24, 0x52	; 82
    24f6:	91 e2       	ldi	r25, 0x21	; 33
    24f8:	f9 01       	movw	r30, r18
    24fa:	09 95       	icall
    24fc:	14 c0       	rjmp	.+40     	; 0x2526 <CommandLineProcessByte+0x15a>
        }
    } else if (CommandDelimiter == CHAR_EXEC_MODE_PARAM) {
    24fe:	c0 32       	cpi	r28, 0x20	; 32
    2500:	09 f0       	breq	.+2      	; 0x2504 <CommandLineProcessByte+0x138>
    2502:	45 c0       	rjmp	.+138    	; 0x258e <CommandLineProcessByte+0x1c2>
        CommandExecParamFuncType ExecParamFunc = pgm_read_ptr(&CommandEntry->ExecParamFunc);
    2504:	88 e1       	ldi	r24, 0x18	; 24
    2506:	80 9f       	mul	r24, r16
    2508:	f0 01       	movw	r30, r0
    250a:	81 9f       	mul	r24, r17
    250c:	f0 0d       	add	r31, r0
    250e:	11 24       	eor	r1, r1
    2510:	e6 5e       	subi	r30, 0xE6	; 230
    2512:	f7 4f       	sbci	r31, 0xF7	; 247
    2514:	25 91       	lpm	r18, Z+
    2516:	34 91       	lpm	r19, Z
        if (ExecParamFunc != NO_FUNCTION) {
    2518:	21 15       	cp	r18, r1
    251a:	31 05       	cpc	r19, r1
    251c:	c1 f1       	breq	.+112    	; 0x258e <CommandLineProcessByte+0x1c2>
            Status = ExecParamFunc(pTerminalBuffer, pParam);
    251e:	82 e5       	ldi	r24, 0x52	; 82
    2520:	91 e2       	ldi	r25, 0x21	; 33
    2522:	f9 01       	movw	r30, r18
    2524:	09 95       	icall
    }
  } else {
    /* This should not happen (TM) */
  }

	if (Status == TIMEOUT_COMMAND) {
    2526:	8f 3f       	cpi	r24, 0xFF	; 255
    2528:	99 f5       	brne	.+102    	; 0x2590 <CommandLineProcessByte+0x1c4>
        TaskPending = true;
    252a:	81 e0       	ldi	r24, 0x01	; 1
    252c:	80 93 e9 20 	sts	0x20E9, r24	; 0x8020e9 <TaskPending>

    return false;
}

INLINE uint16_t SystemGetSysTick(void) {
    return SYSTEM_TICK_REGISTER | RTC.CNT;
    2530:	8e b1       	in	r24, 0x0e	; 14
    2532:	9f b1       	in	r25, 0x0f	; 15
    2534:	20 91 08 04 	lds	r18, 0x0408	; 0x800408 <__TEXT_REGION_LENGTH__+0x700408>
    2538:	30 91 09 04 	lds	r19, 0x0409	; 0x800409 <__TEXT_REGION_LENGTH__+0x700409>
    253c:	82 2b       	or	r24, r18
    253e:	93 2b       	or	r25, r19
        TaskPendingSince = SystemGetSysTick();
    2540:	80 93 e7 20 	sts	0x20E7, r24	; 0x8020e7 <TaskPendingSince>
    2544:	90 93 e8 20 	sts	0x20E8, r25	; 0x8020e8 <TaskPendingSince+0x1>
    2548:	35 c0       	rjmp	.+106    	; 0x25b4 <CommandLineProcessByte+0x1e8>
    254a:	0f 5f       	subi	r16, 0xFF	; 255
    254c:	1f 4f       	sbci	r17, 0xFF	; 255
    254e:	f8 e1       	ldi	r31, 0x18	; 24
    2550:	cf 0e       	add	r12, r31
    2552:	d1 1c       	adc	r13, r1

    CommandDelimiter = *pCommandDelimiter;
    *pCommandDelimiter = '\0';

    /* Search in command table */
    for (i = 0; i < ARRAY_COUNT(CommandTable); i++) {
    2554:	03 31       	cpi	r16, 0x13	; 19
    2556:	11 05       	cpc	r17, r1
    2558:	09 f0       	breq	.+2      	; 0x255c <CommandLineProcessByte+0x190>
    255a:	99 cf       	rjmp	.-206    	; 0x248e <CommandLineProcessByte+0xc2>
    255c:	15 c0       	rjmp	.+42     	; 0x2588 <CommandLineProcessByte+0x1bc>
    BufferIdx = 0;

        if (!TaskPending)
    DecodeCommand();

	} else if (b == '\b') {
    255e:	88 30       	cpi	r24, 0x08	; 8
    2560:	61 f4       	brne	.+24     	; 0x257a <CommandLineProcessByte+0x1ae>
    /* Backspace. Delete last character in buffer. */
		if (BufferIdx > 0)
    2562:	80 91 ea 20 	lds	r24, 0x20EA	; 0x8020ea <BufferIdx>
    2566:	90 91 eb 20 	lds	r25, 0x20EB	; 0x8020eb <BufferIdx+0x1>
    256a:	00 97       	sbiw	r24, 0x00	; 0
    256c:	19 f1       	breq	.+70     	; 0x25b4 <CommandLineProcessByte+0x1e8>
      BufferIdx--;
    256e:	01 97       	sbiw	r24, 0x01	; 1
    2570:	80 93 ea 20 	sts	0x20EA, r24	; 0x8020ea <BufferIdx>
    2574:	90 93 eb 20 	sts	0x20EB, r25	; 0x8020eb <BufferIdx+0x1>
    2578:	1d c0       	rjmp	.+58     	; 0x25b4 <CommandLineProcessByte+0x1e8>

	} else if (b == 0x1B) {
    257a:	8b 31       	cpi	r24, 0x1B	; 27
    257c:	d9 f4       	brne	.+54     	; 0x25b4 <CommandLineProcessByte+0x1e8>
    /* Drop buffer on escape */
    BufferIdx = 0;
    257e:	10 92 ea 20 	sts	0x20EA, r1	; 0x8020ea <BufferIdx>
    2582:	10 92 eb 20 	sts	0x20EB, r1	; 0x8020eb <BufferIdx+0x1>
    2586:	16 c0       	rjmp	.+44     	; 0x25b4 <CommandLineProcessByte+0x1e8>
}

static void DecodeCommand(void) {
  uint8_t i;
  bool CommandFound = false;
  CommandStatusIdType StatusId = COMMAND_ERR_UNKNOWN_CMD_ID;
    2588:	88 ec       	ldi	r24, 0xC8	; 200
    return Status;
}

static void DecodeCommand(void) {
  uint8_t i;
  bool CommandFound = false;
    258a:	c0 e0       	ldi	r28, 0x00	; 0
    258c:	02 c0       	rjmp	.+4      	; 0x2592 <CommandLineProcessByte+0x1c6>
    if (ExecFunc != NO_FUNCTION) {
            Status = ExecFunc(pTerminalBuffer);
        }
    } else if (CommandDelimiter == CHAR_EXEC_MODE_PARAM) {
        CommandExecParamFuncType ExecParamFunc = pgm_read_ptr(&CommandEntry->ExecParamFunc);
        if (ExecParamFunc != NO_FUNCTION) {
    258e:	89 ec       	ldi	r24, 0xC9	; 201
      if (strcmp_P(pTerminalBuffer, CommandTable[i].Command) == 0) {

        /* Command found. Clear buffer, and call appropriate function */
        char* pParam = ++pCommandDelimiter;
        pTerminalBuffer[0] = '\0';
        CommandFound = true;
    2590:	c1 e0       	ldi	r28, 0x01	; 1

  if (StatusId == TIMEOUT_COMMAND) // it is a timeout command, so we return
      return;

  /* Send command status message */
  TerminalSendStringP(GetStatusMessageP(StatusId));
    2592:	03 df       	rcall	.-506    	; 0x239a <GetStatusMessageP>
    2594:	60 da       	rcall	.-2880   	; 0x1a56 <TerminalSendStringP>
  TerminalSendStringP(PSTR(STATUS_MESSAGE_TRAILER));
    2596:	8f e3       	ldi	r24, 0x3F	; 63
    2598:	97 e0       	ldi	r25, 0x07	; 7
    259a:	5d da       	rcall	.-2886   	; 0x1a56 <TerminalSendStringP>

  if (CommandFound && (pTerminalBuffer[0] != '\0') ) {
    259c:	cc 23       	and	r28, r28
    259e:	51 f0       	breq	.+20     	; 0x25b4 <CommandLineProcessByte+0x1e8>
    25a0:	80 91 52 21 	lds	r24, 0x2152	; 0x802152 <TerminalBuffer>
    25a4:	88 23       	and	r24, r24
    25a6:	31 f0       	breq	.+12     	; 0x25b4 <CommandLineProcessByte+0x1e8>
    /* Send optional answer */
    TerminalSendString(pTerminalBuffer);
    25a8:	82 e5       	ldi	r24, 0x52	; 82
    25aa:	91 e2       	ldi	r25, 0x21	; 33
    25ac:	4f da       	rcall	.-2914   	; 0x1a4c <TerminalSendString>
    TerminalSendStringP(PSTR(OPTIONAL_ANSWER_TRAILER));
    25ae:	8c e3       	ldi	r24, 0x3C	; 60
    25b0:	97 e0       	ldi	r25, 0x07	; 7
    25b2:	51 da       	rcall	.-2910   	; 0x1a56 <TerminalSendStringP>
    BufferIdx = 0;
  } else {
    /* Ignore other chars */
  }
  return true;
}
    25b4:	81 e0       	ldi	r24, 0x01	; 1
    25b6:	cf 91       	pop	r28
    25b8:	1f 91       	pop	r17
    25ba:	0f 91       	pop	r16
    25bc:	ff 90       	pop	r15
    25be:	ef 90       	pop	r14
    25c0:	df 90       	pop	r13
    25c2:	cf 90       	pop	r12
    25c4:	08 95       	ret

000025c6 <CommandLineTick>:
        CommandLinePendingTaskTimeout = NO_FUNCTION;
    }
}

void CommandLineTick(void) {
    if (TaskPending
    25c6:	80 91 e9 20 	lds	r24, 0x20E9	; 0x8020e9 <TaskPending>
    25ca:	88 23       	and	r24, r24
    25cc:	89 f1       	breq	.+98     	; 0x2630 <CommandLineTick+0x6a>
			 && GlobalSettings.ActiveSettingPtr->PendingTaskTimeout != 0	// 0 means no timeout
    25ce:	e0 91 01 20 	lds	r30, 0x2001	; 0x802001 <GlobalSettings+0x1>
    25d2:	f0 91 02 20 	lds	r31, 0x2002	; 0x802002 <GlobalSettings+0x2>
    25d6:	23 81       	ldd	r18, Z+3	; 0x03
    25d8:	34 81       	ldd	r19, Z+4	; 0x04
    25da:	21 15       	cp	r18, r1
    25dc:	31 05       	cpc	r19, r1
    25de:	41 f1       	breq	.+80     	; 0x2630 <CommandLineTick+0x6a>
    25e0:	8e b1       	in	r24, 0x0e	; 14
    25e2:	9f b1       	in	r25, 0x0f	; 15
    25e4:	40 91 08 04 	lds	r20, 0x0408	; 0x800408 <__TEXT_REGION_LENGTH__+0x700408>
    25e8:	50 91 09 04 	lds	r21, 0x0409	; 0x800409 <__TEXT_REGION_LENGTH__+0x700409>
    25ec:	84 2b       	or	r24, r20
    25ee:	95 2b       	or	r25, r21
             && SYSTICK_DIFF_100MS(TaskPendingSince) >= GlobalSettings.ActiveSettingPtr->PendingTaskTimeout) {	// timeout expired
    25f0:	40 91 e7 20 	lds	r20, 0x20E7	; 0x8020e7 <TaskPendingSince>
    25f4:	50 91 e8 20 	lds	r21, 0x20E8	; 0x8020e8 <TaskPendingSince+0x1>
    25f8:	84 1b       	sub	r24, r20
    25fa:	95 0b       	sbc	r25, r21
    25fc:	64 e6       	ldi	r22, 0x64	; 100
    25fe:	70 e0       	ldi	r23, 0x00	; 0
    2600:	0e 94 99 29 	call	0x5332	; 0x5332 <__udivmodhi4>
    2604:	62 17       	cp	r22, r18
    2606:	73 07       	cpc	r23, r19
    2608:	98 f0       	brcs	.+38     	; 0x2630 <CommandLineTick+0x6a>
  }
  return true;
}

INLINE void Timeout(void) {
    TaskPending = false;
    260a:	10 92 e9 20 	sts	0x20E9, r1	; 0x8020e9 <TaskPending>
    TerminalSendStringP(GetStatusMessageP(COMMAND_ERR_TIMEOUT_ID));
    260e:	8b ec       	ldi	r24, 0xCB	; 203
    2610:	c4 de       	rcall	.-632    	; 0x239a <GetStatusMessageP>
    2612:	21 da       	rcall	.-3006   	; 0x1a56 <TerminalSendStringP>
    TerminalSendStringP(PSTR(STATUS_MESSAGE_TRAILER));
    2614:	89 e3       	ldi	r24, 0x39	; 57
    2616:	97 e0       	ldi	r25, 0x07	; 7
    2618:	1e da       	rcall	.-3012   	; 0x1a56 <TerminalSendStringP>

    if (CommandLinePendingTaskTimeout != NO_FUNCTION) {
    261a:	e0 91 e5 20 	lds	r30, 0x20E5	; 0x8020e5 <CommandLinePendingTaskTimeout>
    261e:	f0 91 e6 20 	lds	r31, 0x20E6	; 0x8020e6 <CommandLinePendingTaskTimeout+0x1>
    2622:	30 97       	sbiw	r30, 0x00	; 0
    2624:	29 f0       	breq	.+10     	; 0x2630 <CommandLineTick+0x6a>
        CommandLinePendingTaskTimeout(); // call the function that ends the task
    2626:	09 95       	icall
        CommandLinePendingTaskTimeout = NO_FUNCTION;
    2628:	10 92 e5 20 	sts	0x20E5, r1	; 0x8020e5 <CommandLinePendingTaskTimeout>
    262c:	10 92 e6 20 	sts	0x20E6, r1	; 0x8020e6 <CommandLinePendingTaskTimeout+0x1>
    2630:	08 95       	ret

00002632 <StartDemod>:
INLINE void CodecTask(void) {
    ActiveConfiguration.CodecTaskFunc();
}

INLINE void CodecSetDemodPower(bool bOnOff) {
    CODEC_DEMOD_POWER_PORT.DIRSET = CODEC_DEMOD_POWER_MASK;
    2632:	a0 e2       	ldi	r26, 0x20	; 32
    2634:	b6 e0       	ldi	r27, 0x06	; 6
    2636:	82 e0       	ldi	r24, 0x02	; 2
    2638:	11 96       	adiw	r26, 0x01	; 1
    263a:	8c 93       	st	X, r24
    263c:	11 97       	sbiw	r26, 0x01	; 1

    if (bOnOff) {
        CODEC_DEMOD_POWER_PORT.OUTSET = CODEC_DEMOD_POWER_MASK;
    263e:	15 96       	adiw	r26, 0x05	; 5
    2640:	8c 93       	st	X, r24
    2642:	15 97       	sbiw	r26, 0x05	; 5
static void StartDemod(void) {
    /* Activate Power for demodulator */
    CodecSetDemodPower(true);

    /* Configure sampling-timer free running and sync to first modulation-pause. */
    CODEC_TIMER_SAMPLING.CNT = 0;
    2644:	e0 e4       	ldi	r30, 0x40	; 64
    2646:	f8 e0       	ldi	r31, 0x08	; 8
    2648:	10 a2       	std	Z+32, r1	; 0x20
    264a:	11 a2       	std	Z+33, r1	; 0x21
    CODEC_TIMER_SAMPLING.PER = SAMPLE_RATE_SYSTEM_CYCLES - 1;
    264c:	8d e2       	ldi	r24, 0x2D	; 45
    264e:	91 e0       	ldi	r25, 0x01	; 1
    2650:	86 a3       	std	Z+38, r24	; 0x26
    2652:	97 a3       	std	Z+39, r25	; 0x27
    CODEC_TIMER_SAMPLING.CCA = 0xFFFF; /* CCA Interrupt is not active! */
    2654:	8f ef       	ldi	r24, 0xFF	; 255
    2656:	9f ef       	ldi	r25, 0xFF	; 255
    2658:	80 a7       	std	Z+40, r24	; 0x28
    265a:	91 a7       	std	Z+41, r25	; 0x29
    CODEC_TIMER_SAMPLING.CTRLA = TC_CLKSEL_DIV1_gc;
    265c:	81 e0       	ldi	r24, 0x01	; 1
    265e:	80 83       	st	Z, r24
    CODEC_TIMER_SAMPLING.CTRLD = TC_EVACT_RESTART_gc | TC_EVSEL_CH0_gc;
    2660:	98 e8       	ldi	r25, 0x88	; 136
    2662:	93 83       	std	Z+3, r25	; 0x03
    CODEC_TIMER_SAMPLING.INTCTRLB = TC_CCAINTLVL_HI_gc;
    2664:	93 e0       	ldi	r25, 0x03	; 3
    2666:	97 83       	std	Z+7, r25	; 0x07

    /* Start looking out for modulation pause via interrupt. */
    CODEC_DEMOD_IN_PORT.INT0MASK = CODEC_DEMOD_IN_MASK0;
    2668:	1a 96       	adiw	r26, 0x0a	; 10
    266a:	8c 93       	st	X, r24
    266c:	08 95       	ret

0000266e <__vector_34>:
}

ISR(CODEC_DEMOD_IN_INT0_VECT) {
    266e:	1f 92       	push	r1
    2670:	0f 92       	push	r0
    2672:	0f b6       	in	r0, 0x3f	; 63
    2674:	0f 92       	push	r0
    2676:	11 24       	eor	r1, r1
    2678:	8f 93       	push	r24
    267a:	9f 93       	push	r25
    267c:	ef 93       	push	r30
    267e:	ff 93       	push	r31
    /* This is the first edge of the first modulation-pause after StartDemod.
     * Now we have time to prepare our timers and variables to start
     * demodulating beginning from one bit-width after this edge. */
    CodecBufferPtr = CodecBuffer;
    2680:	82 e5       	ldi	r24, 0x52	; 82
    2682:	92 e2       	ldi	r25, 0x22	; 34
    2684:	80 93 f8 20 	sts	0x20F8, r24	; 0x8020f8 <CodecBufferPtr>
    2688:	90 93 f9 20 	sts	0x20F9, r25	; 0x8020f9 <CodecBufferPtr+0x1>
    ParityBufferPtr = &CodecBuffer[ISO14443A_BUFFER_PARITY_OFFSET];
    268c:	82 ed       	ldi	r24, 0xD2	; 210
    268e:	92 e2       	ldi	r25, 0x22	; 34
    2690:	80 93 f6 20 	sts	0x20F6, r24	; 0x8020f6 <ParityBufferPtr>
    2694:	90 93 f7 20 	sts	0x20F7, r25	; 0x8020f7 <ParityBufferPtr+0x1>
    DataRegister = 0;
    2698:	10 92 f1 20 	sts	0x20F1, r1	; 0x8020f1 <DataRegister>
    SampleRegister = 0;
    269c:	10 92 f0 20 	sts	0x20F0, r1	; 0x8020f0 <SampleRegister>
    SamplePosition = 0;
    26a0:	10 92 ec 20 	sts	0x20EC, r1	; 0x8020ec <SamplePosition>
    BitCount = 0;
    26a4:	10 92 f4 20 	sts	0x20F4, r1	; 0x8020f4 <BitCount>
    26a8:	10 92 f5 20 	sts	0x20F5, r1	; 0x8020f5 <BitCount+0x1>
    IsParityBit = false;
    26ac:	10 92 ef 20 	sts	0x20EF, r1	; 0x8020ef <IsParityBit>
     * XYZBUF mechanism of the xmega to automatically double the sampling rate on the
     * next overflow. For this we have to temporarily deactivate the automatical alignment
     * in order to catch next overflow event for updating the BUF registers.
     * We want to sample the demodulated data stream in the first quarter of the half-bit
     * where the pulsed miller encoded is located. */
    CODEC_TIMER_SAMPLING.CTRLD = TC_EVACT_OFF_gc;
    26b0:	e0 e4       	ldi	r30, 0x40	; 64
    26b2:	f8 e0       	ldi	r31, 0x08	; 8
    26b4:	13 82       	std	Z+3, r1	; 0x03
    CODEC_TIMER_SAMPLING.PERBUF = SAMPLE_RATE_SYSTEM_CYCLES/2 - 1; /* Half bit width */
    26b6:	86 e9       	ldi	r24, 0x96	; 150
    26b8:	90 e0       	ldi	r25, 0x00	; 0
    26ba:	86 ab       	std	Z+54, r24	; 0x36
    26bc:	97 ab       	std	Z+55, r25	; 0x37
    CODEC_TIMER_SAMPLING.CCABUF = SAMPLE_RATE_SYSTEM_CYCLES/8 - 10 - 1; /* Compensate for DIGFILT and ISR prolog */
    26be:	8a e1       	ldi	r24, 0x1A	; 26
    26c0:	90 e0       	ldi	r25, 0x00	; 0
    26c2:	80 af       	std	Z+56, r24	; 0x38
    26c4:	91 af       	std	Z+57, r25	; 0x39
    /* Setup Frame Delay Timer and wire to EVSYS. Frame delay time is
     * measured from last change in RF field, therefore we use
     * the event channel 1 (end of modulation pause) as the restart event.
     * The preliminary frame delay time chosen here is irrelevant, because
     * the correct FDT gets set automatically after demodulation. */
    CODEC_TIMER_LOADMOD.CNT = 0;
    26c6:	e0 e4       	ldi	r30, 0x40	; 64
    26c8:	f9 e0       	ldi	r31, 0x09	; 9
    26ca:	10 a2       	std	Z+32, r1	; 0x20
    26cc:	11 a2       	std	Z+33, r1	; 0x21
    CODEC_TIMER_LOADMOD.PER = 0xFFFF;
    26ce:	8f ef       	ldi	r24, 0xFF	; 255
    26d0:	9f ef       	ldi	r25, 0xFF	; 255
    26d2:	86 a3       	std	Z+38, r24	; 0x26
    26d4:	97 a3       	std	Z+39, r25	; 0x27
    CODEC_TIMER_LOADMOD.CTRLD = TC_EVACT_RESTART_gc | TC_EVSEL_CH1_gc;
    26d6:	89 e8       	ldi	r24, 0x89	; 137
    26d8:	83 83       	std	Z+3, r24	; 0x03
    CODEC_TIMER_LOADMOD.CTRLA = TC_CLKSEL_EVCH6_gc;
    26da:	8e e0       	ldi	r24, 0x0E	; 14
    26dc:	80 83       	st	Z, r24

    /* Disable this interrupt */
    CODEC_DEMOD_IN_PORT.INT0MASK = 0;
    26de:	10 92 2a 06 	sts	0x062A, r1	; 0x80062a <__TEXT_REGION_LENGTH__+0x70062a>
}
    26e2:	ff 91       	pop	r31
    26e4:	ef 91       	pop	r30
    26e6:	9f 91       	pop	r25
    26e8:	8f 91       	pop	r24
    26ea:	0f 90       	pop	r0
    26ec:	0f be       	out	0x3f, r0	; 63
    26ee:	0f 90       	pop	r0
    26f0:	1f 90       	pop	r1
    26f2:	18 95       	reti

000026f4 <__vector_22>:

ISR(CODEC_TIMER_SAMPLING_CCA_VECT) {
    26f4:	1f 92       	push	r1
    26f6:	0f 92       	push	r0
    26f8:	0f b6       	in	r0, 0x3f	; 63
    26fa:	0f 92       	push	r0
    26fc:	11 24       	eor	r1, r1
    26fe:	2f 93       	push	r18
    2700:	3f 93       	push	r19
    2702:	8f 93       	push	r24
    2704:	9f 93       	push	r25
    2706:	ef 93       	push	r30
    2708:	ff 93       	push	r31
    /* This interrupt gets called twice for every bit to sample it. */
    uint8_t SamplePin = CODEC_DEMOD_IN_PORT.IN & CODEC_DEMOD_IN_MASK;
    270a:	90 91 28 06 	lds	r25, 0x0628	; 0x800628 <__TEXT_REGION_LENGTH__+0x700628>
    uint8_t NewSampleRegister;

    /* Shift sampled bit into sampling register and hold a local copy for fast access. */
    NewSampleRegister = SampleRegister << 1;
    270e:	80 91 f0 20 	lds	r24, 0x20F0	; 0x8020f0 <SampleRegister>
    CODEC_DEMOD_IN_PORT.INT0MASK = 0;
}

ISR(CODEC_TIMER_SAMPLING_CCA_VECT) {
    /* This interrupt gets called twice for every bit to sample it. */
    uint8_t SamplePin = CODEC_DEMOD_IN_PORT.IN & CODEC_DEMOD_IN_MASK;
    2712:	95 70       	andi	r25, 0x05	; 5
    uint8_t NewSampleRegister;

    /* Shift sampled bit into sampling register and hold a local copy for fast access. */
    NewSampleRegister = SampleRegister << 1;
    NewSampleRegister |= (!SamplePin ? 0x01 : 0x00);
    2714:	21 e0       	ldi	r18, 0x01	; 1
    2716:	09 f0       	breq	.+2      	; 0x271a <__vector_22+0x26>
    2718:	20 e0       	ldi	r18, 0x00	; 0
    /* This interrupt gets called twice for every bit to sample it. */
    uint8_t SamplePin = CODEC_DEMOD_IN_PORT.IN & CODEC_DEMOD_IN_MASK;
    uint8_t NewSampleRegister;

    /* Shift sampled bit into sampling register and hold a local copy for fast access. */
    NewSampleRegister = SampleRegister << 1;
    271a:	88 0f       	add	r24, r24
    NewSampleRegister |= (!SamplePin ? 0x01 : 0x00);
    271c:	82 2b       	or	r24, r18
    SampleRegister = NewSampleRegister;
    271e:	80 93 f0 20 	sts	0x20F0, r24	; 0x8020f0 <SampleRegister>

    if (SamplePosition) {
    2722:	90 91 ec 20 	lds	r25, 0x20EC	; 0x8020ec <SamplePosition>
    2726:	99 23       	and	r25, r25
    2728:	09 f4       	brne	.+2      	; 0x272c <__vector_22+0x38>
    272a:	6c c0       	rjmp	.+216    	; 0x2804 <__vector_22+0x110>
        /* Analyze the sampling register after 2 samples. */
        if ((NewSampleRegister & 0x07) == 0x07) {
    272c:	98 2f       	mov	r25, r24
    272e:	97 70       	andi	r25, 0x07	; 7
    2730:	97 30       	cpi	r25, 0x07	; 7
    2732:	91 f5       	brne	.+100    	; 0x2798 <__vector_22+0xa4>
            /* No carrier modulation for 3 sample points. EOC! */
            CODEC_TIMER_SAMPLING.CTRLA = TC_CLKSEL_OFF_gc;
    2734:	10 92 40 08 	sts	0x0840, r1	; 0x800840 <__TEXT_REGION_LENGTH__+0x700840>
            CODEC_TIMER_SAMPLING.INTFLAGS = TC0_CCAIF_bm;
    2738:	80 e1       	ldi	r24, 0x10	; 16
    273a:	80 93 4c 08 	sts	0x084C, r24	; 0x80084c <__TEXT_REGION_LENGTH__+0x70084c>

            /* By this time, the FDT timer is aligned to the last modulation
             * edge of the reader. So we disable the auto-synchronization and
             * let it count the frame delay time in the background, and generate
             * an interrupt once it has reached the FDT. */
            CODEC_TIMER_LOADMOD.CTRLD = TC_EVACT_OFF_gc;
    273e:	10 92 43 09 	sts	0x0943, r1	; 0x800943 <__TEXT_REGION_LENGTH__+0x700943>

            if (LastBit) {
    2742:	80 91 ee 20 	lds	r24, 0x20EE	; 0x8020ee <LastBit>
    2746:	88 23       	and	r24, r24
    2748:	19 f0       	breq	.+6      	; 0x2750 <__vector_22+0x5c>
                CODEC_TIMER_LOADMOD.PER = ISO14443A_FRAME_DELAY_PREV1;
    274a:	8c eb       	ldi	r24, 0xBC	; 188
    274c:	94 e0       	ldi	r25, 0x04	; 4
    274e:	02 c0       	rjmp	.+4      	; 0x2754 <__vector_22+0x60>
            } else {
                CODEC_TIMER_LOADMOD.PER = ISO14443A_FRAME_DELAY_PREV0;
    2750:	8c e7       	ldi	r24, 0x7C	; 124
    2752:	94 e0       	ldi	r25, 0x04	; 4
    2754:	80 93 66 09 	sts	0x0966, r24	; 0x800966 <__TEXT_REGION_LENGTH__+0x700966>
    2758:	90 93 67 09 	sts	0x0967, r25	; 0x800967 <__TEXT_REGION_LENGTH__+0x700967>
            }

            LoadModState = LOADMOD_FDT;
    275c:	10 92 ed 20 	sts	0x20ED, r1	; 0x8020ed <LoadModState>

            CODEC_TIMER_LOADMOD.INTFLAGS = TC1_OVFIF_bm;
    2760:	81 e0       	ldi	r24, 0x01	; 1
    2762:	80 93 4c 09 	sts	0x094C, r24	; 0x80094c <__TEXT_REGION_LENGTH__+0x70094c>
            CODEC_TIMER_LOADMOD.INTCTRLA = TC_OVFINTLVL_HI_gc;
    2766:	83 e0       	ldi	r24, 0x03	; 3
    2768:	80 93 46 09 	sts	0x0946, r24	; 0x800946 <__TEXT_REGION_LENGTH__+0x700946>

            /* Determine if we did not receive a multiple of 8 bits.
             * If this is the case, right-align the remaining data and
             * store it into the buffer. */
            uint8_t RemainingBits = BitCount % 8;
    276c:	80 91 f4 20 	lds	r24, 0x20F4	; 0x8020f4 <BitCount>
    2770:	90 91 f5 20 	lds	r25, 0x20F5	; 0x8020f5 <BitCount+0x1>
    2774:	87 70       	andi	r24, 0x07	; 7
            if (RemainingBits != 0) {
    2776:	61 f0       	breq	.+24     	; 0x2790 <__vector_22+0x9c>
                uint8_t NewDataRegister = DataRegister;
    2778:	90 91 f1 20 	lds	r25, 0x20F1	; 0x8020f1 <DataRegister>

                while (RemainingBits++ < 8) {
    277c:	8f 5f       	subi	r24, 0xFF	; 255
    277e:	89 30       	cpi	r24, 0x09	; 9
    2780:	11 f0       	breq	.+4      	; 0x2786 <__vector_22+0x92>
                    /* Pad with zeroes to right-align. */
                    NewDataRegister >>= 1;
    2782:	96 95       	lsr	r25
    2784:	fb cf       	rjmp	.-10     	; 0x277c <__vector_22+0x88>
                }

                /* TODO: Prevent buffer overflow */
                *CodecBufferPtr = NewDataRegister;
    2786:	e0 91 f8 20 	lds	r30, 0x20F8	; 0x8020f8 <CodecBufferPtr>
    278a:	f0 91 f9 20 	lds	r31, 0x20F9	; 0x8020f9 <CodecBufferPtr+0x1>
    278e:	90 83       	st	Z, r25
            }

            /* Signal, that we have finished sampling */
            Flags.DemodFinished = 1;
    2790:	81 e0       	ldi	r24, 0x01	; 1
    2792:	80 93 fa 20 	sts	0x20FA, r24	; 0x8020fa <Flags>
    2796:	36 c0       	rjmp	.+108    	; 0x2804 <__vector_22+0x110>
        } else {
            /* Otherwise, we check the two sample bits from the bit before. */
            uint8_t BitSample = NewSampleRegister & 0xC;
    2798:	98 2f       	mov	r25, r24
    279a:	9c 70       	andi	r25, 0x0C	; 12
            uint8_t Bit = 0;

            if (BitSample != (0x0 << 2)) {
    279c:	99 f1       	breq	.+102    	; 0x2804 <__vector_22+0x110>
                /* We have a valid bit. decode and process it. */
                if (BitSample & (0x1 << 2)) {
    279e:	82 fb       	bst	r24, 2
    27a0:	88 27       	eor	r24, r24
    27a2:	80 f9       	bld	r24, 0
    27a4:	91 e0       	ldi	r25, 0x01	; 1
    27a6:	89 27       	eor	r24, r25
                } else {
                    /* 10 sequence -> This is a one bit */
                    Bit = 1;
                }

                LastBit = Bit;
    27a8:	80 93 ee 20 	sts	0x20EE, r24	; 0x8020ee <LastBit>

                if (!IsParityBit) {
    27ac:	90 91 ef 20 	lds	r25, 0x20EF	; 0x8020ef <IsParityBit>
    27b0:	91 11       	cpse	r25, r1
    27b2:	26 c0       	rjmp	.+76     	; 0x2800 <__vector_22+0x10c>
                    /* This is a data bit, so shift it into the data register and
                     * hold a local copy of it. */
                    uint8_t NewDataRegister = DataRegister >> 1;
    27b4:	90 91 f1 20 	lds	r25, 0x20F1	; 0x8020f1 <DataRegister>
    27b8:	96 95       	lsr	r25
                    NewDataRegister |= (Bit ? 0x80 : 0x00);
    27ba:	81 11       	cpse	r24, r1
    27bc:	80 e8       	ldi	r24, 0x80	; 128
    27be:	89 2b       	or	r24, r25
                    DataRegister = NewDataRegister;
    27c0:	80 93 f1 20 	sts	0x20F1, r24	; 0x8020f1 <DataRegister>

                    /* Update bitcount */
                    uint16_t NewBitCount = ++BitCount;
    27c4:	20 91 f4 20 	lds	r18, 0x20F4	; 0x8020f4 <BitCount>
    27c8:	30 91 f5 20 	lds	r19, 0x20F5	; 0x8020f5 <BitCount+0x1>
    27cc:	2f 5f       	subi	r18, 0xFF	; 255
    27ce:	3f 4f       	sbci	r19, 0xFF	; 255
    27d0:	20 93 f4 20 	sts	0x20F4, r18	; 0x8020f4 <BitCount>
    27d4:	30 93 f5 20 	sts	0x20F5, r19	; 0x8020f5 <BitCount+0x1>
                    if ((NewBitCount & 0x07) == 0) {
    27d8:	27 70       	andi	r18, 0x07	; 7
    27da:	33 27       	eor	r19, r19
    27dc:	23 2b       	or	r18, r19
    27de:	91 f4       	brne	.+36     	; 0x2804 <__vector_22+0x110>
                        /* We have reached a byte boundary! Store the data register. */
                        /* TODO: Prevent buffer overflow */
                        *CodecBufferPtr++ = NewDataRegister;
    27e0:	e0 91 f8 20 	lds	r30, 0x20F8	; 0x8020f8 <CodecBufferPtr>
    27e4:	f0 91 f9 20 	lds	r31, 0x20F9	; 0x8020f9 <CodecBufferPtr+0x1>
    27e8:	9f 01       	movw	r18, r30
    27ea:	2f 5f       	subi	r18, 0xFF	; 255
    27ec:	3f 4f       	sbci	r19, 0xFF	; 255
    27ee:	20 93 f8 20 	sts	0x20F8, r18	; 0x8020f8 <CodecBufferPtr>
    27f2:	30 93 f9 20 	sts	0x20F9, r19	; 0x8020f9 <CodecBufferPtr+0x1>
    27f6:	80 83       	st	Z, r24

                        /* Store bit for determining FDT at EOC and enable parity
                         * handling on next bit. */
                        IsParityBit = true;
    27f8:	81 e0       	ldi	r24, 0x01	; 1
    27fa:	80 93 ef 20 	sts	0x20EF, r24	; 0x8020ef <IsParityBit>
    27fe:	02 c0       	rjmp	.+4      	; 0x2804 <__vector_22+0x110>

                } else {
                    /* This is a parity bit. Store it */
                    /* TODO: Store parity and prevent overflow */
                    //*ParityBufferPtr++ = Bit;
                    IsParityBit = false;
    2800:	10 92 ef 20 	sts	0x20EF, r1	; 0x8020ef <IsParityBit>
        }
    } else {
        /* On odd sample position just sample. */
    }

    SamplePosition = !SamplePosition;
    2804:	90 91 ec 20 	lds	r25, 0x20EC	; 0x8020ec <SamplePosition>
    2808:	81 e0       	ldi	r24, 0x01	; 1
    280a:	89 27       	eor	r24, r25
    280c:	80 93 ec 20 	sts	0x20EC, r24	; 0x8020ec <SamplePosition>

    /* Make sure the sampling timer gets automatically aligned to the
     * modulation pauses by using the RESTART event.
     * This can be understood as a "poor mans PLL" and makes sure that we are
     * never too far out the bit-grid while sampling. */
    CODEC_TIMER_SAMPLING.CTRLD = TC_EVACT_RESTART_gc | TC_EVSEL_CH0_gc;
    2810:	88 e8       	ldi	r24, 0x88	; 136
    2812:	80 93 43 08 	sts	0x0843, r24	; 0x800843 <__TEXT_REGION_LENGTH__+0x700843>
}
    2816:	ff 91       	pop	r31
    2818:	ef 91       	pop	r30
    281a:	9f 91       	pop	r25
    281c:	8f 91       	pop	r24
    281e:	3f 91       	pop	r19
    2820:	2f 91       	pop	r18
    2822:	0f 90       	pop	r0
    2824:	0f be       	out	0x3f, r0	; 63
    2826:	0f 90       	pop	r0
    2828:	1f 90       	pop	r1
    282a:	18 95       	reti

0000282c <__vector_83>:

ISR(CODEC_TIMER_OVF_VECT) {
    282c:	1f 92       	push	r1
    282e:	0f 92       	push	r0
    2830:	0f b6       	in	r0, 0x3f	; 63
    2832:	0f 92       	push	r0
    2834:	11 24       	eor	r1, r1
    2836:	2f 93       	push	r18
    2838:	3f 93       	push	r19
    283a:	8f 93       	push	r24
    283c:	9f 93       	push	r25
    283e:	ef 93       	push	r30
    2840:	ff 93       	push	r31
    /* Bit rate timer. Output a half bit on the output. */
    uint8_t Temp8;
    uint16_t Temp16;

    switch (LoadModState) {
    2842:	80 91 ed 20 	lds	r24, 0x20ED	; 0x8020ed <LoadModState>
    2846:	85 30       	cpi	r24, 0x05	; 5
    2848:	09 f4       	brne	.+2      	; 0x284c <__vector_83+0x20>
    284a:	5a c0       	rjmp	.+180    	; 0x2900 <__vector_83+0xd4>
    284c:	b8 f4       	brcc	.+46     	; 0x287c <__vector_83+0x50>
    284e:	82 30       	cpi	r24, 0x02	; 2
    2850:	b9 f1       	breq	.+110    	; 0x28c0 <__vector_83+0x94>
    2852:	78 f4       	brcc	.+30     	; 0x2872 <__vector_83+0x46>
    2854:	88 23       	and	r24, r24
    2856:	69 f1       	breq	.+90     	; 0x28b2 <__vector_83+0x86>
    2858:	81 30       	cpi	r24, 0x01	; 1
    285a:	09 f0       	breq	.+2      	; 0x285e <__vector_83+0x32>
    285c:	c0 c0       	rjmp	.+384    	; 0x29de <__vector_83+0x1b2>
        break;

    case LOADMOD_START:
        /* Application produced data. With this interrupt we are aligned to the bit-grid.
         * Start subcarrier generation and align to bitrate. */
        CODEC_TIMER_LOADMOD.PER = ISO14443A_BIT_RATE_CYCLES / 2 - 1;
    285e:	8f e3       	ldi	r24, 0x3F	; 63
    2860:	90 e0       	ldi	r25, 0x00	; 0
    2862:	80 93 66 09 	sts	0x0966, r24	; 0x800966 <__TEXT_REGION_LENGTH__+0x700966>
    2866:	90 93 67 09 	sts	0x0967, r25	; 0x800967 <__TEXT_REGION_LENGTH__+0x700967>
        CODEC_SUBCARRIER_TIMER.CTRLA = TC_CLKSEL_EVCH6_gc;
    286a:	8e e0       	ldi	r24, 0x0E	; 14
    286c:	80 93 00 08 	sts	0x0800, r24	; 0x800800 <__TEXT_REGION_LENGTH__+0x700800>
    2870:	27 c0       	rjmp	.+78     	; 0x28c0 <__vector_83+0x94>
ISR(CODEC_TIMER_OVF_VECT) {
    /* Bit rate timer. Output a half bit on the output. */
    uint8_t Temp8;
    uint16_t Temp16;

    switch (LoadModState) {
    2872:	83 30       	cpi	r24, 0x03	; 3
    2874:	51 f1       	breq	.+84     	; 0x28ca <__vector_83+0x9e>
    2876:	84 30       	cpi	r24, 0x04	; 4
    2878:	b1 f1       	breq	.+108    	; 0x28e6 <__vector_83+0xba>
    287a:	b1 c0       	rjmp	.+354    	; 0x29de <__vector_83+0x1b2>
    287c:	88 30       	cpi	r24, 0x08	; 8
    287e:	09 f4       	brne	.+2      	; 0x2882 <__vector_83+0x56>
    2880:	a3 c0       	rjmp	.+326    	; 0x29c8 <__vector_83+0x19c>
    2882:	38 f4       	brcc	.+14     	; 0x2892 <__vector_83+0x66>
    2884:	86 30       	cpi	r24, 0x06	; 6
    2886:	09 f4       	brne	.+2      	; 0x288a <__vector_83+0x5e>
    2888:	60 c0       	rjmp	.+192    	; 0x294a <__vector_83+0x11e>
    288a:	87 30       	cpi	r24, 0x07	; 7
    288c:	09 f4       	brne	.+2      	; 0x2890 <__vector_83+0x64>
    288e:	6d c0       	rjmp	.+218    	; 0x296a <__vector_83+0x13e>
    2890:	a6 c0       	rjmp	.+332    	; 0x29de <__vector_83+0x1b2>
    2892:	89 30       	cpi	r24, 0x09	; 9
    2894:	09 f4       	brne	.+2      	; 0x2898 <__vector_83+0x6c>
    2896:	9d c0       	rjmp	.+314    	; 0x29d2 <__vector_83+0x1a6>
    2898:	8a 30       	cpi	r24, 0x0A	; 10
    289a:	09 f0       	breq	.+2      	; 0x289e <__vector_83+0x72>
    289c:	a0 c0       	rjmp	.+320    	; 0x29de <__vector_83+0x1b2>

    case LOADMOD_FINISHED:
        /* We have written all of our bits. Deactivate the loadmod
         * timer. Also disable the bit-rate interrupt again. And
         * stop the subcarrier divider. */
        CODEC_TIMER_LOADMOD.CTRLA = TC_CLKSEL_OFF_gc;
    289e:	10 92 40 09 	sts	0x0940, r1	; 0x800940 <__TEXT_REGION_LENGTH__+0x700940>
        CODEC_TIMER_LOADMOD.INTCTRLA = 0;
    28a2:	10 92 46 09 	sts	0x0946, r1	; 0x800946 <__TEXT_REGION_LENGTH__+0x700946>
        CODEC_SUBCARRIER_TIMER.CTRLA = TC_CLKSEL_OFF_gc;
    28a6:	10 92 00 08 	sts	0x0800, r1	; 0x800800 <__TEXT_REGION_LENGTH__+0x700800>

        /* Signal application that we have finished loadmod */
        Flags.LoadmodFinished = 1;
    28aa:	81 e0       	ldi	r24, 0x01	; 1
    28ac:	80 93 fb 20 	sts	0x20FB, r24	; 0x8020fb <Flags+0x1>
        break;
    28b0:	96 c0       	rjmp	.+300    	; 0x29de <__vector_83+0x1b2>
    uint16_t Temp16;

    switch (LoadModState) {
    case LOADMOD_FDT:
        /* No data has been produced, but FDT has ended. Switch over to bit-grid aligning. */
        CODEC_TIMER_LOADMOD.PER = ISO14443A_BIT_GRID_CYCLES - 1;
    28b2:	8f e7       	ldi	r24, 0x7F	; 127
    28b4:	90 e0       	ldi	r25, 0x00	; 0
    28b6:	80 93 66 09 	sts	0x0966, r24	; 0x800966 <__TEXT_REGION_LENGTH__+0x700966>
    28ba:	90 93 67 09 	sts	0x0967, r25	; 0x800967 <__TEXT_REGION_LENGTH__+0x700967>
        break;
    28be:	8f c0       	rjmp	.+286    	; 0x29de <__vector_83+0x1b2>
        CODEC_SUBCARRIER_TIMER.CTRLA = TC_CLKSEL_EVCH6_gc;

        /* Fallthrough to first bit */

    case LOADMOD_START_BIT0:
    	CODEC_LOADMOD_PORT.OUTSET = CODEC_LOADMOD_MASK;
    28c0:	80 e4       	ldi	r24, 0x40	; 64
    28c2:	80 93 45 06 	sts	0x0645, r24	; 0x800645 <__TEXT_REGION_LENGTH__+0x700645>
        LoadModState = LOADMOD_START_BIT1;
    28c6:	83 e0       	ldi	r24, 0x03	; 3
    28c8:	88 c0       	rjmp	.+272    	; 0x29da <__vector_83+0x1ae>
        break;

    case LOADMOD_START_BIT1:
    	CODEC_LOADMOD_PORT.OUTCLR = CODEC_LOADMOD_MASK;
    28ca:	80 e4       	ldi	r24, 0x40	; 64
    28cc:	80 93 46 06 	sts	0x0646, r24	; 0x800646 <__TEXT_REGION_LENGTH__+0x700646>
        LoadModState = LOADMOD_DATA0;
    28d0:	84 e0       	ldi	r24, 0x04	; 4
    28d2:	80 93 ed 20 	sts	0x20ED, r24	; 0x8020ed <LoadModState>

        /* Fetch first byte */
        DataRegister = *CodecBufferPtr;
    28d6:	e0 91 f8 20 	lds	r30, 0x20F8	; 0x8020f8 <CodecBufferPtr>
    28da:	f0 91 f9 20 	lds	r31, 0x20F9	; 0x8020f9 <CodecBufferPtr+0x1>
    28de:	80 81       	ld	r24, Z
    28e0:	80 93 f1 20 	sts	0x20F1, r24	; 0x8020f1 <DataRegister>
        break;
    28e4:	7c c0       	rjmp	.+248    	; 0x29de <__vector_83+0x1b2>

    case LOADMOD_DATA0:
        if (DataRegister & 1) {
    28e6:	80 91 f1 20 	lds	r24, 0x20F1	; 0x8020f1 <DataRegister>
    28ea:	80 ff       	sbrs	r24, 0
    28ec:	04 c0       	rjmp	.+8      	; 0x28f6 <__vector_83+0xca>
        	CODEC_LOADMOD_PORT.OUTSET = CODEC_LOADMOD_MASK;
    28ee:	80 e4       	ldi	r24, 0x40	; 64
    28f0:	80 93 45 06 	sts	0x0645, r24	; 0x800645 <__TEXT_REGION_LENGTH__+0x700645>
    28f4:	03 c0       	rjmp	.+6      	; 0x28fc <__vector_83+0xd0>
        } else {
        	CODEC_LOADMOD_PORT.OUTCLR = CODEC_LOADMOD_MASK;
    28f6:	80 e4       	ldi	r24, 0x40	; 64
    28f8:	80 93 46 06 	sts	0x0646, r24	; 0x800646 <__TEXT_REGION_LENGTH__+0x700646>
        }

        LoadModState = LOADMOD_DATA1;
    28fc:	85 e0       	ldi	r24, 0x05	; 5
    28fe:	6d c0       	rjmp	.+218    	; 0x29da <__vector_83+0x1ae>
        break;

    case LOADMOD_DATA1:
        Temp8 = DataRegister;
    2900:	80 91 f1 20 	lds	r24, 0x20F1	; 0x8020f1 <DataRegister>

        if (Temp8 & 1) {
        	CODEC_LOADMOD_PORT.OUTCLR = CODEC_LOADMOD_MASK;
    2904:	90 e4       	ldi	r25, 0x40	; 64
        break;

    case LOADMOD_DATA1:
        Temp8 = DataRegister;

        if (Temp8 & 1) {
    2906:	80 ff       	sbrs	r24, 0
    2908:	03 c0       	rjmp	.+6      	; 0x2910 <__vector_83+0xe4>
        	CODEC_LOADMOD_PORT.OUTCLR = CODEC_LOADMOD_MASK;
    290a:	90 93 46 06 	sts	0x0646, r25	; 0x800646 <__TEXT_REGION_LENGTH__+0x700646>
    290e:	02 c0       	rjmp	.+4      	; 0x2914 <__vector_83+0xe8>
        } else {
        	CODEC_LOADMOD_PORT.OUTSET = CODEC_LOADMOD_MASK;
    2910:	90 93 45 06 	sts	0x0645, r25	; 0x800645 <__TEXT_REGION_LENGTH__+0x700645>
        }

        DataRegister = Temp8 >> 1;
    2914:	86 95       	lsr	r24
    2916:	80 93 f1 20 	sts	0x20F1, r24	; 0x8020f1 <DataRegister>

        Temp16 = BitSent;
    291a:	80 91 f2 20 	lds	r24, 0x20F2	; 0x8020f2 <BitSent>
    291e:	90 91 f3 20 	lds	r25, 0x20F3	; 0x8020f3 <BitSent+0x1>
        BitSent = ++Temp16;
    2922:	01 96       	adiw	r24, 0x01	; 1
    2924:	80 93 f2 20 	sts	0x20F2, r24	; 0x8020f2 <BitSent>
    2928:	90 93 f3 20 	sts	0x20F3, r25	; 0x8020f3 <BitSent+0x1>

        if ((Temp16 & 0x07) == 0) {
    292c:	9c 01       	movw	r18, r24
    292e:	27 70       	andi	r18, 0x07	; 7
    2930:	33 27       	eor	r19, r19
    2932:	23 2b       	or	r18, r19
    2934:	11 f4       	brne	.+4      	; 0x293a <__vector_83+0x10e>
            /* Byte boundary. Load parity bit and output it later. */
            LoadModState = LOADMOD_PARITY0;
    2936:	86 e0       	ldi	r24, 0x06	; 6
    2938:	50 c0       	rjmp	.+160    	; 0x29da <__vector_83+0x1ae>
            break;
        }

        if (Temp16 == BitCount) {
    293a:	20 91 f4 20 	lds	r18, 0x20F4	; 0x8020f4 <BitCount>
    293e:	30 91 f5 20 	lds	r19, 0x20F5	; 0x8020f5 <BitCount+0x1>
    2942:	82 17       	cp	r24, r18
    2944:	93 07       	cpc	r25, r19
    2946:	f1 f5       	brne	.+124    	; 0x29c4 <__vector_83+0x198>
    2948:	29 c0       	rjmp	.+82     	; 0x299c <__vector_83+0x170>
        LoadModState = LOADMOD_DATA0;

        break;

    case LOADMOD_PARITY0:
        if (*ParityBufferPtr) {
    294a:	e0 91 f6 20 	lds	r30, 0x20F6	; 0x8020f6 <ParityBufferPtr>
    294e:	f0 91 f7 20 	lds	r31, 0x20F7	; 0x8020f7 <ParityBufferPtr+0x1>
    2952:	80 81       	ld	r24, Z
    2954:	88 23       	and	r24, r24
    2956:	21 f0       	breq	.+8      	; 0x2960 <__vector_83+0x134>
        	CODEC_LOADMOD_PORT.OUTSET = CODEC_LOADMOD_MASK;
    2958:	80 e4       	ldi	r24, 0x40	; 64
    295a:	80 93 45 06 	sts	0x0645, r24	; 0x800645 <__TEXT_REGION_LENGTH__+0x700645>
    295e:	03 c0       	rjmp	.+6      	; 0x2966 <__vector_83+0x13a>
        } else {
        	CODEC_LOADMOD_PORT.OUTCLR = CODEC_LOADMOD_MASK;
    2960:	80 e4       	ldi	r24, 0x40	; 64
    2962:	80 93 46 06 	sts	0x0646, r24	; 0x800646 <__TEXT_REGION_LENGTH__+0x700646>
        }

        LoadModState = LOADMOD_PARITY1;
    2966:	87 e0       	ldi	r24, 0x07	; 7
    2968:	38 c0       	rjmp	.+112    	; 0x29da <__vector_83+0x1ae>
        break;

    case LOADMOD_PARITY1:
        if (*ParityBufferPtr) {
    296a:	e0 91 f6 20 	lds	r30, 0x20F6	; 0x8020f6 <ParityBufferPtr>
    296e:	f0 91 f7 20 	lds	r31, 0x20F7	; 0x8020f7 <ParityBufferPtr+0x1>
    2972:	80 81       	ld	r24, Z
    2974:	88 23       	and	r24, r24
    2976:	21 f0       	breq	.+8      	; 0x2980 <__vector_83+0x154>
        	CODEC_LOADMOD_PORT.OUTCLR = CODEC_LOADMOD_MASK;
    2978:	80 e4       	ldi	r24, 0x40	; 64
    297a:	80 93 46 06 	sts	0x0646, r24	; 0x800646 <__TEXT_REGION_LENGTH__+0x700646>
    297e:	03 c0       	rjmp	.+6      	; 0x2986 <__vector_83+0x15a>
        } else {
        	CODEC_LOADMOD_PORT.OUTSET = CODEC_LOADMOD_MASK;
    2980:	80 e4       	ldi	r24, 0x40	; 64
    2982:	80 93 45 06 	sts	0x0645, r24	; 0x800645 <__TEXT_REGION_LENGTH__+0x700645>
        }

        if (BitSent == BitCount) {
    2986:	20 91 f2 20 	lds	r18, 0x20F2	; 0x8020f2 <BitSent>
    298a:	30 91 f3 20 	lds	r19, 0x20F3	; 0x8020f3 <BitSent+0x1>
    298e:	80 91 f4 20 	lds	r24, 0x20F4	; 0x8020f4 <BitCount>
    2992:	90 91 f5 20 	lds	r25, 0x20F5	; 0x8020f5 <BitCount+0x1>
    2996:	28 17       	cp	r18, r24
    2998:	39 07       	cpc	r19, r25
    299a:	11 f4       	brne	.+4      	; 0x29a0 <__vector_83+0x174>
            /* No data left */
            LoadModState = LOADMOD_STOP_BIT0;
    299c:	88 e0       	ldi	r24, 0x08	; 8
    299e:	1d c0       	rjmp	.+58     	; 0x29da <__vector_83+0x1ae>
        } else {
            /* Fetch next data and continue sending bits. */
            ParityBufferPtr++;
    29a0:	31 96       	adiw	r30, 0x01	; 1
    29a2:	e0 93 f6 20 	sts	0x20F6, r30	; 0x8020f6 <ParityBufferPtr>
    29a6:	f0 93 f7 20 	sts	0x20F7, r31	; 0x8020f7 <ParityBufferPtr+0x1>
            DataRegister = *++CodecBufferPtr;
    29aa:	e0 91 f8 20 	lds	r30, 0x20F8	; 0x8020f8 <CodecBufferPtr>
    29ae:	f0 91 f9 20 	lds	r31, 0x20F9	; 0x8020f9 <CodecBufferPtr+0x1>
    29b2:	cf 01       	movw	r24, r30
    29b4:	01 96       	adiw	r24, 0x01	; 1
    29b6:	80 93 f8 20 	sts	0x20F8, r24	; 0x8020f8 <CodecBufferPtr>
    29ba:	90 93 f9 20 	sts	0x20F9, r25	; 0x8020f9 <CodecBufferPtr+0x1>
    29be:	81 81       	ldd	r24, Z+1	; 0x01
    29c0:	80 93 f1 20 	sts	0x20F1, r24	; 0x8020f1 <DataRegister>
            LoadModState = LOADMOD_DATA0;
    29c4:	84 e0       	ldi	r24, 0x04	; 4
    29c6:	09 c0       	rjmp	.+18     	; 0x29da <__vector_83+0x1ae>
        }

        break;

    case LOADMOD_STOP_BIT0:
    	CODEC_LOADMOD_PORT.OUTCLR = CODEC_LOADMOD_MASK;
    29c8:	80 e4       	ldi	r24, 0x40	; 64
    29ca:	80 93 46 06 	sts	0x0646, r24	; 0x800646 <__TEXT_REGION_LENGTH__+0x700646>
        LoadModState = LOADMOD_STOP_BIT1;
    29ce:	89 e0       	ldi	r24, 0x09	; 9
    29d0:	04 c0       	rjmp	.+8      	; 0x29da <__vector_83+0x1ae>
        break;

    case LOADMOD_STOP_BIT1:
    	CODEC_LOADMOD_PORT.OUTCLR = CODEC_LOADMOD_MASK;
    29d2:	80 e4       	ldi	r24, 0x40	; 64
    29d4:	80 93 46 06 	sts	0x0646, r24	; 0x800646 <__TEXT_REGION_LENGTH__+0x700646>
        LoadModState = LOADMOD_FINISHED;
    29d8:	8a e0       	ldi	r24, 0x0A	; 10
    29da:	80 93 ed 20 	sts	0x20ED, r24	; 0x8020ed <LoadModState>
        break;

    default:
        break;
    }
}
    29de:	ff 91       	pop	r31
    29e0:	ef 91       	pop	r30
    29e2:	9f 91       	pop	r25
    29e4:	8f 91       	pop	r24
    29e6:	3f 91       	pop	r19
    29e8:	2f 91       	pop	r18
    29ea:	0f 90       	pop	r0
    29ec:	0f be       	out	0x3f, r0	; 63
    29ee:	0f 90       	pop	r0
    29f0:	1f 90       	pop	r1
    29f2:	18 95       	reti

000029f4 <ISO14443ACodecInit>:

void ISO14443ACodecInit(void) {
    29f4:	cf 93       	push	r28
    29f6:	df 93       	push	r29
static volatile LoadModStateType LoadModState;
static volatile bool SamplePosition;

static void Initialize(void) {
    /* Configure CARRIER input pin and route it to EVSYS */
    CODEC_CARRIER_IN_PORT.DIRCLR = CODEC_CARRIER_IN_MASK;
    29f8:	e0 e4       	ldi	r30, 0x40	; 64
    29fa:	f6 e0       	ldi	r31, 0x06	; 6
    29fc:	84 e0       	ldi	r24, 0x04	; 4
    29fe:	82 83       	std	Z+2, r24	; 0x02
    CODEC_CARRIER_IN_PORT.CODEC_CARRIER_IN_PINCTRL = PORT_ISC_BOTHEDGES_gc;
    2a00:	12 8a       	std	Z+18, r1	; 0x12
    EVSYS.CH6MUX = CODEC_CARRIER_IN_EVMUX;
    2a02:	c0 e8       	ldi	r28, 0x80	; 128
    2a04:	d1 e0       	ldi	r29, 0x01	; 1
    2a06:	82 e6       	ldi	r24, 0x62	; 98
    2a08:	8e 83       	std	Y+6, r24	; 0x06

    /* Configure two DEMOD pins for input.
     * Configure event channel 0 for rising edge (begin of modulation pause)
     * Configure event channel 1 for falling edge (end of modulation pause) */
    CODEC_DEMOD_IN_PORT.DIRCLR = CODEC_DEMOD_IN_MASK;
    2a0a:	a0 e2       	ldi	r26, 0x20	; 32
    2a0c:	b6 e0       	ldi	r27, 0x06	; 6
    2a0e:	85 e0       	ldi	r24, 0x05	; 5
    2a10:	12 96       	adiw	r26, 0x02	; 2
    2a12:	8c 93       	st	X, r24
    2a14:	12 97       	sbiw	r26, 0x02	; 2
    CODEC_DEMOD_IN_PORT.CODEC_DEMOD_IN_PINCTRL0 = PORT_ISC_RISING_gc;
    2a16:	81 e0       	ldi	r24, 0x01	; 1
    2a18:	50 96       	adiw	r26, 0x10	; 16
    2a1a:	8c 93       	st	X, r24
    2a1c:	50 97       	sbiw	r26, 0x10	; 16
    CODEC_DEMOD_IN_PORT.CODEC_DEMOD_IN_PINCTRL1 = PORT_ISC_FALLING_gc;
    2a1e:	82 e0       	ldi	r24, 0x02	; 2
    2a20:	52 96       	adiw	r26, 0x12	; 18
    2a22:	8c 93       	st	X, r24
    2a24:	52 97       	sbiw	r26, 0x12	; 18
    CODEC_DEMOD_IN_PORT.INT0MASK = 0;
    2a26:	1a 96       	adiw	r26, 0x0a	; 10
    2a28:	1c 92       	st	X, r1
    2a2a:	1a 97       	sbiw	r26, 0x0a	; 10
    CODEC_DEMOD_IN_PORT.INTCTRL = PORT_INT0LVL_HI_gc;
    2a2c:	83 e0       	ldi	r24, 0x03	; 3
    2a2e:	19 96       	adiw	r26, 0x09	; 9
    2a30:	8c 93       	st	X, r24
    EVSYS.CH0MUX = CODEC_DEMOD_IN_EVMUX0;
    2a32:	98 e5       	ldi	r25, 0x58	; 88
    2a34:	98 83       	st	Y, r25
    EVSYS.CH1MUX = CODEC_DEMOD_IN_EVMUX1;
    2a36:	9a e5       	ldi	r25, 0x5A	; 90
    2a38:	99 83       	std	Y+1, r25	; 0x01

    /* Configure LOADMOD and SUBCARRIER output pins.
     * Disable PSK modulation by setting pin to low. */
    CODEC_LOADMOD_PORT.DIRSET = CODEC_LOADMOD_MASK;
    2a3a:	90 e4       	ldi	r25, 0x40	; 64
    2a3c:	91 83       	std	Z+1, r25	; 0x01
    CODEC_LOADMOD_PORT.OUTCLR = CODEC_LOADMOD_MASK;
    2a3e:	96 83       	std	Z+6, r25	; 0x06
    CODEC_SUBCARRIER_PORT.DIRSET = CODEC_SUBCARRIER_MASK;
    2a40:	81 83       	std	Z+1, r24	; 0x01
    CODEC_SUBCARRIER_PORT.OUTCLR = CODEC_SUBCARRIER_MASK;
    2a42:	86 83       	std	Z+6, r24	; 0x06

    /* Configure subcarrier generation with 50% DC output using OOK */
    CODEC_SUBCARRIER_TIMER.PER = ISO14443A_SUBCARRIER_DIVIDER - 1;
    2a44:	e0 e0       	ldi	r30, 0x00	; 0
    2a46:	f8 e0       	ldi	r31, 0x08	; 8
    2a48:	8f e0       	ldi	r24, 0x0F	; 15
    2a4a:	90 e0       	ldi	r25, 0x00	; 0
    2a4c:	86 a3       	std	Z+38, r24	; 0x26
    2a4e:	97 a3       	std	Z+39, r25	; 0x27
    CODEC_SUBCARRIER_TIMER.CODEC_SUBCARRIER_CC_OOK = ISO14443A_SUBCARRIER_DIVIDER/2;
    2a50:	88 e0       	ldi	r24, 0x08	; 8
    2a52:	90 e0       	ldi	r25, 0x00	; 0
    2a54:	82 a7       	std	Z+42, r24	; 0x2a
    2a56:	93 a7       	std	Z+43, r25	; 0x2b
    CODEC_SUBCARRIER_TIMER.CTRLB = CODEC_SUBCARRIER_CCEN_OOK | TC_WGMODE_SINGLESLOPE_gc;
    2a58:	83 e2       	ldi	r24, 0x23	; 35
    2a5a:	81 83       	std	Z+1, r24	; 0x01
void ISO14443ACodecInit(void) {
    /* Initialize common peripherals and start listening
     * for incoming data. */
    Initialize();
    StartDemod();
}
    2a5c:	df 91       	pop	r29
    2a5e:	cf 91       	pop	r28

void ISO14443ACodecInit(void) {
    /* Initialize common peripherals and start listening
     * for incoming data. */
    Initialize();
    StartDemod();
    2a60:	e8 cd       	rjmp	.-1072   	; 0x2632 <StartDemod>

00002a62 <ISO14443ACodecTask>:
}

void ISO14443ACodecTask(void) {
    2a62:	cf 93       	push	r28
    2a64:	df 93       	push	r29
    if (Flags.DemodFinished) {
    2a66:	80 91 fa 20 	lds	r24, 0x20FA	; 0x8020fa <Flags>
    2a6a:	88 23       	and	r24, r24
    2a6c:	09 f4       	brne	.+2      	; 0x2a70 <ISO14443ACodecTask+0xe>
    2a6e:	5c c0       	rjmp	.+184    	; 0x2b28 <ISO14443ACodecTask+0xc6>
        Flags.DemodFinished = 0;
    2a70:	10 92 fa 20 	sts	0x20FA, r1	; 0x8020fa <Flags>
INLINE void CodecTask(void) {
    ActiveConfiguration.CodecTaskFunc();
}

INLINE void CodecSetDemodPower(bool bOnOff) {
    CODEC_DEMOD_POWER_PORT.DIRSET = CODEC_DEMOD_POWER_MASK;
    2a74:	82 e0       	ldi	r24, 0x02	; 2
    2a76:	80 93 21 06 	sts	0x0621, r24	; 0x800621 <__TEXT_REGION_LENGTH__+0x700621>

    if (bOnOff) {
        CODEC_DEMOD_POWER_PORT.OUTSET = CODEC_DEMOD_POWER_MASK;
    } else {
        CODEC_DEMOD_POWER_PORT.OUTCLR = CODEC_DEMOD_POWER_MASK;
    2a7a:	80 93 26 06 	sts	0x0626, r24	; 0x800626 <__TEXT_REGION_LENGTH__+0x700626>
        /* Reception finished. Process the received bytes */
        CodecSetDemodPower(false);

        uint16_t DemodBitCount = BitCount;
    2a7e:	60 91 f4 20 	lds	r22, 0x20F4	; 0x8020f4 <BitCount>
    2a82:	70 91 f5 20 	lds	r23, 0x20F5	; 0x8020f5 <BitCount+0x1>
        uint16_t AnswerBitCount = ISO14443A_APP_NO_RESPONSE;

        if (DemodBitCount > 0) {
    2a86:	61 15       	cp	r22, r1
    2a88:	71 05       	cpc	r23, r1
    2a8a:	49 f1       	breq	.+82     	; 0x2ade <ISO14443ACodecTask+0x7c>
INLINE void ApplicationTick(void) {
    ActiveConfiguration.ApplicationTickFunc();
}

INLINE uint16_t ApplicationProcess(uint8_t* ByteBuffer, uint16_t ByteCount) {
    return ActiveConfiguration.ApplicationProcessFunc(ByteBuffer, ByteCount);
    2a8c:	e0 91 48 21 	lds	r30, 0x2148	; 0x802148 <ActiveConfiguration+0xe>
    2a90:	f0 91 49 21 	lds	r31, 0x2149	; 0x802149 <ActiveConfiguration+0xf>
    2a94:	82 e5       	ldi	r24, 0x52	; 82
    2a96:	92 e2       	ldi	r25, 0x22	; 34
    2a98:	09 95       	icall

            /* Call application if we received data */
            AnswerBitCount = ApplicationProcess(CodecBuffer, DemodBitCount);
					    //for(uint16_t i=0;i<=DemodBitCount/8;i++)
					    //uart_putc_hex(CodecBuffer[i]);
            if (AnswerBitCount & ISO14443A_APP_CUSTOM_PARITY) {
    2a9a:	94 fd       	sbrc	r25, 4
    2a9c:	08 c0       	rjmp	.+16     	; 0x2aae <ISO14443ACodecTask+0x4c>
                /* Application has generated it's own parity bits.
                 * Clear this option bit. */
                AnswerBitCount &= ~ISO14443A_APP_CUSTOM_PARITY;
            } else {
                /* We have to generate the parity bits ourself */
                for (uint8_t i = 0; i < (AnswerBitCount / 8); i++) {
    2a9e:	dc 01       	movw	r26, r24
    2aa0:	23 e0       	ldi	r18, 0x03	; 3
    2aa2:	b6 95       	lsr	r27
    2aa4:	a7 95       	ror	r26
    2aa6:	2a 95       	dec	r18
    2aa8:	e1 f7       	brne	.-8      	; 0x2aa2 <ISO14443ACodecTask+0x40>
    2aaa:	40 e0       	ldi	r20, 0x00	; 0
    2aac:	02 c0       	rjmp	.+4      	; 0x2ab2 <ISO14443ACodecTask+0x50>
					    //for(uint16_t i=0;i<=DemodBitCount/8;i++)
					    //uart_putc_hex(CodecBuffer[i]);
            if (AnswerBitCount & ISO14443A_APP_CUSTOM_PARITY) {
                /* Application has generated it's own parity bits.
                 * Clear this option bit. */
                AnswerBitCount &= ~ISO14443A_APP_CUSTOM_PARITY;
    2aae:	9f 7e       	andi	r25, 0xEF	; 239
    2ab0:	1c c0       	rjmp	.+56     	; 0x2aea <ISO14443ACodecTask+0x88>
            } else {
                /* We have to generate the parity bits ourself */
                for (uint8_t i = 0; i < (AnswerBitCount / 8); i++) {
    2ab2:	24 2f       	mov	r18, r20
    2ab4:	30 e0       	ldi	r19, 0x00	; 0
    2ab6:	2a 17       	cp	r18, r26
    2ab8:	3b 07       	cpc	r19, r27
    2aba:	b8 f4       	brcc	.+46     	; 0x2aea <ISO14443ACodecTask+0x88>
                    /* For each whole byte, generate a parity bit. */
                    CodecBuffer[ISO14443A_BUFFER_PARITY_OFFSET + i] = ODD_PARITY(CodecBuffer[i]);
    2abc:	b9 01       	movw	r22, r18
    2abe:	60 58       	subi	r22, 0x80	; 128
    2ac0:	7f 4f       	sbci	r23, 0xFF	; 255
    2ac2:	f9 01       	movw	r30, r18
    2ac4:	ee 5a       	subi	r30, 0xAE	; 174
    2ac6:	fd 4d       	sbci	r31, 0xDD	; 221

INLINE uint8_t OddParityBit(uint8_t Byte)
{
    extern const uint8_t PROGMEM OddParityByteTable[];

    return pgm_read_byte(&OddParityByteTable[Byte]);
    2ac8:	e0 81       	ld	r30, Z
    2aca:	f0 e0       	ldi	r31, 0x00	; 0
    2acc:	e9 5e       	subi	r30, 0xE9	; 233
    2ace:	fb 4f       	sbci	r31, 0xFB	; 251
    2ad0:	e4 91       	lpm	r30, Z
    2ad2:	eb 01       	movw	r28, r22
    2ad4:	ce 5a       	subi	r28, 0xAE	; 174
    2ad6:	dd 4d       	sbci	r29, 0xDD	; 221
    2ad8:	e8 83       	st	Y, r30
                /* Application has generated it's own parity bits.
                 * Clear this option bit. */
                AnswerBitCount &= ~ISO14443A_APP_CUSTOM_PARITY;
            } else {
                /* We have to generate the parity bits ourself */
                for (uint8_t i = 0; i < (AnswerBitCount / 8); i++) {
    2ada:	4f 5f       	subi	r20, 0xFF	; 255
    2adc:	ea cf       	rjmp	.-44     	; 0x2ab2 <ISO14443ACodecTask+0x50>
}

INLINE void ApplicationReset(void) {
    ActiveConfiguration.ApplicationResetFunc();
    2ade:	e0 91 42 21 	lds	r30, 0x2142	; 0x802142 <ActiveConfiguration+0x8>
    2ae2:	f0 91 43 21 	lds	r31, 0x2143	; 0x802143 <ActiveConfiguration+0x9>
    2ae6:	09 95       	icall
    2ae8:	1a c0       	rjmp	.+52     	; 0x2b1e <ISO14443ACodecTask+0xbc>
            }
        } else {
            ApplicationReset();
        }

        if (AnswerBitCount != ISO14443A_APP_NO_RESPONSE) {
    2aea:	00 97       	sbiw	r24, 0x00	; 0
    2aec:	c1 f0       	breq	.+48     	; 0x2b1e <ISO14443ACodecTask+0xbc>
            BitCount = AnswerBitCount;
    2aee:	80 93 f4 20 	sts	0x20F4, r24	; 0x8020f4 <BitCount>
    2af2:	90 93 f5 20 	sts	0x20F5, r25	; 0x8020f5 <BitCount+0x1>
            BitSent = 0;
    2af6:	10 92 f2 20 	sts	0x20F2, r1	; 0x8020f2 <BitSent>
    2afa:	10 92 f3 20 	sts	0x20F3, r1	; 0x8020f3 <BitSent+0x1>
            CodecBufferPtr = CodecBuffer;
    2afe:	82 e5       	ldi	r24, 0x52	; 82
    2b00:	92 e2       	ldi	r25, 0x22	; 34
    2b02:	80 93 f8 20 	sts	0x20F8, r24	; 0x8020f8 <CodecBufferPtr>
    2b06:	90 93 f9 20 	sts	0x20F9, r25	; 0x8020f9 <CodecBufferPtr+0x1>
            ParityBufferPtr = &CodecBuffer[ISO14443A_BUFFER_PARITY_OFFSET];
    2b0a:	82 ed       	ldi	r24, 0xD2	; 210
    2b0c:	92 e2       	ldi	r25, 0x22	; 34
    2b0e:	80 93 f6 20 	sts	0x20F6, r24	; 0x8020f6 <ParityBufferPtr>
    2b12:	90 93 f7 20 	sts	0x20F7, r25	; 0x8020f7 <ParityBufferPtr+0x1>
            LoadModState = LOADMOD_START;
    2b16:	81 e0       	ldi	r24, 0x01	; 1
    2b18:	80 93 ed 20 	sts	0x20ED, r24	; 0x8020ed <LoadModState>
    2b1c:	05 c0       	rjmp	.+10     	; 0x2b28 <ISO14443ACodecTask+0xc6>
        } else {
            /* No data to be processed. Disable loadmodding and start listening again */
            CODEC_TIMER_LOADMOD.CTRLA = TC_CLKSEL_OFF_gc;
    2b1e:	10 92 40 09 	sts	0x0940, r1	; 0x800940 <__TEXT_REGION_LENGTH__+0x700940>
            CODEC_TIMER_LOADMOD.INTCTRLA = 0;
    2b22:	10 92 46 09 	sts	0x0946, r1	; 0x800946 <__TEXT_REGION_LENGTH__+0x700946>

            StartDemod();
    2b26:	85 dd       	rcall	.-1270   	; 0x2632 <StartDemod>
        }
    }

    if (Flags.LoadmodFinished) {
    2b28:	80 91 fb 20 	lds	r24, 0x20FB	; 0x8020fb <Flags+0x1>
    2b2c:	88 23       	and	r24, r24
    2b2e:	29 f0       	breq	.+10     	; 0x2b3a <ISO14443ACodecTask+0xd8>
        Flags.LoadmodFinished = 0;
    2b30:	10 92 fb 20 	sts	0x20FB, r1	; 0x8020fb <Flags+0x1>
        /* Load modulation has been finished. Stop it and start to listen
         * for incoming data again. */
        StartDemod();
    }
}
    2b34:	df 91       	pop	r29
    2b36:	cf 91       	pop	r28

    if (Flags.LoadmodFinished) {
        Flags.LoadmodFinished = 0;
        /* Load modulation has been finished. Stop it and start to listen
         * for incoming data again. */
        StartDemod();
    2b38:	7c cd       	rjmp	.-1288   	; 0x2632 <StartDemod>
    }
}
    2b3a:	df 91       	pop	r29
    2b3c:	cf 91       	pop	r28
    2b3e:	08 95       	ret

00002b40 <VerifyAuthentication>:
{

}

static bool VerifyAuthentication(uint8_t PageAddress)
{
    2b40:	28 2f       	mov	r18, r24
    /* No authentication for EV0 cards; always pass */
    if (Flavor < UL_EV1) {
    2b42:	80 91 04 21 	lds	r24, 0x2104	; 0x802104 <Flavor>
    2b46:	88 23       	and	r24, r24
    2b48:	59 f0       	breq	.+22     	; 0x2b60 <VerifyAuthentication+0x20>
        return true;
    }
    /* If authenticated, no verification needed */
    if (Authenticated) {
    2b4a:	80 91 fe 20 	lds	r24, 0x20FE	; 0x8020fe <Authenticated>
    2b4e:	81 11       	cpse	r24, r1
    2b50:	08 c0       	rjmp	.+16     	; 0x2b62 <VerifyAuthentication+0x22>
        return true;
    }
    /* Otherwise, verify the accessed page is below the limit */
    return PageAddress < FirstAuthenticatedPage;
    2b52:	81 e0       	ldi	r24, 0x01	; 1
    2b54:	90 91 fd 20 	lds	r25, 0x20FD	; 0x8020fd <FirstAuthenticatedPage>
    2b58:	29 17       	cp	r18, r25
    2b5a:	18 f0       	brcs	.+6      	; 0x2b62 <VerifyAuthentication+0x22>
    2b5c:	80 e0       	ldi	r24, 0x00	; 0
    2b5e:	08 95       	ret

static bool VerifyAuthentication(uint8_t PageAddress)
{
    /* No authentication for EV0 cards; always pass */
    if (Flavor < UL_EV1) {
        return true;
    2b60:	81 e0       	ldi	r24, 0x01	; 1
    if (Authenticated) {
        return true;
    }
    /* Otherwise, verify the accessed page is below the limit */
    return PageAddress < FirstAuthenticatedPage;
}
    2b62:	08 95       	ret

00002b64 <AppInitEV1Common>:
    ReadAccessProtected = false;
    AppInitCommon();
}

static void AppInitEV1Common(void)
{
    2b64:	ff 92       	push	r15
    2b66:	0f 93       	push	r16
    2b68:	1f 93       	push	r17
    2b6a:	cf 93       	push	r28
    2b6c:	df 93       	push	r29
    2b6e:	1f 92       	push	r1
    2b70:	cd b7       	in	r28, 0x3d	; 61
    2b72:	de b7       	in	r29, 0x3e	; 62
    uint8_t ConfigAreaAddress = PageCount * MIFARE_ULTRALIGHT_PAGE_SIZE - CONFIG_AREA_SIZE;
    2b74:	00 91 01 21 	lds	r16, 0x2101	; 0x802101 <PageCount>
    2b78:	00 0f       	add	r16, r16
    2b7a:	00 0f       	add	r16, r16
    2b7c:	00 51       	subi	r16, 0x10	; 16
    uint8_t Access;

    /* Set up the emulation flavor */
    Flavor = UL_EV1;
    2b7e:	ff 24       	eor	r15, r15
    2b80:	f3 94       	inc	r15
    2b82:	f0 92 04 21 	sts	0x2104, r15	; 0x802104 <Flavor>
    /* Fetch some of the configuration into RAM */
    MemoryReadBlock(&FirstAuthenticatedPage, ConfigAreaAddress + CONF_AUTH0_OFFSET, 1);
    2b86:	10 e0       	ldi	r17, 0x00	; 0
    2b88:	b8 01       	movw	r22, r16
    2b8a:	6d 5f       	subi	r22, 0xFD	; 253
    2b8c:	7f 4f       	sbci	r23, 0xFF	; 255
    2b8e:	41 e0       	ldi	r20, 0x01	; 1
    2b90:	50 e0       	ldi	r21, 0x00	; 0
    2b92:	8d ef       	ldi	r24, 0xFD	; 253
    2b94:	90 e2       	ldi	r25, 0x20	; 32
    2b96:	0e 94 7c 08 	call	0x10f8	; 0x10f8 <MemoryReadBlock>
    MemoryReadBlock(&Access, ConfigAreaAddress + CONF_ACCESS_OFFSET, 1);
    2b9a:	b8 01       	movw	r22, r16
    2b9c:	6c 5f       	subi	r22, 0xFC	; 252
    2b9e:	7f 4f       	sbci	r23, 0xFF	; 255
    2ba0:	41 e0       	ldi	r20, 0x01	; 1
    2ba2:	50 e0       	ldi	r21, 0x00	; 0
    2ba4:	ce 01       	movw	r24, r28
    2ba6:	01 96       	adiw	r24, 0x01	; 1
    2ba8:	0e 94 7c 08 	call	0x10f8	; 0x10f8 <MemoryReadBlock>
    ReadAccessProtected = !!(Access & CONF_ACCESS_PROT);
    2bac:	89 81       	ldd	r24, Y+1	; 0x01
    2bae:	88 1f       	adc	r24, r24
    2bb0:	88 27       	eor	r24, r24
    2bb2:	88 1f       	adc	r24, r24
    2bb4:	80 93 fc 20 	sts	0x20FC, r24	; 0x8020fc <ReadAccessProtected>
static uint8_t FirstAuthenticatedPage;
static bool ReadAccessProtected;

static void AppInitCommon(void)
{
    State = STATE_IDLE;
    2bb8:	f0 92 03 21 	sts	0x2103, r15	; 0x802103 <State>
    FromHalt = false;
    2bbc:	10 92 02 21 	sts	0x2102, r1	; 0x802102 <FromHalt>
    Authenticated = false;
    2bc0:	10 92 fe 20 	sts	0x20FE, r1	; 0x8020fe <Authenticated>
    ArmedForCompatWrite = false;
    2bc4:	10 92 00 21 	sts	0x2100, r1	; 0x802100 <ArmedForCompatWrite>
    /* Fetch some of the configuration into RAM */
    MemoryReadBlock(&FirstAuthenticatedPage, ConfigAreaAddress + CONF_AUTH0_OFFSET, 1);
    MemoryReadBlock(&Access, ConfigAreaAddress + CONF_ACCESS_OFFSET, 1);
    ReadAccessProtected = !!(Access & CONF_ACCESS_PROT);
    AppInitCommon();
}
    2bc8:	0f 90       	pop	r0
    2bca:	df 91       	pop	r29
    2bcc:	cf 91       	pop	r28
    2bce:	1f 91       	pop	r17
    2bd0:	0f 91       	pop	r16
    2bd2:	ff 90       	pop	r15
    2bd4:	08 95       	ret

00002bd6 <MifareUltralightAppInit>:
}

void MifareUltralightAppInit(void)
{
    /* Set up the emulation flavor */
    Flavor = UL_EV0;
    2bd6:	10 92 04 21 	sts	0x2104, r1	; 0x802104 <Flavor>
    /* EV0 cards have fixed size */
    PageCount = MIFARE_ULTRALIGHT_PAGES;
    2bda:	80 e1       	ldi	r24, 0x10	; 16
    2bdc:	80 93 01 21 	sts	0x2101, r24	; 0x802101 <PageCount>
    /* Default values */
    FirstAuthenticatedPage = 0xFF;
    2be0:	8f ef       	ldi	r24, 0xFF	; 255
    2be2:	80 93 fd 20 	sts	0x20FD, r24	; 0x8020fd <FirstAuthenticatedPage>
    ReadAccessProtected = false;
    2be6:	10 92 fc 20 	sts	0x20FC, r1	; 0x8020fc <ReadAccessProtected>
static uint8_t FirstAuthenticatedPage;
static bool ReadAccessProtected;

static void AppInitCommon(void)
{
    State = STATE_IDLE;
    2bea:	81 e0       	ldi	r24, 0x01	; 1
    2bec:	80 93 03 21 	sts	0x2103, r24	; 0x802103 <State>
    FromHalt = false;
    2bf0:	10 92 02 21 	sts	0x2102, r1	; 0x802102 <FromHalt>
    Authenticated = false;
    2bf4:	10 92 fe 20 	sts	0x20FE, r1	; 0x8020fe <Authenticated>
    ArmedForCompatWrite = false;
    2bf8:	10 92 00 21 	sts	0x2100, r1	; 0x802100 <ArmedForCompatWrite>
    2bfc:	08 95       	ret

00002bfe <MifareUltralightEV11AppInit>:
    AppInitCommon();
}

void MifareUltralightEV11AppInit(void)
{
    PageCount = MIFARE_ULTRALIGHT_EV11_PAGES;
    2bfe:	84 e1       	ldi	r24, 0x14	; 20
    2c00:	80 93 01 21 	sts	0x2101, r24	; 0x802101 <PageCount>
    AppInitEV1Common();
    2c04:	af cf       	rjmp	.-162    	; 0x2b64 <AppInitEV1Common>

00002c06 <MifareUltralightEV12AppInit>:
}

void MifareUltralightEV12AppInit(void)
{
    PageCount = MIFARE_ULTRALIGHT_EV12_PAGES;
    2c06:	89 e2       	ldi	r24, 0x29	; 41
    2c08:	80 93 01 21 	sts	0x2101, r24	; 0x802101 <PageCount>
    AppInitEV1Common();
    2c0c:	ab cf       	rjmp	.-170    	; 0x2b64 <AppInitEV1Common>

00002c0e <MifareUltralightAppReset>:
}

void MifareUltralightAppReset(void)
{
    State = STATE_IDLE;
    2c0e:	81 e0       	ldi	r24, 0x01	; 1
    2c10:	80 93 03 21 	sts	0x2103, r24	; 0x802103 <State>
    2c14:	08 95       	ret

00002c16 <MifareUltralightAppTask>:
}

void MifareUltralightAppTask(void)
{
    2c16:	08 95       	ret

00002c18 <MifareUltralightAppProcess>:
    State = STATE_IDLE;
    return ISO14443A_APP_NO_RESPONSE;
}

uint16_t MifareUltralightAppProcess(uint8_t* Buffer, uint16_t BitCount)
{
    2c18:	8f 92       	push	r8
    2c1a:	9f 92       	push	r9
    2c1c:	af 92       	push	r10
    2c1e:	bf 92       	push	r11
    2c20:	cf 92       	push	r12
    2c22:	df 92       	push	r13
    2c24:	ef 92       	push	r14
    2c26:	ff 92       	push	r15
    2c28:	0f 93       	push	r16
    2c2a:	1f 93       	push	r17
    2c2c:	cf 93       	push	r28
    2c2e:	df 93       	push	r29
    2c30:	cd b7       	in	r28, 0x3d	; 61
    2c32:	de b7       	in	r29, 0x3e	; 62
    2c34:	25 97       	sbiw	r28, 0x05	; 5
    2c36:	cd bf       	out	0x3d, r28	; 61
    2c38:	de bf       	out	0x3e, r29	; 62
    2c3a:	8c 01       	movw	r16, r24
    uint8_t Cmd = Buffer[0];
    2c3c:	fc 01       	movw	r30, r24
    2c3e:	80 81       	ld	r24, Z
    uint16_t ByteCount;

    switch(State) {
    2c40:	90 91 03 21 	lds	r25, 0x2103	; 0x802103 <State>
    2c44:	92 30       	cpi	r25, 0x02	; 2
    2c46:	e9 f0       	breq	.+58     	; 0x2c82 <MifareUltralightAppProcess+0x6a>
    2c48:	28 f0       	brcs	.+10     	; 0x2c54 <MifareUltralightAppProcess+0x3c>
    2c4a:	93 30       	cpi	r25, 0x03	; 3
    2c4c:	19 f1       	breq	.+70     	; 0x2c94 <MifareUltralightAppProcess+0x7c>
    2c4e:	94 30       	cpi	r25, 0x04	; 4
    2c50:	59 f1       	breq	.+86     	; 0x2ca8 <MifareUltralightAppProcess+0x90>
    2c52:	4f c0       	rjmp	.+158    	; 0x2cf2 <MifareUltralightAppProcess+0xda>
    2c54:	21 e0       	ldi	r18, 0x01	; 1
    2c56:	92 27       	eor	r25, r18
    case STATE_IDLE:
    case STATE_HALT:
        FromHalt = State == STATE_HALT;
    2c58:	29 2f       	mov	r18, r25
    2c5a:	21 70       	andi	r18, 0x01	; 1
    2c5c:	20 93 02 21 	sts	0x2102, r18	; 0x802102 <FromHalt>
INLINE
bool ISO14443AWakeUp(void* Buffer, uint16_t* BitCount, uint16_t ATQAValue, bool FromHalt)
{
    uint8_t* DataPtr = (uint8_t*) Buffer;

    if ( ((! FromHalt) && (DataPtr[0] == ISO14443A_CMD_REQA)) ||
    2c60:	91 11       	cpse	r25, r1
    2c62:	02 c0       	rjmp	.+4      	; 0x2c68 <MifareUltralightAppProcess+0x50>
    2c64:	86 32       	cpi	r24, 0x26	; 38
    2c66:	19 f0       	breq	.+6      	; 0x2c6e <MifareUltralightAppProcess+0x56>
    2c68:	82 35       	cpi	r24, 0x52	; 82
    2c6a:	09 f0       	breq	.+2      	; 0x2c6e <MifareUltralightAppProcess+0x56>
    2c6c:	42 c0       	rjmp	.+132    	; 0x2cf2 <MifareUltralightAppProcess+0xda>
         (DataPtr[0] == ISO14443A_CMD_WUPA) ){
        DataPtr[0] = (ATQAValue >> 0) & 0x00FF;
    2c6e:	84 e4       	ldi	r24, 0x44	; 68
    2c70:	f8 01       	movw	r30, r16
    2c72:	80 83       	st	Z, r24
        DataPtr[1] = (ATQAValue >> 8) & 0x00FF;
    2c74:	11 82       	std	Z+1, r1	; 0x01
        if (ISO14443AWakeUp(Buffer, &BitCount, ATQA_VALUE, FromHalt)) {
            /* We received a REQA or WUPA command, so wake up. */
            State = STATE_READY1;
    2c76:	82 e0       	ldi	r24, 0x02	; 2
    2c78:	80 93 03 21 	sts	0x2103, r24	; 0x802103 <State>

        *BitCount = ISO14443A_ATQA_FRAME_SIZE;
    2c7c:	80 e1       	ldi	r24, 0x10	; 16
    2c7e:	90 e0       	ldi	r25, 0x00	; 0
            return BitCount;
    2c80:	e1 c2       	rjmp	.+1474   	; 0x3244 <__stack+0x245>
        }
        break;

    case STATE_READY1:
        if (ISO14443AWakeUp(Buffer, &BitCount, ATQA_VALUE, FromHalt)) {
    2c82:	90 91 02 21 	lds	r25, 0x2102	; 0x802102 <FromHalt>
INLINE
bool ISO14443AWakeUp(void* Buffer, uint16_t* BitCount, uint16_t ATQAValue, bool FromHalt)
{
    uint8_t* DataPtr = (uint8_t*) Buffer;

    if ( ((! FromHalt) && (DataPtr[0] == ISO14443A_CMD_REQA)) ||
    2c86:	91 11       	cpse	r25, r1
    2c88:	02 c0       	rjmp	.+4      	; 0x2c8e <MifareUltralightAppProcess+0x76>
    2c8a:	86 32       	cpi	r24, 0x26	; 38
    2c8c:	b1 f0       	breq	.+44     	; 0x2cba <MifareUltralightAppProcess+0xa2>
    2c8e:	82 35       	cpi	r24, 0x52	; 82
    2c90:	99 f5       	brne	.+102    	; 0x2cf8 <MifareUltralightAppProcess+0xe0>
    2c92:	13 c0       	rjmp	.+38     	; 0x2cba <MifareUltralightAppProcess+0xa2>
            State = STATE_IDLE;
        }
        break;

    case STATE_READY2:
        if (ISO14443AWakeUp(Buffer, &BitCount, ATQA_VALUE, FromHalt)) {
    2c94:	90 91 02 21 	lds	r25, 0x2102	; 0x802102 <FromHalt>
    2c98:	91 11       	cpse	r25, r1
    2c9a:	02 c0       	rjmp	.+4      	; 0x2ca0 <MifareUltralightAppProcess+0x88>
    2c9c:	86 32       	cpi	r24, 0x26	; 38
    2c9e:	69 f0       	breq	.+26     	; 0x2cba <MifareUltralightAppProcess+0xa2>
    2ca0:	82 35       	cpi	r24, 0x52	; 82
    2ca2:	09 f0       	breq	.+2      	; 0x2ca6 <MifareUltralightAppProcess+0x8e>
    2ca4:	5b c0       	rjmp	.+182    	; 0x2d5c <MifareUltralightAppProcess+0x144>
    2ca6:	09 c0       	rjmp	.+18     	; 0x2cba <MifareUltralightAppProcess+0xa2>
        break;

    case STATE_ACTIVE:
        /* Preserve incoming data length */
        ByteCount = (BitCount + 7) >> 3;
        if (ISO14443AWakeUp(Buffer, &BitCount, ATQA_VALUE, FromHalt)) {
    2ca8:	90 91 02 21 	lds	r25, 0x2102	; 0x802102 <FromHalt>
    2cac:	91 11       	cpse	r25, r1
    2cae:	02 c0       	rjmp	.+4      	; 0x2cb4 <MifareUltralightAppProcess+0x9c>
    2cb0:	86 32       	cpi	r24, 0x26	; 38
    2cb2:	19 f0       	breq	.+6      	; 0x2cba <MifareUltralightAppProcess+0xa2>
    2cb4:	82 35       	cpi	r24, 0x52	; 82
    2cb6:	09 f0       	breq	.+2      	; 0x2cba <MifareUltralightAppProcess+0xa2>
    2cb8:	f2 c0       	rjmp	.+484    	; 0x2e9e <MifareUltralightAppProcess+0x286>
         (DataPtr[0] == ISO14443A_CMD_WUPA) ){
        DataPtr[0] = (ATQAValue >> 0) & 0x00FF;
    2cba:	84 e4       	ldi	r24, 0x44	; 68
    2cbc:	f8 01       	movw	r30, r16
    2cbe:	80 83       	st	Z, r24
        DataPtr[1] = (ATQAValue >> 8) & 0x00FF;
    2cc0:	11 82       	std	Z+1, r1	; 0x01
            State = FromHalt ? STATE_HALT : STATE_IDLE;
    2cc2:	81 e0       	ldi	r24, 0x01	; 1
    2cc4:	89 27       	eor	r24, r25
    2cc6:	13 c0       	rjmp	.+38     	; 0x2cee <MifareUltralightAppProcess+0xd6>
}

/* Handles processing of MF commands */
static uint16_t AppProcess(uint8_t* const Buffer, uint16_t ByteCount)
{
    uint8_t Cmd = Buffer[0];
    2cc8:	f8 01       	movw	r30, r16
    2cca:	80 81       	ld	r24, Z

    /* Handle the compatibility write command */
    if (ArmedForCompatWrite) {
    2ccc:	90 91 00 21 	lds	r25, 0x2100	; 0x802100 <ArmedForCompatWrite>
    2cd0:	91 11       	cpse	r25, r1
    2cd2:	f9 c0       	rjmp	.+498    	; 0x2ec6 <MifareUltralightAppProcess+0x2ae>
        Buffer[0] = ACK_VALUE;
        return ACK_FRAME_SIZE;
    }

    /* Handle EV0 commands */
    switch (Cmd) {
    2cd4:	80 35       	cpi	r24, 0x50	; 80
    2cd6:	09 f4       	brne	.+2      	; 0x2cda <MifareUltralightAppProcess+0xc2>
    2cd8:	74 c1       	rjmp	.+744    	; 0x2fc2 <MifareUltralightAppProcess+0x3aa>
    2cda:	08 f0       	brcs	.+2      	; 0x2cde <MifareUltralightAppProcess+0xc6>
    2cdc:	05 c1       	rjmp	.+522    	; 0x2ee8 <MifareUltralightAppProcess+0x2d0>
    2cde:	80 33       	cpi	r24, 0x30	; 48
    2ce0:	09 f4       	brne	.+2      	; 0x2ce4 <MifareUltralightAppProcess+0xcc>
    2ce2:	08 c1       	rjmp	.+528    	; 0x2ef4 <MifareUltralightAppProcess+0x2dc>
        }
        default:
            break;
    }
    /* Handle EV1 commands */
    if (Flavor >= UL_EV1) {
    2ce4:	90 91 04 21 	lds	r25, 0x2104	; 0x802104 <Flavor>
    2ce8:	91 11       	cpse	r25, r1
    2cea:	72 c1       	rjmp	.+740    	; 0x2fd0 <MifareUltralightAppProcess+0x3b8>
            default:
                break;
        }
    }
    /* Command not handled. Switch to idle. */
    State = STATE_IDLE;
    2cec:	81 e0       	ldi	r24, 0x01	; 1
    2cee:	80 93 03 21 	sts	0x2103, r24	; 0x802103 <State>
        /* Unknown state? Should never happen. */
        break;
    }

    /* No response has been sent, when we reach here */
    return ISO14443A_APP_NO_RESPONSE;
    2cf2:	80 e0       	ldi	r24, 0x00	; 0
    2cf4:	90 e0       	ldi	r25, 0x00	; 0
    2cf6:	a6 c2       	rjmp	.+1356   	; 0x3244 <__stack+0x245>

    case STATE_READY1:
        if (ISO14443AWakeUp(Buffer, &BitCount, ATQA_VALUE, FromHalt)) {
            State = FromHalt ? STATE_HALT : STATE_IDLE;
            return ISO14443A_APP_NO_RESPONSE;
        } else if (Cmd == ISO14443A_CMD_SELECT_CL1) {
    2cf8:	83 39       	cpi	r24, 0x93	; 147
    2cfa:	c1 f7       	brne	.-16     	; 0x2cec <MifareUltralightAppProcess+0xd4>
            /* Load UID CL1 and perform anticollision. Since
            * MF Ultralight use a double-sized UID, the first byte
            * of CL1 has to be the cascade-tag byte. */
            uint8_t UidCL1[ISO14443A_CL_UID_SIZE] = { [0] = ISO14443A_UID0_CT };
    2cfc:	19 82       	std	Y+1, r1	; 0x01
    2cfe:	1a 82       	std	Y+2, r1	; 0x02
    2d00:	1b 82       	std	Y+3, r1	; 0x03
    2d02:	1c 82       	std	Y+4, r1	; 0x04
    2d04:	88 e8       	ldi	r24, 0x88	; 136
    2d06:	89 83       	std	Y+1, r24	; 0x01

            MemoryReadBlock(&UidCL1[1], UID_CL1_ADDRESS, UID_CL1_SIZE);
    2d08:	43 e0       	ldi	r20, 0x03	; 3
    2d0a:	50 e0       	ldi	r21, 0x00	; 0
    2d0c:	60 e0       	ldi	r22, 0x00	; 0
    2d0e:	70 e0       	ldi	r23, 0x00	; 0
    2d10:	ce 01       	movw	r24, r28
    2d12:	02 96       	adiw	r24, 0x02	; 2
    2d14:	0e 94 7c 08 	call	0x10f8	; 0x10f8 <MemoryReadBlock>

INLINE
bool ISO14443ASelect(void* Buffer, uint16_t* BitCount, uint8_t* UidCL, uint8_t SAKValue)
{
    uint8_t* DataPtr = (uint8_t*) Buffer;
    uint8_t NVB = DataPtr[1];
    2d18:	f8 01       	movw	r30, r16
    2d1a:	81 81       	ldd	r24, Z+1	; 0x01
    //uint8_t CollisionByteCount = (NVB >> 4) & 0x0F;
    //uint8_t CollisionBitCount =  (NVB >> 0) & 0x0F;

    switch (NVB) {
    2d1c:	80 32       	cpi	r24, 0x20	; 32
    2d1e:	09 f4       	brne	.+2      	; 0x2d22 <MifareUltralightAppProcess+0x10a>
    2d20:	aa c0       	rjmp	.+340    	; 0x2e76 <MifareUltralightAppProcess+0x25e>
    2d22:	80 37       	cpi	r24, 0x70	; 112
    2d24:	09 f0       	breq	.+2      	; 0x2d28 <MifareUltralightAppProcess+0x110>
    2d26:	47 c0       	rjmp	.+142    	; 0x2db6 <MifareUltralightAppProcess+0x19e>
        return false;

    case ISO14443A_NVB_AC_END:
        /* End of anticollision procedure.
        * Send SAK CLn if we are selected. */
        if (    (DataPtr[2] == UidCL[0]) &&
    2d28:	f8 01       	movw	r30, r16
    2d2a:	92 81       	ldd	r25, Z+2	; 0x02
    2d2c:	89 81       	ldd	r24, Y+1	; 0x01
    2d2e:	98 13       	cpse	r25, r24
    2d30:	b1 c0       	rjmp	.+354    	; 0x2e94 <MifareUltralightAppProcess+0x27c>
    2d32:	93 81       	ldd	r25, Z+3	; 0x03
    2d34:	8a 81       	ldd	r24, Y+2	; 0x02
    2d36:	98 13       	cpse	r25, r24
    2d38:	ad c0       	rjmp	.+346    	; 0x2e94 <MifareUltralightAppProcess+0x27c>
                (DataPtr[3] == UidCL[1]) &&
    2d3a:	94 81       	ldd	r25, Z+4	; 0x04
    2d3c:	8b 81       	ldd	r24, Y+3	; 0x03
    2d3e:	98 13       	cpse	r25, r24
    2d40:	a9 c0       	rjmp	.+338    	; 0x2e94 <MifareUltralightAppProcess+0x27c>
                (DataPtr[4] == UidCL[2]) &&
    2d42:	95 81       	ldd	r25, Z+5	; 0x05
    2d44:	8c 81       	ldd	r24, Y+4	; 0x04
    2d46:	98 13       	cpse	r25, r24
    2d48:	a5 c0       	rjmp	.+330    	; 0x2e94 <MifareUltralightAppProcess+0x27c>
                (DataPtr[5] == UidCL[3]) ) {

            DataPtr[0] = SAKValue;
    2d4a:	84 e0       	ldi	r24, 0x04	; 4
    2d4c:	80 83       	st	Z, r24
            ISO14443AAppendCRCA(Buffer, 1);
    2d4e:	61 e0       	ldi	r22, 0x01	; 1
    2d50:	70 e0       	ldi	r23, 0x00	; 0
    2d52:	c8 01       	movw	r24, r16
    2d54:	0e 94 56 1f 	call	0x3eac	; 0x3eac <ISO14443AAppendCRCA>

            if (ISO14443ASelect(Buffer, &BitCount, UidCL1, SAK_CL1_VALUE)) {
                /* CL1 stage has ended successfully */
                State = STATE_READY2;
    2d58:	83 e0       	ldi	r24, 0x03	; 3
    2d5a:	29 c0       	rjmp	.+82     	; 0x2dae <MifareUltralightAppProcess+0x196>

    case STATE_READY2:
        if (ISO14443AWakeUp(Buffer, &BitCount, ATQA_VALUE, FromHalt)) {
            State = FromHalt ? STATE_HALT : STATE_IDLE;
            return ISO14443A_APP_NO_RESPONSE;
        } else if (Cmd == ISO14443A_CMD_SELECT_CL2) {
    2d5c:	85 39       	cpi	r24, 0x95	; 149
    2d5e:	31 f6       	brne	.-116    	; 0x2cec <MifareUltralightAppProcess+0xd4>
            /* Load UID CL2 and perform anticollision */
            uint8_t UidCL2[ISO14443A_CL_UID_SIZE];

            MemoryReadBlock(UidCL2, UID_CL2_ADDRESS, UID_CL2_SIZE);
    2d60:	44 e0       	ldi	r20, 0x04	; 4
    2d62:	50 e0       	ldi	r21, 0x00	; 0
    2d64:	64 e0       	ldi	r22, 0x04	; 4
    2d66:	70 e0       	ldi	r23, 0x00	; 0
    2d68:	ce 01       	movw	r24, r28
    2d6a:	01 96       	adiw	r24, 0x01	; 1
    2d6c:	0e 94 7c 08 	call	0x10f8	; 0x10f8 <MemoryReadBlock>

INLINE
bool ISO14443ASelect(void* Buffer, uint16_t* BitCount, uint8_t* UidCL, uint8_t SAKValue)
{
    uint8_t* DataPtr = (uint8_t*) Buffer;
    uint8_t NVB = DataPtr[1];
    2d70:	f8 01       	movw	r30, r16
    2d72:	81 81       	ldd	r24, Z+1	; 0x01
    //uint8_t CollisionByteCount = (NVB >> 4) & 0x0F;
    //uint8_t CollisionBitCount =  (NVB >> 0) & 0x0F;

    switch (NVB) {
    2d74:	80 32       	cpi	r24, 0x20	; 32
    2d76:	09 f4       	brne	.+2      	; 0x2d7a <MifareUltralightAppProcess+0x162>
    2d78:	7e c0       	rjmp	.+252    	; 0x2e76 <MifareUltralightAppProcess+0x25e>
    2d7a:	80 37       	cpi	r24, 0x70	; 112
    2d7c:	e1 f4       	brne	.+56     	; 0x2db6 <MifareUltralightAppProcess+0x19e>
        return false;

    case ISO14443A_NVB_AC_END:
        /* End of anticollision procedure.
        * Send SAK CLn if we are selected. */
        if (    (DataPtr[2] == UidCL[0]) &&
    2d7e:	f8 01       	movw	r30, r16
    2d80:	92 81       	ldd	r25, Z+2	; 0x02
    2d82:	89 81       	ldd	r24, Y+1	; 0x01
    2d84:	98 13       	cpse	r25, r24
    2d86:	86 c0       	rjmp	.+268    	; 0x2e94 <MifareUltralightAppProcess+0x27c>
    2d88:	93 81       	ldd	r25, Z+3	; 0x03
    2d8a:	8a 81       	ldd	r24, Y+2	; 0x02
    2d8c:	98 13       	cpse	r25, r24
    2d8e:	82 c0       	rjmp	.+260    	; 0x2e94 <MifareUltralightAppProcess+0x27c>
                (DataPtr[3] == UidCL[1]) &&
    2d90:	94 81       	ldd	r25, Z+4	; 0x04
    2d92:	8b 81       	ldd	r24, Y+3	; 0x03
    2d94:	98 13       	cpse	r25, r24
    2d96:	7e c0       	rjmp	.+252    	; 0x2e94 <MifareUltralightAppProcess+0x27c>
                (DataPtr[4] == UidCL[2]) &&
    2d98:	95 81       	ldd	r25, Z+5	; 0x05
    2d9a:	8c 81       	ldd	r24, Y+4	; 0x04
    2d9c:	98 13       	cpse	r25, r24
    2d9e:	7a c0       	rjmp	.+244    	; 0x2e94 <MifareUltralightAppProcess+0x27c>
                (DataPtr[5] == UidCL[3]) ) {

            DataPtr[0] = SAKValue;
    2da0:	10 82       	st	Z, r1
            ISO14443AAppendCRCA(Buffer, 1);
    2da2:	61 e0       	ldi	r22, 0x01	; 1
    2da4:	70 e0       	ldi	r23, 0x00	; 0
    2da6:	c8 01       	movw	r24, r16
    2da8:	0e 94 56 1f 	call	0x3eac	; 0x3eac <ISO14443AAppendCRCA>

            if (ISO14443ASelect(Buffer, &BitCount, UidCL2, SAK_CL2_VALUE)) {
                /* CL2 stage has ended successfully. This means
                * our complete UID has been sent to the reader. */
                State = STATE_ACTIVE;
    2dac:	84 e0       	ldi	r24, 0x04	; 4
    2dae:	80 93 03 21 	sts	0x2103, r24	; 0x802103 <State>
    2db2:	38 e1       	ldi	r19, 0x18	; 24
    2db4:	70 c0       	rjmp	.+224    	; 0x2e96 <MifareUltralightAppProcess+0x27e>
            *BitCount = 0;
            return false;
        }
    default:
    {
        uint8_t CollisionByteCount = ((NVB >> 4) & 0x0f) - 2;
    2db6:	e8 2e       	mov	r14, r24
    2db8:	e2 94       	swap	r14
    2dba:	bf e0       	ldi	r27, 0x0F	; 15
    2dbc:	eb 22       	and	r14, r27
    2dbe:	2e ef       	ldi	r18, 0xFE	; 254
    2dc0:	2e 0d       	add	r18, r14
        uint8_t CollisionBitCount  = (NVB >> 0) & 0x0f;
    2dc2:	8f 70       	andi	r24, 0x0F	; 15
    2dc4:	f8 2e       	mov	r15, r24
        uint8_t mask = 0xFF >> (8 - CollisionBitCount);
    2dc6:	88 e0       	ldi	r24, 0x08	; 8
    2dc8:	90 e0       	ldi	r25, 0x00	; 0
    2dca:	8f 19       	sub	r24, r15
    2dcc:	91 09       	sbc	r25, r1
    2dce:	4f ef       	ldi	r20, 0xFF	; 255
    2dd0:	50 e0       	ldi	r21, 0x00	; 0
    2dd2:	6a 01       	movw	r12, r20
    2dd4:	02 c0       	rjmp	.+4      	; 0x2dda <MifareUltralightAppProcess+0x1c2>
    2dd6:	d5 94       	asr	r13
    2dd8:	c7 94       	ror	r12
    2dda:	8a 95       	dec	r24
    2ddc:	e2 f7       	brpl	.-8      	; 0x2dd6 <MifareUltralightAppProcess+0x1be>
        // Since the UidCL does not contain the BCC, we have to distinguish here
        if (
    2dde:	25 30       	cpi	r18, 0x05	; 5
    2de0:	21 f0       	breq	.+8      	; 0x2dea <MifareUltralightAppProcess+0x1d2>
                ((CollisionByteCount == 5 || (CollisionByteCount == 4 && CollisionBitCount > 0)) && memcmp(UidCL, &DataPtr[2], 4) == 0 && (ISO14443A_CALC_BCC(UidCL) & mask) == (DataPtr[6] & mask))
    2de2:	24 30       	cpi	r18, 0x04	; 4
    2de4:	59 f5       	brne	.+86     	; 0x2e3c <MifareUltralightAppProcess+0x224>
    2de6:	ff 20       	and	r15, r15
    2de8:	e9 f0       	breq	.+58     	; 0x2e24 <MifareUltralightAppProcess+0x20c>
    2dea:	44 e0       	ldi	r20, 0x04	; 4
    2dec:	50 e0       	ldi	r21, 0x00	; 0
    2dee:	b8 01       	movw	r22, r16
    2df0:	6e 5f       	subi	r22, 0xFE	; 254
    2df2:	7f 4f       	sbci	r23, 0xFF	; 255
    2df4:	ce 01       	movw	r24, r28
    2df6:	01 96       	adiw	r24, 0x01	; 1
    2df8:	2d 83       	std	Y+5, r18	; 0x05
    2dfa:	0e 94 77 2a 	call	0x54ee	; 0x54ee <memcmp>
    2dfe:	2d 81       	ldd	r18, Y+5	; 0x05
    2e00:	89 2b       	or	r24, r25
    2e02:	61 f4       	brne	.+24     	; 0x2e1c <MifareUltralightAppProcess+0x204>
    2e04:	9a 81       	ldd	r25, Y+2	; 0x02
    2e06:	89 81       	ldd	r24, Y+1	; 0x01
    2e08:	89 27       	eor	r24, r25
    2e0a:	9b 81       	ldd	r25, Y+3	; 0x03
    2e0c:	89 27       	eor	r24, r25
    2e0e:	9c 81       	ldd	r25, Y+4	; 0x04
    2e10:	89 27       	eor	r24, r25
    2e12:	f8 01       	movw	r30, r16
    2e14:	96 81       	ldd	r25, Z+6	; 0x06
    2e16:	89 27       	eor	r24, r25
    2e18:	8c 21       	and	r24, r12
    2e1a:	69 f1       	breq	.+90     	; 0x2e76 <MifareUltralightAppProcess+0x25e>
                ||
    2e1c:	24 30       	cpi	r18, 0x04	; 4
    2e1e:	71 f4       	brne	.+28     	; 0x2e3c <MifareUltralightAppProcess+0x224>
                (CollisionByteCount == 4 && CollisionBitCount == 0 && memcmp(UidCL, &DataPtr[2], 4) == 0)
    2e20:	f1 10       	cpse	r15, r1
    2e22:	38 c0       	rjmp	.+112    	; 0x2e94 <MifareUltralightAppProcess+0x27c>
    2e24:	44 e0       	ldi	r20, 0x04	; 4
    2e26:	50 e0       	ldi	r21, 0x00	; 0
    2e28:	b8 01       	movw	r22, r16
    2e2a:	6e 5f       	subi	r22, 0xFE	; 254
    2e2c:	7f 4f       	sbci	r23, 0xFF	; 255
    2e2e:	ce 01       	movw	r24, r28
    2e30:	01 96       	adiw	r24, 0x01	; 1
    2e32:	0e 94 77 2a 	call	0x54ee	; 0x54ee <memcmp>
    2e36:	89 2b       	or	r24, r25
    2e38:	f1 f0       	breq	.+60     	; 0x2e76 <MifareUltralightAppProcess+0x25e>
    2e3a:	2c c0       	rjmp	.+88     	; 0x2e94 <MifareUltralightAppProcess+0x27c>
                ||
    2e3c:	24 30       	cpi	r18, 0x04	; 4
    2e3e:	50 f5       	brcc	.+84     	; 0x2e94 <MifareUltralightAppProcess+0x27c>
                (CollisionByteCount < 4 && memcmp(UidCL, &DataPtr[2], CollisionByteCount) == 0 && (UidCL[CollisionByteCount] & mask) == (DataPtr[CollisionByteCount + 2] & mask))
    2e40:	e2 2e       	mov	r14, r18
    2e42:	f1 2c       	mov	r15, r1
    2e44:	a7 01       	movw	r20, r14
    2e46:	b8 01       	movw	r22, r16
    2e48:	6e 5f       	subi	r22, 0xFE	; 254
    2e4a:	7f 4f       	sbci	r23, 0xFF	; 255
    2e4c:	ce 01       	movw	r24, r28
    2e4e:	01 96       	adiw	r24, 0x01	; 1
    2e50:	0e 94 77 2a 	call	0x54ee	; 0x54ee <memcmp>
    2e54:	89 2b       	or	r24, r25
    2e56:	f1 f4       	brne	.+60     	; 0x2e94 <MifareUltralightAppProcess+0x27c>
    2e58:	d8 01       	movw	r26, r16
    2e5a:	ae 0d       	add	r26, r14
    2e5c:	bf 1d       	adc	r27, r15
    2e5e:	e1 e0       	ldi	r30, 0x01	; 1
    2e60:	f0 e0       	ldi	r31, 0x00	; 0
    2e62:	ec 0f       	add	r30, r28
    2e64:	fd 1f       	adc	r31, r29
    2e66:	ee 0d       	add	r30, r14
    2e68:	ff 1d       	adc	r31, r15
    2e6a:	12 96       	adiw	r26, 0x02	; 2
    2e6c:	9c 91       	ld	r25, X
    2e6e:	80 81       	ld	r24, Z
    2e70:	89 27       	eor	r24, r25
    2e72:	c8 22       	and	r12, r24
    2e74:	79 f4       	brne	.+30     	; 0x2e94 <MifareUltralightAppProcess+0x27c>
        )
        {
            DataPtr[0] = UidCL[0];
    2e76:	29 81       	ldd	r18, Y+1	; 0x01
    2e78:	f8 01       	movw	r30, r16
    2e7a:	20 83       	st	Z, r18
            DataPtr[1] = UidCL[1];
    2e7c:	3a 81       	ldd	r19, Y+2	; 0x02
    2e7e:	31 83       	std	Z+1, r19	; 0x01
            DataPtr[2] = UidCL[2];
    2e80:	9b 81       	ldd	r25, Y+3	; 0x03
    2e82:	92 83       	std	Z+2, r25	; 0x02
            DataPtr[3] = UidCL[3];
    2e84:	8c 81       	ldd	r24, Y+4	; 0x04
    2e86:	83 83       	std	Z+3, r24	; 0x03
            DataPtr[4] = ISO14443A_CALC_BCC(DataPtr);
    2e88:	23 27       	eor	r18, r19
    2e8a:	92 27       	eor	r25, r18
    2e8c:	89 27       	eor	r24, r25
    2e8e:	84 83       	std	Z+4, r24	; 0x04

            *BitCount = ISO14443A_CL_FRAME_SIZE;
    2e90:	38 e2       	ldi	r19, 0x28	; 40
    2e92:	01 c0       	rjmp	.+2      	; 0x2e96 <MifareUltralightAppProcess+0x27e>
        uint8_t mask = 0xFF >> (8 - CollisionBitCount);
        // Since the UidCL does not contain the BCC, we have to distinguish here
        if (
                ((CollisionByteCount == 5 || (CollisionByteCount == 4 && CollisionBitCount > 0)) && memcmp(UidCL, &DataPtr[2], 4) == 0 && (ISO14443A_CALC_BCC(UidCL) & mask) == (DataPtr[6] & mask))
                ||
                (CollisionByteCount == 4 && CollisionBitCount == 0 && memcmp(UidCL, &DataPtr[2], 4) == 0)
    2e94:	30 e0       	ldi	r19, 0x00	; 0
    2e96:	20 e0       	ldi	r18, 0x00	; 0
    2e98:	83 2f       	mov	r24, r19
    2e9a:	92 2f       	mov	r25, r18
    2e9c:	d3 c1       	rjmp	.+934    	; 0x3244 <__stack+0x245>
        }
        break;

    case STATE_ACTIVE:
        /* Preserve incoming data length */
        ByteCount = (BitCount + 7) >> 3;
    2e9e:	69 5f       	subi	r22, 0xF9	; 249
    2ea0:	7f 4f       	sbci	r23, 0xFF	; 255
    2ea2:	83 e0       	ldi	r24, 0x03	; 3
    2ea4:	76 95       	lsr	r23
    2ea6:	67 95       	ror	r22
    2ea8:	8a 95       	dec	r24
    2eaa:	e1 f7       	brne	.-8      	; 0x2ea4 <MifareUltralightAppProcess+0x28c>
        if (ISO14443AWakeUp(Buffer, &BitCount, ATQA_VALUE, FromHalt)) {
            State = FromHalt ? STATE_HALT : STATE_IDLE;
            return ISO14443A_APP_NO_RESPONSE;
        }
        /* At the very least, there should be 3 bytes in the buffer. */
        if (ByteCount < (1 + ISO14443A_CRCA_SIZE)) {
    2eac:	63 30       	cpi	r22, 0x03	; 3
    2eae:	71 05       	cpc	r23, r1
    2eb0:	08 f4       	brcc	.+2      	; 0x2eb4 <MifareUltralightAppProcess+0x29c>
    2eb2:	1c cf       	rjmp	.-456    	; 0x2cec <MifareUltralightAppProcess+0xd4>
            State = STATE_IDLE;
            return ISO14443A_APP_NO_RESPONSE;
        }
        /* All commands here have CRCA appended; verify it right away */
        ByteCount -= 2;
    2eb4:	62 50       	subi	r22, 0x02	; 2
    2eb6:	71 09       	sbc	r23, r1
        if (!ISO14443ACheckCRCA(Buffer, ByteCount)) {
    2eb8:	c8 01       	movw	r24, r16
    2eba:	0e 94 81 1f 	call	0x3f02	; 0x3f02 <ISO14443ACheckCRCA>
    2ebe:	81 11       	cpse	r24, r1
    2ec0:	03 cf       	rjmp	.-506    	; 0x2cc8 <MifareUltralightAppProcess+0xb0>
            Buffer[0] = NAK_CRC_ERROR;
    2ec2:	81 e0       	ldi	r24, 0x01	; 1
    2ec4:	99 c1       	rjmp	.+818    	; 0x31f8 <__stack+0x1f9>
{
    uint8_t Cmd = Buffer[0];

    /* Handle the compatibility write command */
    if (ArmedForCompatWrite) {
        ArmedForCompatWrite = false;
    2ec6:	10 92 00 21 	sts	0x2100, r1	; 0x802100 <ArmedForCompatWrite>
        AppWritePage(CompatWritePageAddress, &Buffer[2]);
    2eca:	60 91 ff 20 	lds	r22, 0x20FF	; 0x8020ff <CompatWritePageAddress>
}

/* Perform access verification and commit data if passed */
static uint8_t AppWritePage(uint8_t PageAddress, uint8_t* const Buffer)
{
    if (!ActiveConfiguration.ReadOnly) {
    2ece:	80 91 51 21 	lds	r24, 0x2151	; 0x802151 <ActiveConfiguration+0x17>
    2ed2:	81 11       	cpse	r24, r1
    2ed4:	90 c1       	rjmp	.+800    	; 0x31f6 <__stack+0x1f7>
        MemoryWriteBlock(Buffer, PageAddress * MIFARE_ULTRALIGHT_PAGE_SIZE, MIFARE_ULTRALIGHT_PAGE_SIZE);
    2ed6:	f4 e0       	ldi	r31, 0x04	; 4
    2ed8:	6f 9f       	mul	r22, r31
    2eda:	b0 01       	movw	r22, r0
    2edc:	11 24       	eor	r1, r1
    2ede:	44 e0       	ldi	r20, 0x04	; 4
    2ee0:	50 e0       	ldi	r21, 0x00	; 0
    2ee2:	c8 01       	movw	r24, r16
    2ee4:	02 96       	adiw	r24, 0x02	; 2
    2ee6:	85 c1       	rjmp	.+778    	; 0x31f2 <__stack+0x1f3>
        Buffer[0] = ACK_VALUE;
        return ACK_FRAME_SIZE;
    }

    /* Handle EV0 commands */
    switch (Cmd) {
    2ee8:	80 3a       	cpi	r24, 0xA0	; 160
    2eea:	09 f4       	brne	.+2      	; 0x2eee <MifareUltralightAppProcess+0x2d6>
    2eec:	54 c0       	rjmp	.+168    	; 0x2f96 <MifareUltralightAppProcess+0x37e>
    2eee:	82 3a       	cpi	r24, 0xA2	; 162
    2ef0:	b9 f1       	breq	.+110    	; 0x2f60 <MifareUltralightAppProcess+0x348>
    2ef2:	f8 ce       	rjmp	.-528    	; 0x2ce4 <MifareUltralightAppProcess+0xcc>

        case CMD_READ: {
            uint8_t PageAddress = Buffer[1];
    2ef4:	f8 01       	movw	r30, r16
    2ef6:	f1 80       	ldd	r15, Z+1	; 0x01
            uint8_t PageLimit;
            uint8_t Offset;
            /* For EV1+ cards, ensure the wraparound is at the first protected page */
            if (Flavor >= UL_EV1 && ReadAccessProtected && !Authenticated) {
    2ef8:	80 91 04 21 	lds	r24, 0x2104	; 0x802104 <Flavor>
    2efc:	88 23       	and	r24, r24
    2efe:	59 f0       	breq	.+22     	; 0x2f16 <MifareUltralightAppProcess+0x2fe>
    2f00:	80 91 fc 20 	lds	r24, 0x20FC	; 0x8020fc <ReadAccessProtected>
    2f04:	88 23       	and	r24, r24
    2f06:	39 f0       	breq	.+14     	; 0x2f16 <MifareUltralightAppProcess+0x2fe>
    2f08:	80 91 fe 20 	lds	r24, 0x20FE	; 0x8020fe <Authenticated>
    2f0c:	81 11       	cpse	r24, r1
    2f0e:	03 c0       	rjmp	.+6      	; 0x2f16 <MifareUltralightAppProcess+0x2fe>
                PageLimit = FirstAuthenticatedPage;
    2f10:	e0 90 fd 20 	lds	r14, 0x20FD	; 0x8020fd <FirstAuthenticatedPage>
    2f14:	02 c0       	rjmp	.+4      	; 0x2f1a <MifareUltralightAppProcess+0x302>
            } else {
                PageLimit = PageCount;
    2f16:	e0 90 01 21 	lds	r14, 0x2101	; 0x802101 <PageCount>
            }
            /* Validation */
            if (PageAddress >= PageLimit) {
    2f1a:	fe 14       	cp	r15, r14
    2f1c:	10 f0       	brcs	.+4      	; 0x2f22 <MifareUltralightAppProcess+0x30a>
                Buffer[0] = NAK_INVALID_ARG;
    2f1e:	f8 01       	movw	r30, r16
    2f20:	36 c1       	rjmp	.+620    	; 0x318e <__stack+0x18f>
                PageLimit = FirstAuthenticatedPage;
            } else {
                PageLimit = PageCount;
            }
            /* Validation */
            if (PageAddress >= PageLimit) {
    2f22:	c1 2c       	mov	r12, r1
    2f24:	d1 2c       	mov	r13, r1
                Buffer[0] = NAK_INVALID_ARG;
                return NAK_FRAME_SIZE;
            }
            /* Read out, emulating the wraparound */
            for (Offset = 0; Offset < BYTES_PER_READ; Offset += 4) {
                MemoryReadBlock(&Buffer[Offset], PageAddress * MIFARE_ULTRALIGHT_PAGE_SIZE, MIFARE_ULTRALIGHT_PAGE_SIZE);
    2f26:	f4 e0       	ldi	r31, 0x04	; 4
    2f28:	ff 9e       	mul	r15, r31
    2f2a:	b0 01       	movw	r22, r0
    2f2c:	11 24       	eor	r1, r1
    2f2e:	44 e0       	ldi	r20, 0x04	; 4
    2f30:	50 e0       	ldi	r21, 0x00	; 0
    2f32:	c8 01       	movw	r24, r16
    2f34:	8c 0d       	add	r24, r12
    2f36:	9d 1d       	adc	r25, r13
    2f38:	0e 94 7c 08 	call	0x10f8	; 0x10f8 <MemoryReadBlock>
                PageAddress++;
    2f3c:	f3 94       	inc	r15
                if (PageAddress == PageLimit) {
    2f3e:	fe 10       	cpse	r15, r14
    2f40:	01 c0       	rjmp	.+2      	; 0x2f44 <MifareUltralightAppProcess+0x32c>
                    PageAddress = 0;
    2f42:	f1 2c       	mov	r15, r1
    2f44:	24 e0       	ldi	r18, 0x04	; 4
    2f46:	c2 0e       	add	r12, r18
    2f48:	d1 1c       	adc	r13, r1
            if (PageAddress >= PageLimit) {
                Buffer[0] = NAK_INVALID_ARG;
                return NAK_FRAME_SIZE;
            }
            /* Read out, emulating the wraparound */
            for (Offset = 0; Offset < BYTES_PER_READ; Offset += 4) {
    2f4a:	80 e1       	ldi	r24, 0x10	; 16
    2f4c:	c8 16       	cp	r12, r24
    2f4e:	d1 04       	cpc	r13, r1
    2f50:	51 f7       	brne	.-44     	; 0x2f26 <MifareUltralightAppProcess+0x30e>
                PageAddress++;
                if (PageAddress == PageLimit) {
                    PageAddress = 0;
                }
            }
            ISO14443AAppendCRCA(Buffer, BYTES_PER_READ);
    2f52:	60 e1       	ldi	r22, 0x10	; 16
    2f54:	70 e0       	ldi	r23, 0x00	; 0
    2f56:	c8 01       	movw	r24, r16
    2f58:	a9 d7       	rcall	.+3922   	; 0x3eac <ISO14443AAppendCRCA>
            return (BYTES_PER_READ + ISO14443A_CRCA_SIZE) * 8;
    2f5a:	80 e9       	ldi	r24, 0x90	; 144
    2f5c:	90 e0       	ldi	r25, 0x00	; 0
    2f5e:	72 c1       	rjmp	.+740    	; 0x3244 <__stack+0x245>
        }

        case CMD_WRITE: {
            /* This is a write command containing 4 bytes of data that
            * should be written to the given page address. */
            uint8_t PageAddress = Buffer[1];
    2f60:	f8 01       	movw	r30, r16
    2f62:	f1 80       	ldd	r15, Z+1	; 0x01
            /* Validation */
            if ((PageAddress < PAGE_WRITE_MIN) || (PageAddress >= PageCount)) {
    2f64:	f1 e0       	ldi	r31, 0x01	; 1
    2f66:	ff 15       	cp	r31, r15
    2f68:	d0 f6       	brcc	.-76     	; 0x2f1e <MifareUltralightAppProcess+0x306>
    2f6a:	80 91 01 21 	lds	r24, 0x2101	; 0x802101 <PageCount>
    2f6e:	f8 16       	cp	r15, r24
    2f70:	b0 f6       	brcc	.-84     	; 0x2f1e <MifareUltralightAppProcess+0x306>
                Buffer[0] = NAK_INVALID_ARG;
                return NAK_FRAME_SIZE;
            }
            if (!VerifyAuthentication(PageAddress)) {
    2f72:	8f 2d       	mov	r24, r15
    2f74:	e5 dd       	rcall	.-1078   	; 0x2b40 <VerifyAuthentication>
    2f76:	88 23       	and	r24, r24
    2f78:	09 f4       	brne	.+2      	; 0x2f7c <MifareUltralightAppProcess+0x364>
    2f7a:	ca c0       	rjmp	.+404    	; 0x3110 <__stack+0x111>
                Buffer[0] = NAK_AUTH_REQUIRED;
                return NAK_FRAME_SIZE;
            }
            AppWritePage(PageAddress, &Buffer[2]);
    2f7c:	c8 01       	movw	r24, r16
    2f7e:	02 96       	adiw	r24, 0x02	; 2
}

/* Perform access verification and commit data if passed */
static uint8_t AppWritePage(uint8_t PageAddress, uint8_t* const Buffer)
{
    if (!ActiveConfiguration.ReadOnly) {
    2f80:	20 91 51 21 	lds	r18, 0x2151	; 0x802151 <ActiveConfiguration+0x17>
    2f84:	21 11       	cpse	r18, r1
    2f86:	37 c1       	rjmp	.+622    	; 0x31f6 <__stack+0x1f7>
        MemoryWriteBlock(Buffer, PageAddress * MIFARE_ULTRALIGHT_PAGE_SIZE, MIFARE_ULTRALIGHT_PAGE_SIZE);
    2f88:	f4 e0       	ldi	r31, 0x04	; 4
    2f8a:	ff 9e       	mul	r15, r31
    2f8c:	b0 01       	movw	r22, r0
    2f8e:	11 24       	eor	r1, r1
    2f90:	44 e0       	ldi	r20, 0x04	; 4
    2f92:	50 e0       	ldi	r21, 0x00	; 0
    2f94:	2e c1       	rjmp	.+604    	; 0x31f2 <__stack+0x1f3>
            Buffer[0] = ACK_VALUE;
            return ACK_FRAME_SIZE;
        }

        case CMD_COMPAT_WRITE: {
            uint8_t PageAddress = Buffer[1];
    2f96:	f8 01       	movw	r30, r16
    2f98:	f1 80       	ldd	r15, Z+1	; 0x01
            /* Validation */
            if ((PageAddress < PAGE_WRITE_MIN) || (PageAddress >= PageCount)) {
    2f9a:	f1 e0       	ldi	r31, 0x01	; 1
    2f9c:	ff 15       	cp	r31, r15
    2f9e:	08 f0       	brcs	.+2      	; 0x2fa2 <MifareUltralightAppProcess+0x38a>
    2fa0:	be cf       	rjmp	.-132    	; 0x2f1e <MifareUltralightAppProcess+0x306>
    2fa2:	80 91 01 21 	lds	r24, 0x2101	; 0x802101 <PageCount>
    2fa6:	f8 16       	cp	r15, r24
    2fa8:	08 f0       	brcs	.+2      	; 0x2fac <MifareUltralightAppProcess+0x394>
    2faa:	b9 cf       	rjmp	.-142    	; 0x2f1e <MifareUltralightAppProcess+0x306>
                Buffer[0] = NAK_INVALID_ARG;
                return NAK_FRAME_SIZE;
            }
            if (!VerifyAuthentication(PageAddress)) {
    2fac:	8f 2d       	mov	r24, r15
    2fae:	c8 dd       	rcall	.-1136   	; 0x2b40 <VerifyAuthentication>
    2fb0:	88 23       	and	r24, r24
    2fb2:	09 f4       	brne	.+2      	; 0x2fb6 <MifareUltralightAppProcess+0x39e>
    2fb4:	ad c0       	rjmp	.+346    	; 0x3110 <__stack+0x111>
                Buffer[0] = NAK_AUTH_REQUIRED;
                return NAK_FRAME_SIZE;
            }
            /* CRC check passed and page-address is within bounds.
            * Store address and proceed to receiving the data. */
            CompatWritePageAddress = PageAddress;
    2fb6:	f0 92 ff 20 	sts	0x20FF, r15	; 0x8020ff <CompatWritePageAddress>
            ArmedForCompatWrite = true;
    2fba:	81 e0       	ldi	r24, 0x01	; 1
    2fbc:	80 93 00 21 	sts	0x2100, r24	; 0x802100 <ArmedForCompatWrite>
    2fc0:	1a c1       	rjmp	.+564    	; 0x31f6 <__stack+0x1f7>
        }

        case CMD_HALT: {
            /* Halts the tag. According to the ISO14443, the second
            * byte is supposed to be 0. */
            if (Buffer[1] == 0) {
    2fc2:	f8 01       	movw	r30, r16
    2fc4:	81 81       	ldd	r24, Z+1	; 0x01
    2fc6:	81 11       	cpse	r24, r1
    2fc8:	aa cf       	rjmp	.-172    	; 0x2f1e <MifareUltralightAppProcess+0x306>
                /* According to ISO14443, we must not send anything
                * in order to acknowledge the HALT command. */
                State = STATE_HALT;
    2fca:	10 92 03 21 	sts	0x2103, r1	; 0x802103 <State>
    2fce:	91 ce       	rjmp	.-734    	; 0x2cf2 <MifareUltralightAppProcess+0xda>
        default:
            break;
    }
    /* Handle EV1 commands */
    if (Flavor >= UL_EV1) {
        switch (Cmd) {
    2fd0:	8c 33       	cpi	r24, 0x3C	; 60
    2fd2:	09 f4       	brne	.+2      	; 0x2fd6 <MifareUltralightAppProcess+0x3be>
    2fd4:	16 c1       	rjmp	.+556    	; 0x3202 <__stack+0x203>
    2fd6:	48 f4       	brcc	.+18     	; 0x2fea <MifareUltralightAppProcess+0x3d2>
    2fd8:	89 33       	cpi	r24, 0x39	; 57
    2fda:	09 f4       	brne	.+2      	; 0x2fde <MifareUltralightAppProcess+0x3c6>
    2fdc:	ad c0       	rjmp	.+346    	; 0x3138 <__stack+0x139>
    2fde:	8a 33       	cpi	r24, 0x3A	; 58
    2fe0:	89 f1       	breq	.+98     	; 0x3044 <__stack+0x45>
    2fe2:	8b 31       	cpi	r24, 0x1B	; 27
    2fe4:	09 f0       	breq	.+2      	; 0x2fe8 <MifareUltralightAppProcess+0x3d0>
    2fe6:	82 ce       	rjmp	.-764    	; 0x2cec <MifareUltralightAppProcess+0xd4>
    2fe8:	68 c0       	rjmp	.+208    	; 0x30ba <__stack+0xbb>
    2fea:	8b 34       	cpi	r24, 0x4B	; 75
    2fec:	09 f4       	brne	.+2      	; 0x2ff0 <MifareUltralightAppProcess+0x3d8>
    2fee:	17 c1       	rjmp	.+558    	; 0x321e <__stack+0x21f>
    2ff0:	38 f4       	brcc	.+14     	; 0x3000 <__stack+0x1>
    2ff2:	8e 33       	cpi	r24, 0x3E	; 62
    2ff4:	09 f0       	breq	.+2      	; 0x2ff8 <MifareUltralightAppProcess+0x3e0>
    2ff6:	7a ce       	rjmp	.-780    	; 0x2cec <MifareUltralightAppProcess+0xd4>
                ISO14443AAppendCRCA(Buffer, SIGNATURE_LENGTH);
                return (SIGNATURE_LENGTH + ISO14443A_CRCA_SIZE) * 8;

            case CMD_CHECK_TEARING_EVENT:
                /* Hardcoded response */
                Buffer[0] = 0xBD;
    2ff8:	8d eb       	ldi	r24, 0xBD	; 189
    2ffa:	f8 01       	movw	r30, r16
    2ffc:	80 83       	st	Z, r24
    2ffe:	1c c1       	rjmp	.+568    	; 0x3238 <__stack+0x239>
        default:
            break;
    }
    /* Handle EV1 commands */
    if (Flavor >= UL_EV1) {
        switch (Cmd) {
    3000:	80 36       	cpi	r24, 0x60	; 96
    3002:	21 f0       	breq	.+8      	; 0x300c <__stack+0xd>
    3004:	85 3a       	cpi	r24, 0xA5	; 165
    3006:	09 f4       	brne	.+2      	; 0x300a <__stack+0xb>
    3008:	b1 c0       	rjmp	.+354    	; 0x316c <__stack+0x16d>
    300a:	70 ce       	rjmp	.-800    	; 0x2cec <MifareUltralightAppProcess+0xd4>

            case CMD_GET_VERSION: {
                /* Provide hardcoded version response */
                Buffer[0] = 0x00;
    300c:	f8 01       	movw	r30, r16
    300e:	10 82       	st	Z, r1
                Buffer[1] = 0x04;
    3010:	84 e0       	ldi	r24, 0x04	; 4
    3012:	81 83       	std	Z+1, r24	; 0x01
                Buffer[2] = 0x03;
    3014:	83 e0       	ldi	r24, 0x03	; 3
    3016:	82 83       	std	Z+2, r24	; 0x02
                Buffer[3] = 0x01; /**/
    3018:	81 e0       	ldi	r24, 0x01	; 1
    301a:	83 83       	std	Z+3, r24	; 0x03
                Buffer[4] = 0x01;
    301c:	84 83       	std	Z+4, r24	; 0x04
                Buffer[5] = 0x00;
    301e:	15 82       	std	Z+5, r1	; 0x05
                Buffer[6] = PageCount == MIFARE_ULTRALIGHT_EV11_PAGES ? 0x0B : 0x0E;
    3020:	80 91 01 21 	lds	r24, 0x2101	; 0x802101 <PageCount>
    3024:	84 31       	cpi	r24, 0x14	; 20
    3026:	11 f0       	breq	.+4      	; 0x302c <__stack+0x2d>
    3028:	8e e0       	ldi	r24, 0x0E	; 14
    302a:	01 c0       	rjmp	.+2      	; 0x302e <__stack+0x2f>
    302c:	8b e0       	ldi	r24, 0x0B	; 11
    302e:	f8 01       	movw	r30, r16
    3030:	86 83       	std	Z+6, r24	; 0x06
                Buffer[7] = 0x03;
    3032:	83 e0       	ldi	r24, 0x03	; 3
    3034:	87 83       	std	Z+7, r24	; 0x07
                ISO14443AAppendCRCA(Buffer, VERSION_INFO_LENGTH);
    3036:	68 e0       	ldi	r22, 0x08	; 8
    3038:	70 e0       	ldi	r23, 0x00	; 0
    303a:	c8 01       	movw	r24, r16
    303c:	37 d7       	rcall	.+3694   	; 0x3eac <ISO14443AAppendCRCA>
                return (VERSION_INFO_LENGTH + ISO14443A_CRCA_SIZE) * 8;
    303e:	80 e5       	ldi	r24, 0x50	; 80
    3040:	90 e0       	ldi	r25, 0x00	; 0
    3042:	00 c1       	rjmp	.+512    	; 0x3244 <__stack+0x245>
            }

            case CMD_FAST_READ: {
                uint8_t StartPageAddress = Buffer[1];
    3044:	f8 01       	movw	r30, r16
    3046:	d1 80       	ldd	r13, Z+1	; 0x01
                uint8_t EndPageAddress = Buffer[2];
    3048:	e2 80       	ldd	r14, Z+2	; 0x02
                /* Validation */
                if ((StartPageAddress > EndPageAddress) || (StartPageAddress >= PageCount) || (EndPageAddress >= PageCount)) {
    304a:	ed 14       	cp	r14, r13
    304c:	08 f4       	brcc	.+2      	; 0x3050 <__stack+0x51>
    304e:	67 cf       	rjmp	.-306    	; 0x2f1e <MifareUltralightAppProcess+0x306>
    3050:	80 91 01 21 	lds	r24, 0x2101	; 0x802101 <PageCount>
    3054:	d8 16       	cp	r13, r24
    3056:	08 f0       	brcs	.+2      	; 0x305a <__stack+0x5b>
    3058:	62 cf       	rjmp	.-316    	; 0x2f1e <MifareUltralightAppProcess+0x306>
    305a:	e8 16       	cp	r14, r24
    305c:	08 f0       	brcs	.+2      	; 0x3060 <__stack+0x61>
    305e:	5f cf       	rjmp	.-322    	; 0x2f1e <MifareUltralightAppProcess+0x306>
                    Buffer[0] = NAK_INVALID_ARG;
                    return NAK_FRAME_SIZE;
                }
                /* Check authentication only if protection is read&write */
                if (ReadAccessProtected) {
    3060:	80 91 fc 20 	lds	r24, 0x20FC	; 0x8020fc <ReadAccessProtected>
    3064:	88 23       	and	r24, r24
    3066:	51 f0       	breq	.+20     	; 0x307c <__stack+0x7d>
                    if (!VerifyAuthentication(StartPageAddress) || !VerifyAuthentication(EndPageAddress)) {
    3068:	8d 2d       	mov	r24, r13
    306a:	6a dd       	rcall	.-1324   	; 0x2b40 <VerifyAuthentication>
    306c:	88 23       	and	r24, r24
    306e:	09 f4       	brne	.+2      	; 0x3072 <__stack+0x73>
    3070:	4f c0       	rjmp	.+158    	; 0x3110 <__stack+0x111>
    3072:	8e 2d       	mov	r24, r14
    3074:	65 dd       	rcall	.-1334   	; 0x2b40 <VerifyAuthentication>
    3076:	88 23       	and	r24, r24
    3078:	09 f4       	brne	.+2      	; 0x307c <__stack+0x7d>
    307a:	4a c0       	rjmp	.+148    	; 0x3110 <__stack+0x111>
                        Buffer[0] = NAK_AUTH_REQUIRED;
                        return NAK_FRAME_SIZE;
                    }
                }
                /* NOTE: With the current implementation, reading the password out is possible. */
                ByteCount = (EndPageAddress - StartPageAddress + 1) * MIFARE_ULTRALIGHT_PAGE_SIZE;
    307c:	f1 2c       	mov	r15, r1
    307e:	6d 2d       	mov	r22, r13
    3080:	70 e0       	ldi	r23, 0x00	; 0
    3082:	e6 1a       	sub	r14, r22
    3084:	f7 0a       	sbc	r15, r23
    3086:	ff ef       	ldi	r31, 0xFF	; 255
    3088:	ef 1a       	sub	r14, r31
    308a:	ff 0a       	sbc	r15, r31
    308c:	ee 0c       	add	r14, r14
    308e:	ff 1c       	adc	r15, r15
    3090:	ee 0c       	add	r14, r14
    3092:	ff 1c       	adc	r15, r15
                MemoryReadBlock(Buffer, StartPageAddress * MIFARE_ULTRALIGHT_PAGE_SIZE, ByteCount);
    3094:	66 0f       	add	r22, r22
    3096:	77 1f       	adc	r23, r23
    3098:	66 0f       	add	r22, r22
    309a:	77 1f       	adc	r23, r23
    309c:	a7 01       	movw	r20, r14
    309e:	c8 01       	movw	r24, r16
    30a0:	0e 94 7c 08 	call	0x10f8	; 0x10f8 <MemoryReadBlock>
                ISO14443AAppendCRCA(Buffer, ByteCount);
    30a4:	b7 01       	movw	r22, r14
    30a6:	c8 01       	movw	r24, r16
    30a8:	01 d7       	rcall	.+3586   	; 0x3eac <ISO14443AAppendCRCA>
                return (ByteCount + ISO14443A_CRCA_SIZE) * 8;
    30aa:	c7 01       	movw	r24, r14
    30ac:	02 96       	adiw	r24, 0x02	; 2
    30ae:	a3 e0       	ldi	r26, 0x03	; 3
    30b0:	88 0f       	add	r24, r24
    30b2:	99 1f       	adc	r25, r25
    30b4:	aa 95       	dec	r26
    30b6:	e1 f7       	brne	.-8      	; 0x30b0 <__stack+0xb1>
    30b8:	c5 c0       	rjmp	.+394    	; 0x3244 <__stack+0x245>
            }

            case CMD_PWD_AUTH: {
                uint8_t ConfigAreaAddress = PageCount * MIFARE_ULTRALIGHT_PAGE_SIZE - CONFIG_AREA_SIZE;
    30ba:	e0 90 01 21 	lds	r14, 0x2101	; 0x802101 <PageCount>
    30be:	8e 2d       	mov	r24, r14
    30c0:	88 0f       	add	r24, r24
    30c2:	88 0f       	add	r24, r24
    30c4:	50 ef       	ldi	r21, 0xF0	; 240
    30c6:	e5 2e       	mov	r14, r21
    30c8:	e8 0e       	add	r14, r24
                uint8_t Password[4];
				
				/* Save password */
				MemoryWriteBlock(Buffer+1, MIFARE_ULTRALIGHT_PWD_ADDRESS, 4);
    30ca:	44 e0       	ldi	r20, 0x04	; 4
    30cc:	50 e0       	ldi	r21, 0x00	; 0
    30ce:	68 e0       	ldi	r22, 0x08	; 8
    30d0:	71 e0       	ldi	r23, 0x01	; 1
    30d2:	c8 01       	movw	r24, r16
    30d4:	01 96       	adiw	r24, 0x01	; 1
    30d6:	0e 94 07 09 	call	0x120e	; 0x120e <MemoryWriteBlock>
                    /* Too many failed attempts */
                    Buffer[0] = NAK_AUTH_FAILED;
                    return NAK_FRAME_SIZE;
                }
                /* Read and compare the password */
                MemoryReadBlock(Password, ConfigAreaAddress + CONF_PASSWORD_OFFSET, 4);
    30da:	f1 2c       	mov	r15, r1
    30dc:	b7 01       	movw	r22, r14
    30de:	68 5f       	subi	r22, 0xF8	; 248
    30e0:	7f 4f       	sbci	r23, 0xFF	; 255
    30e2:	44 e0       	ldi	r20, 0x04	; 4
    30e4:	50 e0       	ldi	r21, 0x00	; 0
    30e6:	ce 01       	movw	r24, r28
    30e8:	01 96       	adiw	r24, 0x01	; 1
    30ea:	0e 94 7c 08 	call	0x10f8	; 0x10f8 <MemoryReadBlock>
                if (Password[0] != Buffer[1] || Password[1] != Buffer[2] || Password[2] != Buffer[3] || Password[3] != Buffer[4]) {
    30ee:	99 81       	ldd	r25, Y+1	; 0x01
    30f0:	f8 01       	movw	r30, r16
    30f2:	81 81       	ldd	r24, Z+1	; 0x01
    30f4:	98 13       	cpse	r25, r24
    30f6:	0c c0       	rjmp	.+24     	; 0x3110 <__stack+0x111>
    30f8:	9a 81       	ldd	r25, Y+2	; 0x02
    30fa:	82 81       	ldd	r24, Z+2	; 0x02
    30fc:	98 13       	cpse	r25, r24
    30fe:	08 c0       	rjmp	.+16     	; 0x3110 <__stack+0x111>
    3100:	9b 81       	ldd	r25, Y+3	; 0x03
    3102:	83 81       	ldd	r24, Z+3	; 0x03
    3104:	98 13       	cpse	r25, r24
    3106:	04 c0       	rjmp	.+8      	; 0x3110 <__stack+0x111>
    3108:	9c 81       	ldd	r25, Y+4	; 0x04
    310a:	84 81       	ldd	r24, Z+4	; 0x04
    310c:	98 17       	cp	r25, r24
    310e:	11 f0       	breq	.+4      	; 0x3114 <__stack+0x115>
                    Buffer[0] = NAK_AUTH_FAILED;
    3110:	86 e0       	ldi	r24, 0x06	; 6
    3112:	72 c0       	rjmp	.+228    	; 0x31f8 <__stack+0x1f9>
                    return NAK_FRAME_SIZE;
                }
                /* Authenticate the user */
                AuthCounterReset();
                Authenticated = 1;
    3114:	81 e0       	ldi	r24, 0x01	; 1
    3116:	80 93 fe 20 	sts	0x20FE, r24	; 0x8020fe <Authenticated>
                /* Send the PACK value back */
                MemoryReadBlock(Buffer, ConfigAreaAddress + CONF_PACK_OFFSET, 2);
    311a:	b7 01       	movw	r22, r14
    311c:	64 5f       	subi	r22, 0xF4	; 244
    311e:	7f 4f       	sbci	r23, 0xFF	; 255
    3120:	42 e0       	ldi	r20, 0x02	; 2
    3122:	50 e0       	ldi	r21, 0x00	; 0
    3124:	c8 01       	movw	r24, r16
    3126:	0e 94 7c 08 	call	0x10f8	; 0x10f8 <MemoryReadBlock>
                ISO14443AAppendCRCA(Buffer, 2);
    312a:	62 e0       	ldi	r22, 0x02	; 2
    312c:	70 e0       	ldi	r23, 0x00	; 0
    312e:	c8 01       	movw	r24, r16
    3130:	bd d6       	rcall	.+3450   	; 0x3eac <ISO14443AAppendCRCA>
                return (2 + ISO14443A_CRCA_SIZE) * 8;
    3132:	80 e2       	ldi	r24, 0x20	; 32
    3134:	90 e0       	ldi	r25, 0x00	; 0
    3136:	86 c0       	rjmp	.+268    	; 0x3244 <__stack+0x245>
            }

            case CMD_READ_CNT: {
                uint8_t CounterId = Buffer[1];
    3138:	f8 01       	movw	r30, r16
    313a:	61 81       	ldd	r22, Z+1	; 0x01
                /* Validation */
                if (CounterId > CNT_MAX) {
    313c:	63 30       	cpi	r22, 0x03	; 3
    313e:	08 f0       	brcs	.+2      	; 0x3142 <__stack+0x143>
    3140:	ee ce       	rjmp	.-548    	; 0x2f1e <MifareUltralightAppProcess+0x306>
                    Buffer[0] = NAK_INVALID_ARG;
                    return NAK_FRAME_SIZE;
                }
                /* Returned counter length is 3 bytes */
                MemoryReadBlock(Buffer, (PageCount + CounterId) * MIFARE_ULTRALIGHT_PAGE_SIZE, 3);
    3142:	80 91 01 21 	lds	r24, 0x2101	; 0x802101 <PageCount>
    3146:	70 e0       	ldi	r23, 0x00	; 0
    3148:	68 0f       	add	r22, r24
    314a:	71 1d       	adc	r23, r1
    314c:	66 0f       	add	r22, r22
    314e:	77 1f       	adc	r23, r23
    3150:	66 0f       	add	r22, r22
    3152:	77 1f       	adc	r23, r23
    3154:	43 e0       	ldi	r20, 0x03	; 3
    3156:	50 e0       	ldi	r21, 0x00	; 0
    3158:	c8 01       	movw	r24, r16
    315a:	0e 94 7c 08 	call	0x10f8	; 0x10f8 <MemoryReadBlock>
                ISO14443AAppendCRCA(Buffer, 3);
    315e:	63 e0       	ldi	r22, 0x03	; 3
    3160:	70 e0       	ldi	r23, 0x00	; 0
    3162:	c8 01       	movw	r24, r16
    3164:	a3 d6       	rcall	.+3398   	; 0x3eac <ISO14443AAppendCRCA>
                return (3 + ISO14443A_CRCA_SIZE) * 8;
    3166:	88 e2       	ldi	r24, 0x28	; 40
    3168:	90 e0       	ldi	r25, 0x00	; 0
    316a:	6c c0       	rjmp	.+216    	; 0x3244 <__stack+0x245>
            }

            case CMD_INCREMENT_CNT: {
                uint8_t CounterId = Buffer[1];
    316c:	f8 01       	movw	r30, r16
    316e:	21 81       	ldd	r18, Z+1	; 0x01
                uint32_t Addend = (Buffer[0]) | (Buffer[1] << 8) | ((uint32_t)Buffer[2] << 16);
    3170:	e2 2e       	mov	r14, r18
    3172:	f1 2c       	mov	r15, r1
    3174:	9e 2d       	mov	r25, r14
    3176:	88 27       	eor	r24, r24
    3178:	85 6a       	ori	r24, 0xA5	; 165
    317a:	09 2e       	mov	r0, r25
    317c:	00 0c       	add	r0, r0
    317e:	aa 0b       	sbc	r26, r26
    3180:	bb 0b       	sbc	r27, r27
    3182:	32 81       	ldd	r19, Z+2	; 0x02
    3184:	4c 01       	movw	r8, r24
    3186:	5d 01       	movw	r10, r26
    3188:	a3 2a       	or	r10, r19
                uint32_t Counter;
                /* Validation */
                if (CounterId > CNT_MAX) {
    318a:	23 30       	cpi	r18, 0x03	; 3
    318c:	10 f0       	brcs	.+4      	; 0x3192 <__stack+0x193>
                    Buffer[0] = NAK_INVALID_ARG;
    318e:	10 82       	st	Z, r1
    3190:	35 c0       	rjmp	.+106    	; 0x31fc <__stack+0x1fd>
                    return NAK_FRAME_SIZE;
                }
                /* Read the value out */
                MemoryReadBlock(&Counter, (PageCount + CounterId) * MIFARE_ULTRALIGHT_PAGE_SIZE, MIFARE_ULTRALIGHT_PAGE_SIZE);
    3192:	80 91 01 21 	lds	r24, 0x2101	; 0x802101 <PageCount>
    3196:	b7 01       	movw	r22, r14
    3198:	68 0f       	add	r22, r24
    319a:	71 1d       	adc	r23, r1
    319c:	66 0f       	add	r22, r22
    319e:	77 1f       	adc	r23, r23
    31a0:	66 0f       	add	r22, r22
    31a2:	77 1f       	adc	r23, r23
    31a4:	44 e0       	ldi	r20, 0x04	; 4
    31a6:	50 e0       	ldi	r21, 0x00	; 0
    31a8:	ce 01       	movw	r24, r28
    31aa:	01 96       	adiw	r24, 0x01	; 1
    31ac:	0e 94 7c 08 	call	0x10f8	; 0x10f8 <MemoryReadBlock>
                /* Add and check for overflow */
                Counter += Addend;
    31b0:	49 81       	ldd	r20, Y+1	; 0x01
    31b2:	5a 81       	ldd	r21, Y+2	; 0x02
    31b4:	6b 81       	ldd	r22, Y+3	; 0x03
    31b6:	7c 81       	ldd	r23, Y+4	; 0x04
    31b8:	d5 01       	movw	r26, r10
    31ba:	c4 01       	movw	r24, r8
    31bc:	84 0f       	add	r24, r20
    31be:	95 1f       	adc	r25, r21
    31c0:	a6 1f       	adc	r26, r22
    31c2:	b7 1f       	adc	r27, r23
    31c4:	89 83       	std	Y+1, r24	; 0x01
    31c6:	9a 83       	std	Y+2, r25	; 0x02
    31c8:	ab 83       	std	Y+3, r26	; 0x03
    31ca:	bc 83       	std	Y+4, r27	; 0x04
                if (Counter > CNT_MAX_VALUE) {
    31cc:	00 97       	sbiw	r24, 0x00	; 0
    31ce:	a1 05       	cpc	r26, r1
    31d0:	b1 40       	sbci	r27, 0x01	; 1
    31d2:	10 f0       	brcs	.+4      	; 0x31d8 <__stack+0x1d9>
                    Buffer[0] = NAK_CTR_ERROR;
    31d4:	84 e0       	ldi	r24, 0x04	; 4
    31d6:	10 c0       	rjmp	.+32     	; 0x31f8 <__stack+0x1f9>
                    return NAK_FRAME_SIZE;
                }
                /* Update memory */
                MemoryWriteBlock(&Counter, (PageCount + CounterId) * MIFARE_ULTRALIGHT_PAGE_SIZE, MIFARE_ULTRALIGHT_PAGE_SIZE);
    31d8:	80 91 01 21 	lds	r24, 0x2101	; 0x802101 <PageCount>
    31dc:	b7 01       	movw	r22, r14
    31de:	68 0f       	add	r22, r24
    31e0:	71 1d       	adc	r23, r1
    31e2:	66 0f       	add	r22, r22
    31e4:	77 1f       	adc	r23, r23
    31e6:	66 0f       	add	r22, r22
    31e8:	77 1f       	adc	r23, r23
    31ea:	44 e0       	ldi	r20, 0x04	; 4
    31ec:	50 e0       	ldi	r21, 0x00	; 0
    31ee:	ce 01       	movw	r24, r28
    31f0:	01 96       	adiw	r24, 0x01	; 1
    31f2:	0e 94 07 09 	call	0x120e	; 0x120e <MemoryWriteBlock>
                Buffer[0] = ACK_VALUE;
    31f6:	8a e0       	ldi	r24, 0x0A	; 10
    31f8:	f8 01       	movw	r30, r16
    31fa:	80 83       	st	Z, r24
    31fc:	84 e0       	ldi	r24, 0x04	; 4
    31fe:	90 e0       	ldi	r25, 0x00	; 0
    3200:	21 c0       	rjmp	.+66     	; 0x3244 <__stack+0x245>
                return ACK_FRAME_SIZE;
            }

            case CMD_READ_SIG:
                /* Hardcoded response */
                memset(Buffer, 0xCA, SIGNATURE_LENGTH);
    3202:	40 e2       	ldi	r20, 0x20	; 32
    3204:	50 e0       	ldi	r21, 0x00	; 0
    3206:	6a ec       	ldi	r22, 0xCA	; 202
    3208:	70 e0       	ldi	r23, 0x00	; 0
    320a:	c8 01       	movw	r24, r16
    320c:	0e 94 8d 2a 	call	0x551a	; 0x551a <memset>
                ISO14443AAppendCRCA(Buffer, SIGNATURE_LENGTH);
    3210:	60 e2       	ldi	r22, 0x20	; 32
    3212:	70 e0       	ldi	r23, 0x00	; 0
    3214:	c8 01       	movw	r24, r16
    3216:	4a d6       	rcall	.+3220   	; 0x3eac <ISO14443AAppendCRCA>
                return (SIGNATURE_LENGTH + ISO14443A_CRCA_SIZE) * 8;
    3218:	80 e1       	ldi	r24, 0x10	; 16
    321a:	91 e0       	ldi	r25, 0x01	; 1
    321c:	13 c0       	rjmp	.+38     	; 0x3244 <__stack+0x245>
                Buffer[0] = 0xBD;
                ISO14443AAppendCRCA(Buffer, 1);
                return (1 + ISO14443A_CRCA_SIZE) * 8;

            case CMD_VCSL: {
                uint8_t ConfigAreaAddress = PageCount * MIFARE_ULTRALIGHT_PAGE_SIZE - CONFIG_AREA_SIZE;
    321e:	60 91 01 21 	lds	r22, 0x2101	; 0x802101 <PageCount>
    3222:	66 0f       	add	r22, r22
    3224:	66 0f       	add	r22, r22
    3226:	60 51       	subi	r22, 0x10	; 16
                /* Input is ignored completely */
                /* Read out the value */
                MemoryReadBlock(Buffer, ConfigAreaAddress + CONF_VCTID_OFFSET, 1);
    3228:	70 e0       	ldi	r23, 0x00	; 0
    322a:	6b 5f       	subi	r22, 0xFB	; 251
    322c:	7f 4f       	sbci	r23, 0xFF	; 255
    322e:	41 e0       	ldi	r20, 0x01	; 1
    3230:	50 e0       	ldi	r21, 0x00	; 0
    3232:	c8 01       	movw	r24, r16
    3234:	0e 94 7c 08 	call	0x10f8	; 0x10f8 <MemoryReadBlock>
                ISO14443AAppendCRCA(Buffer, 1);
    3238:	61 e0       	ldi	r22, 0x01	; 1
    323a:	70 e0       	ldi	r23, 0x00	; 0
    323c:	c8 01       	movw	r24, r16
    323e:	36 d6       	rcall	.+3180   	; 0x3eac <ISO14443AAppendCRCA>
                return (1 + ISO14443A_CRCA_SIZE) * 8;
    3240:	88 e1       	ldi	r24, 0x18	; 24
    3242:	90 e0       	ldi	r25, 0x00	; 0
        break;
    }

    /* No response has been sent, when we reach here */
    return ISO14443A_APP_NO_RESPONSE;
}
    3244:	25 96       	adiw	r28, 0x05	; 5
    3246:	cd bf       	out	0x3d, r28	; 61
    3248:	de bf       	out	0x3e, r29	; 62
    324a:	df 91       	pop	r29
    324c:	cf 91       	pop	r28
    324e:	1f 91       	pop	r17
    3250:	0f 91       	pop	r16
    3252:	ff 90       	pop	r15
    3254:	ef 90       	pop	r14
    3256:	df 90       	pop	r13
    3258:	cf 90       	pop	r12
    325a:	bf 90       	pop	r11
    325c:	af 90       	pop	r10
    325e:	9f 90       	pop	r9
    3260:	8f 90       	pop	r8
    3262:	08 95       	ret

00003264 <MifareUltralightGetUid>:

void MifareUltralightGetUid(ConfigurationUidType Uid)
{
    3264:	cf 93       	push	r28
    3266:	df 93       	push	r29
    3268:	ec 01       	movw	r28, r24
    /* Read UID from memory */
    MemoryReadBlock(&Uid[0], UID_CL1_ADDRESS, UID_CL1_SIZE);
    326a:	43 e0       	ldi	r20, 0x03	; 3
    326c:	50 e0       	ldi	r21, 0x00	; 0
    326e:	60 e0       	ldi	r22, 0x00	; 0
    3270:	70 e0       	ldi	r23, 0x00	; 0
    3272:	0e 94 7c 08 	call	0x10f8	; 0x10f8 <MemoryReadBlock>
    MemoryReadBlock(&Uid[UID_CL1_SIZE], UID_CL2_ADDRESS, UID_CL2_SIZE);
    3276:	44 e0       	ldi	r20, 0x04	; 4
    3278:	50 e0       	ldi	r21, 0x00	; 0
    327a:	64 e0       	ldi	r22, 0x04	; 4
    327c:	70 e0       	ldi	r23, 0x00	; 0
    327e:	ce 01       	movw	r24, r28
    3280:	03 96       	adiw	r24, 0x03	; 3
}
    3282:	df 91       	pop	r29
    3284:	cf 91       	pop	r28

void MifareUltralightGetUid(ConfigurationUidType Uid)
{
    /* Read UID from memory */
    MemoryReadBlock(&Uid[0], UID_CL1_ADDRESS, UID_CL1_SIZE);
    MemoryReadBlock(&Uid[UID_CL1_SIZE], UID_CL2_ADDRESS, UID_CL2_SIZE);
    3286:	0c 94 7c 08 	jmp	0x10f8	; 0x10f8 <MemoryReadBlock>

0000328a <MifareUltralightSetUid>:
}

void MifareUltralightSetUid(ConfigurationUidType Uid)
{
    328a:	0f 93       	push	r16
    328c:	1f 93       	push	r17
    328e:	cf 93       	push	r28
    3290:	df 93       	push	r29
    3292:	00 d0       	rcall	.+0      	; 0x3294 <MifareUltralightSetUid+0xa>
    3294:	cd b7       	in	r28, 0x3d	; 61
    3296:	de b7       	in	r29, 0x3e	; 62
    3298:	8c 01       	movw	r16, r24
    /* Calculate check bytes and write everything into memory */
    uint8_t BCC1 = ISO14443A_UID0_CT ^ Uid[0] ^ Uid[1] ^ Uid[2];
    329a:	fc 01       	movw	r30, r24
    329c:	90 81       	ld	r25, Z
    329e:	81 81       	ldd	r24, Z+1	; 0x01
    32a0:	89 27       	eor	r24, r25
    32a2:	98 e8       	ldi	r25, 0x88	; 136
    32a4:	89 27       	eor	r24, r25
    32a6:	92 81       	ldd	r25, Z+2	; 0x02
    32a8:	89 27       	eor	r24, r25
    32aa:	8a 83       	std	Y+2, r24	; 0x02
    uint8_t BCC2 = Uid[3] ^ Uid[4] ^ Uid[5] ^ Uid[6];
    32ac:	94 81       	ldd	r25, Z+4	; 0x04
    32ae:	83 81       	ldd	r24, Z+3	; 0x03
    32b0:	89 27       	eor	r24, r25
    32b2:	95 81       	ldd	r25, Z+5	; 0x05
    32b4:	89 27       	eor	r24, r25
    32b6:	96 81       	ldd	r25, Z+6	; 0x06
    32b8:	89 27       	eor	r24, r25
    32ba:	89 83       	std	Y+1, r24	; 0x01

    MemoryWriteBlock(&Uid[0], UID_CL1_ADDRESS, UID_CL1_SIZE);
    32bc:	43 e0       	ldi	r20, 0x03	; 3
    32be:	50 e0       	ldi	r21, 0x00	; 0
    32c0:	60 e0       	ldi	r22, 0x00	; 0
    32c2:	70 e0       	ldi	r23, 0x00	; 0
    32c4:	c8 01       	movw	r24, r16
    32c6:	0e 94 07 09 	call	0x120e	; 0x120e <MemoryWriteBlock>
    MemoryWriteBlock(&BCC1, UID_BCC1_ADDRESS, ISO14443A_CL_BCC_SIZE);
    32ca:	41 e0       	ldi	r20, 0x01	; 1
    32cc:	50 e0       	ldi	r21, 0x00	; 0
    32ce:	63 e0       	ldi	r22, 0x03	; 3
    32d0:	70 e0       	ldi	r23, 0x00	; 0
    32d2:	ce 01       	movw	r24, r28
    32d4:	02 96       	adiw	r24, 0x02	; 2
    32d6:	0e 94 07 09 	call	0x120e	; 0x120e <MemoryWriteBlock>
    MemoryWriteBlock(&Uid[UID_CL1_SIZE], UID_CL2_ADDRESS, UID_CL2_SIZE);
    32da:	44 e0       	ldi	r20, 0x04	; 4
    32dc:	50 e0       	ldi	r21, 0x00	; 0
    32de:	64 e0       	ldi	r22, 0x04	; 4
    32e0:	70 e0       	ldi	r23, 0x00	; 0
    32e2:	c8 01       	movw	r24, r16
    32e4:	03 96       	adiw	r24, 0x03	; 3
    32e6:	0e 94 07 09 	call	0x120e	; 0x120e <MemoryWriteBlock>
    MemoryWriteBlock(&BCC2, UID_BCC2_ADDRESS, ISO14443A_CL_BCC_SIZE);
    32ea:	41 e0       	ldi	r20, 0x01	; 1
    32ec:	50 e0       	ldi	r21, 0x00	; 0
    32ee:	68 e0       	ldi	r22, 0x08	; 8
    32f0:	70 e0       	ldi	r23, 0x00	; 0
    32f2:	ce 01       	movw	r24, r28
    32f4:	01 96       	adiw	r24, 0x01	; 1
    32f6:	0e 94 07 09 	call	0x120e	; 0x120e <MemoryWriteBlock>
}
    32fa:	0f 90       	pop	r0
    32fc:	0f 90       	pop	r0
    32fe:	df 91       	pop	r29
    3300:	cf 91       	pop	r28
    3302:	1f 91       	pop	r17
    3304:	0f 91       	pop	r16
    3306:	08 95       	ret

00003308 <MifareClassicAppInit1K>:
{
	State = STATE_IDLE;
	CardATQAValue = MFPlus_ATQA_VALUE;
	CardSAKValue = MFCLASSIC_1K_SAK_CL1_VALUE;
	uint8_t UidSize = ActiveConfiguration.UidSize;
	_7BUID = (UidSize == 7);
    3308:	81 e0       	ldi	r24, 0x01	; 1
    330a:	80 93 22 21 	sts	0x2122, r24	; 0x802122 <State>
    330e:	84 e0       	ldi	r24, 0x04	; 4
    3310:	90 e0       	ldi	r25, 0x00	; 0
    3312:	80 93 07 21 	sts	0x2107, r24	; 0x802107 <CardATQAValue>
    3316:	90 93 08 21 	sts	0x2108, r25	; 0x802108 <CardATQAValue+0x1>
    331a:	88 e0       	ldi	r24, 0x08	; 8
    331c:	80 93 06 21 	sts	0x2106, r24	; 0x802106 <CardSAKValue>
    3320:	10 92 05 21 	sts	0x2105, r1	; 0x802105 <_7BUID>
    3324:	08 95       	ret

00003326 <MifareClassicAppInit4K>:
}

void MifareClassicAppInit4K(void)
{
    State = STATE_IDLE;
    3326:	81 e0       	ldi	r24, 0x01	; 1
    3328:	80 93 22 21 	sts	0x2122, r24	; 0x802122 <State>
    CardATQAValue = MFCLASSIC_4K_ATQA_VALUE;
    332c:	82 e0       	ldi	r24, 0x02	; 2
    332e:	90 e0       	ldi	r25, 0x00	; 0
    3330:	80 93 07 21 	sts	0x2107, r24	; 0x802107 <CardATQAValue>
    3334:	90 93 08 21 	sts	0x2108, r25	; 0x802108 <CardATQAValue+0x1>
    CardSAKValue = MFCLASSIC_4K_SAK_CL1_VALUE;
    3338:	88 e1       	ldi	r24, 0x18	; 24
    333a:	80 93 06 21 	sts	0x2106, r24	; 0x802106 <CardSAKValue>
	_7BUID = 0x00;
    333e:	10 92 05 21 	sts	0x2105, r1	; 0x802105 <_7BUID>
    3342:	08 95       	ret

00003344 <MifareClassicAppReset>:
}

void MifareClassicAppReset(void)
{
    State = STATE_IDLE;
    3344:	81 e0       	ldi	r24, 0x01	; 1
    3346:	80 93 22 21 	sts	0x2122, r24	; 0x802122 <State>
    334a:	08 95       	ret

0000334c <MifareClassicAppTask>:
}

void MifareClassicAppTask(void)
{
    334c:	08 95       	ret

0000334e <MifareClassicAppProcess>:

}


uint16_t MifareClassicAppProcess(uint8_t* Buffer, uint16_t BitCount)
{
    334e:	af 92       	push	r10
    3350:	bf 92       	push	r11
    3352:	cf 92       	push	r12
    3354:	df 92       	push	r13
    3356:	ef 92       	push	r14
    3358:	ff 92       	push	r15
    335a:	0f 93       	push	r16
    335c:	1f 93       	push	r17
    335e:	cf 93       	push	r28
    3360:	df 93       	push	r29
    3362:	cd b7       	in	r28, 0x3d	; 61
    3364:	de b7       	in	r29, 0x3e	; 62
    3366:	2f 97       	sbiw	r28, 0x0f	; 15
    3368:	cd bf       	out	0x3d, r28	; 61
    336a:	de bf       	out	0x3e, r29	; 62
    336c:	8c 01       	movw	r16, r24
    switch(State) {
    336e:	80 91 22 21 	lds	r24, 0x2122	; 0x802122 <State>
    3372:	86 30       	cpi	r24, 0x06	; 6
    3374:	09 f4       	brne	.+2      	; 0x3378 <MifareClassicAppProcess+0x2a>
    3376:	4a c0       	rjmp	.+148    	; 0x340c <MifareClassicAppProcess+0xbe>
    3378:	30 f4       	brcc	.+12     	; 0x3386 <MifareClassicAppProcess+0x38>
    337a:	84 30       	cpi	r24, 0x04	; 4
    337c:	59 f1       	breq	.+86     	; 0x33d4 <MifareClassicAppProcess+0x86>
    337e:	b0 f5       	brcc	.+108    	; 0x33ec <MifareClassicAppProcess+0x9e>
    3380:	82 30       	cpi	r24, 0x02	; 2
    3382:	d8 f0       	brcs	.+54     	; 0x33ba <MifareClassicAppProcess+0x6c>
    3384:	b7 c4       	rjmp	.+2414   	; 0x3cf4 <MifareClassicAppProcess+0x9a6>
    3386:	89 30       	cpi	r24, 0x09	; 9
    3388:	09 f4       	brne	.+2      	; 0x338c <MifareClassicAppProcess+0x3e>
    338a:	ce c1       	rjmp	.+924    	; 0x3728 <MifareClassicAppProcess+0x3da>
    338c:	68 f4       	brcc	.+26     	; 0x33a8 <MifareClassicAppProcess+0x5a>
    338e:	87 30       	cpi	r24, 0x07	; 7
    3390:	09 f4       	brne	.+2      	; 0x3394 <MifareClassicAppProcess+0x46>
    3392:	4f c0       	rjmp	.+158    	; 0x3432 <MifareClassicAppProcess+0xe4>
    3394:	88 30       	cpi	r24, 0x08	; 8
    3396:	09 f0       	breq	.+2      	; 0x339a <MifareClassicAppProcess+0x4c>
    3398:	ad c4       	rjmp	.+2394   	; 0x3cf4 <MifareClassicAppProcess+0x9a6>
    339a:	78 01       	movw	r14, r16
    339c:	58 01       	movw	r10, r16
    339e:	b4 e0       	ldi	r27, 0x04	; 4
    33a0:	ab 0e       	add	r10, r27
    33a2:	b1 1c       	adc	r11, r1
    33a4:	68 01       	movw	r12, r16
    33a6:	9b c0       	rjmp	.+310    	; 0x34de <MifareClassicAppProcess+0x190>
    33a8:	8d 30       	cpi	r24, 0x0D	; 13
    33aa:	08 f0       	brcs	.+2      	; 0x33ae <MifareClassicAppProcess+0x60>
    33ac:	a3 c4       	rjmp	.+2374   	; 0x3cf4 <MifareClassicAppProcess+0x9a6>
    33ae:	78 01       	movw	r14, r16
    33b0:	68 01       	movw	r12, r16
    33b2:	f6 e0       	ldi	r31, 0x06	; 6
    33b4:	cf 0e       	add	r12, r31
    33b6:	d1 1c       	adc	r13, r1
    33b8:	e8 c1       	rjmp	.+976    	; 0x378a <MifareClassicAppProcess+0x43c>
    case STATE_IDLE:
    case STATE_HALT:
        if (ISO14443AWakeUp(Buffer, &BitCount, CardATQAValue, true)) {
    33ba:	90 91 07 21 	lds	r25, 0x2107	; 0x802107 <CardATQAValue>
    33be:	80 91 08 21 	lds	r24, 0x2108	; 0x802108 <CardATQAValue+0x1>
INLINE
bool ISO14443AWakeUp(void* Buffer, uint16_t* BitCount, uint16_t ATQAValue, bool FromHalt)
{
    uint8_t* DataPtr = (uint8_t*) Buffer;

    if ( ((! FromHalt) && (DataPtr[0] == ISO14443A_CMD_REQA)) ||
    33c2:	d8 01       	movw	r26, r16
    33c4:	2c 91       	ld	r18, X
    33c6:	22 35       	cpi	r18, 0x52	; 82
    33c8:	09 f0       	breq	.+2      	; 0x33cc <MifareClassicAppProcess+0x7e>
    33ca:	94 c4       	rjmp	.+2344   	; 0x3cf4 <MifareClassicAppProcess+0x9a6>
         (DataPtr[0] == ISO14443A_CMD_WUPA) ){
        DataPtr[0] = (ATQAValue >> 0) & 0x00FF;
    33cc:	9c 93       	st	X, r25
        DataPtr[1] = (ATQAValue >> 8) & 0x00FF;
    33ce:	11 96       	adiw	r26, 0x01	; 1
    33d0:	8c 93       	st	X, r24
    33d2:	2a c0       	rjmp	.+84     	; 0x3428 <MifareClassicAppProcess+0xda>

        return ACK_NAK_FRAME_SIZE;
#endif

    case STATE_READY1:
        if (ISO14443AWakeUp(Buffer, &BitCount, CardATQAValue, false)) {
    33d4:	20 91 07 21 	lds	r18, 0x2107	; 0x802107 <CardATQAValue>
    33d8:	90 91 08 21 	lds	r25, 0x2108	; 0x802108 <CardATQAValue+0x1>
INLINE
bool ISO14443AWakeUp(void* Buffer, uint16_t* BitCount, uint16_t ATQAValue, bool FromHalt)
{
    uint8_t* DataPtr = (uint8_t*) Buffer;

    if ( ((! FromHalt) && (DataPtr[0] == ISO14443A_CMD_REQA)) ||
    33dc:	f8 01       	movw	r30, r16
    33de:	80 81       	ld	r24, Z
    33e0:	86 32       	cpi	r24, 0x26	; 38
    33e2:	79 f0       	breq	.+30     	; 0x3402 <MifareClassicAppProcess+0xb4>
    33e4:	82 35       	cpi	r24, 0x52	; 82
    33e6:	09 f0       	breq	.+2      	; 0x33ea <MifareClassicAppProcess+0x9c>
    33e8:	83 c2       	rjmp	.+1286   	; 0x38f0 <MifareClassicAppProcess+0x5a2>
    33ea:	0b c0       	rjmp	.+22     	; 0x3402 <MifareClassicAppProcess+0xb4>
            State = STATE_HALT;
        }
        break;

    case STATE_READY2:
    if (ISO14443AWakeUp(Buffer, &BitCount, CardATQAValue, false)) {
    33ec:	20 91 07 21 	lds	r18, 0x2107	; 0x802107 <CardATQAValue>
    33f0:	90 91 08 21 	lds	r25, 0x2108	; 0x802108 <CardATQAValue+0x1>
    33f4:	f8 01       	movw	r30, r16
    33f6:	80 81       	ld	r24, Z
    33f8:	86 32       	cpi	r24, 0x26	; 38
    33fa:	19 f0       	breq	.+6      	; 0x3402 <MifareClassicAppProcess+0xb4>
    33fc:	82 35       	cpi	r24, 0x52	; 82
    33fe:	09 f0       	breq	.+2      	; 0x3402 <MifareClassicAppProcess+0xb4>
    3400:	c5 c3       	rjmp	.+1930   	; 0x3b8c <MifareClassicAppProcess+0x83e>
         (DataPtr[0] == ISO14443A_CMD_WUPA) ){
        DataPtr[0] = (ATQAValue >> 0) & 0x00FF;
    3402:	d8 01       	movw	r26, r16
    3404:	2c 93       	st	X, r18
        DataPtr[1] = (ATQAValue >> 8) & 0x00FF;
    3406:	11 96       	adiw	r26, 0x01	; 1
    3408:	9c 93       	st	X, r25
    340a:	0e c0       	rjmp	.+28     	; 0x3428 <MifareClassicAppProcess+0xda>
	    State = STATE_HALT;
    }
    break;

    case STATE_ACTIVE:
        if (ISO14443AWakeUp(Buffer, &BitCount, CardATQAValue, false)) {
    340c:	20 91 07 21 	lds	r18, 0x2107	; 0x802107 <CardATQAValue>
    3410:	90 91 08 21 	lds	r25, 0x2108	; 0x802108 <CardATQAValue+0x1>
INLINE
bool ISO14443AWakeUp(void* Buffer, uint16_t* BitCount, uint16_t ATQAValue, bool FromHalt)
{
    uint8_t* DataPtr = (uint8_t*) Buffer;

    if ( ((! FromHalt) && (DataPtr[0] == ISO14443A_CMD_REQA)) ||
    3414:	d8 01       	movw	r26, r16
    3416:	8c 91       	ld	r24, X
    3418:	86 32       	cpi	r24, 0x26	; 38
    341a:	19 f0       	breq	.+6      	; 0x3422 <MifareClassicAppProcess+0xd4>
    341c:	82 35       	cpi	r24, 0x52	; 82
    341e:	09 f0       	breq	.+2      	; 0x3422 <MifareClassicAppProcess+0xd4>
    3420:	a3 c3       	rjmp	.+1862   	; 0x3b68 <MifareClassicAppProcess+0x81a>
         (DataPtr[0] == ISO14443A_CMD_WUPA) ){
        DataPtr[0] = (ATQAValue >> 0) & 0x00FF;
    3422:	f8 01       	movw	r30, r16
    3424:	20 83       	st	Z, r18
        DataPtr[1] = (ATQAValue >> 8) & 0x00FF;
    3426:	91 83       	std	Z+1, r25	; 0x01
            State = STATE_READY1;
    3428:	84 e0       	ldi	r24, 0x04	; 4
    342a:	80 93 22 21 	sts	0x2122, r24	; 0x802122 <State>

        *BitCount = ISO14443A_ATQA_FRAME_SIZE;
    342e:	80 e1       	ldi	r24, 0x10	; 16
    3430:	62 c4       	rjmp	.+2244   	; 0x3cf6 <MifareClassicAppProcess+0x9a8>

    case STATE_AUTHING:
        /* Reader delivers an encrypted nonce. We use it
        * to setup the crypto1 LFSR in nonlinear feedback mode.
        * Furthermore it delivers an encrypted answer. Decrypt and check it */
        Crypto1Auth(&Buffer[0]);
    3432:	c8 01       	movw	r24, r16
    3434:	47 d6       	rcall	.+3214   	; 0x40c4 <Crypto1Auth>
    3436:	78 01       	movw	r14, r16
    3438:	b4 e0       	ldi	r27, 0x04	; 4
    343a:	eb 0e       	add	r14, r27
    343c:	f1 1c       	adc	r15, r1
    343e:	68 01       	movw	r12, r16
    3440:	e8 e0       	ldi	r30, 0x08	; 8
    3442:	ce 0e       	add	r12, r30
    3444:	d1 1c       	adc	r13, r1

        for (uint8_t i=0; i<4; i++)
            Buffer[i+4] ^= Crypto1Byte();
    3446:	51 d6       	rcall	.+3234   	; 0x40ea <Crypto1Byte>
    3448:	d7 01       	movw	r26, r14
    344a:	9c 91       	ld	r25, X
    344c:	89 27       	eor	r24, r25
    344e:	f7 01       	movw	r30, r14
    3450:	81 93       	st	Z+, r24
    3452:	7f 01       	movw	r14, r30
        /* Reader delivers an encrypted nonce. We use it
        * to setup the crypto1 LFSR in nonlinear feedback mode.
        * Furthermore it delivers an encrypted answer. Decrypt and check it */
        Crypto1Auth(&Buffer[0]);

        for (uint8_t i=0; i<4; i++)
    3454:	ec 15       	cp	r30, r12
    3456:	fd 05       	cpc	r31, r13
    3458:	b1 f7       	brne	.-20     	; 0x3446 <MifareClassicAppProcess+0xf8>
            Buffer[i+4] ^= Crypto1Byte();

        if ((Buffer[4] == ReaderResponse[0]) &&
    345a:	d8 01       	movw	r26, r16
    345c:	14 96       	adiw	r26, 0x04	; 4
    345e:	9c 91       	ld	r25, X
    3460:	14 97       	sbiw	r26, 0x04	; 4
    3462:	80 91 1a 21 	lds	r24, 0x211A	; 0x80211a <ReaderResponse>
    3466:	98 17       	cp	r25, r24
    3468:	11 f0       	breq	.+4      	; 0x346e <MifareClassicAppProcess+0x120>
            State = STATE_IDLE;
            Buffer[0] = NAK_NOT_AUTHED;
            return ACK_NAK_FRAME_SIZE;
        } else {
            /* Unknown command. Enter HALT state. */
            State = STATE_IDLE;
    346a:	81 e0       	ldi	r24, 0x01	; 1
    346c:	38 c2       	rjmp	.+1136   	; 0x38de <MifareClassicAppProcess+0x590>
        Crypto1Auth(&Buffer[0]);

        for (uint8_t i=0; i<4; i++)
            Buffer[i+4] ^= Crypto1Byte();

        if ((Buffer[4] == ReaderResponse[0]) &&
    346e:	15 96       	adiw	r26, 0x05	; 5
    3470:	9c 91       	ld	r25, X
    3472:	15 97       	sbiw	r26, 0x05	; 5
    3474:	80 91 1b 21 	lds	r24, 0x211B	; 0x80211b <ReaderResponse+0x1>
    3478:	98 13       	cpse	r25, r24
    347a:	f7 cf       	rjmp	.-18     	; 0x346a <MifareClassicAppProcess+0x11c>
            (Buffer[5] == ReaderResponse[1]) &&
    347c:	16 96       	adiw	r26, 0x06	; 6
    347e:	9c 91       	ld	r25, X
    3480:	16 97       	sbiw	r26, 0x06	; 6
    3482:	80 91 1c 21 	lds	r24, 0x211C	; 0x80211c <ReaderResponse+0x2>
    3486:	98 13       	cpse	r25, r24
    3488:	f0 cf       	rjmp	.-32     	; 0x346a <MifareClassicAppProcess+0x11c>
            (Buffer[6] == ReaderResponse[2]) &&
    348a:	17 96       	adiw	r26, 0x07	; 7
    348c:	9c 91       	ld	r25, X
    348e:	80 91 1d 21 	lds	r24, 0x211D	; 0x80211d <ReaderResponse+0x3>
    3492:	98 13       	cpse	r25, r24
    3494:	ea cf       	rjmp	.-44     	; 0x346a <MifareClassicAppProcess+0x11c>
    3496:	78 01       	movw	r14, r16
    3498:	6e e1       	ldi	r22, 0x1E	; 30
    349a:	c6 2e       	mov	r12, r22
    349c:	61 e2       	ldi	r22, 0x21	; 33
    349e:	d6 2e       	mov	r13, r22
    34a0:	04 e0       	ldi	r16, 0x04	; 4
    34a2:	0c 0d       	add	r16, r12
    34a4:	56 01       	movw	r10, r12
            (Buffer[7] == ReaderResponse[3])) {
            /* Reader is authenticated. Encrypt the precalculated card response
            * and generate the parity bits. */
            for (uint8_t i=0; i<sizeof(CardResponse); i++) {
                Buffer[i] = CardResponse[i] ^ Crypto1Byte();
    34a6:	f6 01       	movw	r30, r12
    34a8:	11 91       	ld	r17, Z+
    34aa:	6f 01       	movw	r12, r30
    34ac:	1e d6       	rcall	.+3132   	; 0x40ea <Crypto1Byte>
    34ae:	81 27       	eor	r24, r17
    34b0:	d7 01       	movw	r26, r14
    34b2:	8d 93       	st	X+, r24
    34b4:	7d 01       	movw	r14, r26

INLINE uint8_t OddParityBit(uint8_t Byte)
{
    extern const uint8_t PROGMEM OddParityByteTable[];

    return pgm_read_byte(&OddParityByteTable[Byte]);
    34b6:	d5 01       	movw	r26, r10
    34b8:	ec 91       	ld	r30, X
    34ba:	f0 e0       	ldi	r31, 0x00	; 0
    34bc:	e9 5e       	subi	r30, 0xE9	; 233
    34be:	fb 4f       	sbci	r31, 0xFB	; 251
    34c0:	14 91       	lpm	r17, Z
                Buffer[ISO14443A_BUFFER_PARITY_OFFSET + i] = ODD_PARITY(CardResponse[i]) ^ Crypto1FilterOutput();
    34c2:	0e 94 25 05 	call	0xa4a	; 0xa4a <Crypto1FilterOutput>
    34c6:	d7 01       	movw	r26, r14
    34c8:	a1 58       	subi	r26, 0x81	; 129
    34ca:	bf 4f       	sbci	r27, 0xFF	; 255
    34cc:	81 27       	eor	r24, r17
    34ce:	8c 93       	st	X, r24
            (Buffer[5] == ReaderResponse[1]) &&
            (Buffer[6] == ReaderResponse[2]) &&
            (Buffer[7] == ReaderResponse[3])) {
            /* Reader is authenticated. Encrypt the precalculated card response
            * and generate the parity bits. */
            for (uint8_t i=0; i<sizeof(CardResponse); i++) {
    34d0:	0c 11       	cpse	r16, r12
    34d2:	e8 cf       	rjmp	.-48     	; 0x34a4 <MifareClassicAppProcess+0x156>
                Buffer[i] = CardResponse[i] ^ Crypto1Byte();
                Buffer[ISO14443A_BUFFER_PARITY_OFFSET + i] = ODD_PARITY(CardResponse[i]) ^ Crypto1FilterOutput();
            }

            State = STATE_AUTHED_IDLE;
    34d4:	88 e0       	ldi	r24, 0x08	; 8
    34d6:	80 93 22 21 	sts	0x2122, r24	; 0x802122 <State>

            return (CMD_AUTH_BA_FRAME_SIZE * BITS_PER_BYTE) | ISO14443A_APP_CUSTOM_PARITY;
    34da:	80 e2       	ldi	r24, 0x20	; 32
    34dc:	40 c0       	rjmp	.+128    	; 0x355e <MifareClassicAppProcess+0x210>

    case STATE_AUTHED_IDLE:
        /* In this state, all communication is encrypted. Thus we first have to encrypt
        * the incoming data. */
        for (uint8_t i=0; i<4; i++)
            Buffer[i] ^= Crypto1Byte();
    34de:	05 d6       	rcall	.+3082   	; 0x40ea <Crypto1Byte>
    34e0:	f6 01       	movw	r30, r12
    34e2:	90 81       	ld	r25, Z
    34e4:	89 27       	eor	r24, r25
    34e6:	d6 01       	movw	r26, r12
    34e8:	8d 93       	st	X+, r24
    34ea:	6d 01       	movw	r12, r26
        break;

    case STATE_AUTHED_IDLE:
        /* In this state, all communication is encrypted. Thus we first have to encrypt
        * the incoming data. */
        for (uint8_t i=0; i<4; i++)
    34ec:	aa 15       	cp	r26, r10
    34ee:	bb 05       	cpc	r27, r11
    34f0:	b1 f7       	brne	.-20     	; 0x34de <MifareClassicAppProcess+0x190>
            Buffer[i] ^= Crypto1Byte();

        if (Buffer[0] == CMD_READ) {
    34f2:	f8 01       	movw	r30, r16
    34f4:	80 81       	ld	r24, Z
    34f6:	80 33       	cpi	r24, 0x30	; 48
    34f8:	a1 f5       	brne	.+104    	; 0x3562 <MifareClassicAppProcess+0x214>
            if (ISO14443ACheckCRCA(Buffer, CMD_READ_FRAME_SIZE)) {
    34fa:	62 e0       	ldi	r22, 0x02	; 2
    34fc:	70 e0       	ldi	r23, 0x00	; 0
    34fe:	c8 01       	movw	r24, r16
    3500:	00 d5       	rcall	.+2560   	; 0x3f02 <ISO14443ACheckCRCA>
    3502:	88 23       	and	r24, r24
    3504:	09 f4       	brne	.+2      	; 0x3508 <MifareClassicAppProcess+0x1ba>
    3506:	81 c0       	rjmp	.+258    	; 0x360a <MifareClassicAppProcess+0x2bc>
                /* Read command. Read data from memory and append CRCA. */
                MemoryReadBlock(Buffer, (uint16_t) Buffer[1] * MEM_BYTES_PER_BLOCK, MEM_BYTES_PER_BLOCK);
    3508:	d8 01       	movw	r26, r16
    350a:	11 96       	adiw	r26, 0x01	; 1
    350c:	6c 91       	ld	r22, X
    350e:	b0 e1       	ldi	r27, 0x10	; 16
    3510:	6b 9f       	mul	r22, r27
    3512:	b0 01       	movw	r22, r0
    3514:	11 24       	eor	r1, r1
    3516:	40 e1       	ldi	r20, 0x10	; 16
    3518:	50 e0       	ldi	r21, 0x00	; 0
    351a:	c8 01       	movw	r24, r16
    351c:	0e 94 7c 08 	call	0x10f8	; 0x10f8 <MemoryReadBlock>
                ISO14443AAppendCRCA(Buffer, MEM_BYTES_PER_BLOCK);
    3520:	60 e1       	ldi	r22, 0x10	; 16
    3522:	70 e0       	ldi	r23, 0x00	; 0
    3524:	c8 01       	movw	r24, r16
    3526:	c2 d4       	rcall	.+2436   	; 0x3eac <ISO14443AAppendCRCA>
    3528:	68 01       	movw	r12, r16
    352a:	e2 e1       	ldi	r30, 0x12	; 18
    352c:	ce 0e       	add	r12, r30
    352e:	d1 1c       	adc	r13, r1

                /* Encrypt and calculate parity bits. */
                for (uint8_t i=0; i<(ISO14443A_CRCA_SIZE + MEM_BYTES_PER_BLOCK); i++) {
                    uint8_t Plain = Buffer[i];
    3530:	d7 01       	movw	r26, r14
    3532:	1c 91       	ld	r17, X
                    Buffer[i] = Plain ^ Crypto1Byte();
    3534:	da d5       	rcall	.+2996   	; 0x40ea <Crypto1Byte>
    3536:	81 27       	eor	r24, r17
    3538:	f7 01       	movw	r30, r14
    353a:	81 93       	st	Z+, r24
    353c:	7f 01       	movw	r14, r30
    353e:	e1 2f       	mov	r30, r17
    3540:	f0 e0       	ldi	r31, 0x00	; 0
    3542:	e9 5e       	subi	r30, 0xE9	; 233
    3544:	fb 4f       	sbci	r31, 0xFB	; 251
    3546:	14 91       	lpm	r17, Z
                    Buffer[ISO14443A_BUFFER_PARITY_OFFSET + i] = ODD_PARITY(Plain) ^ Crypto1FilterOutput();
    3548:	0e 94 25 05 	call	0xa4a	; 0xa4a <Crypto1FilterOutput>
    354c:	d7 01       	movw	r26, r14
    354e:	a1 58       	subi	r26, 0x81	; 129
    3550:	bf 4f       	sbci	r27, 0xFF	; 255
    3552:	81 27       	eor	r24, r17
    3554:	8c 93       	st	X, r24
                /* Read command. Read data from memory and append CRCA. */
                MemoryReadBlock(Buffer, (uint16_t) Buffer[1] * MEM_BYTES_PER_BLOCK, MEM_BYTES_PER_BLOCK);
                ISO14443AAppendCRCA(Buffer, MEM_BYTES_PER_BLOCK);

                /* Encrypt and calculate parity bits. */
                for (uint8_t i=0; i<(ISO14443A_CRCA_SIZE + MEM_BYTES_PER_BLOCK); i++) {
    3556:	ec 14       	cp	r14, r12
    3558:	fd 04       	cpc	r15, r13
    355a:	51 f7       	brne	.-44     	; 0x3530 <MifareClassicAppProcess+0x1e2>
                    uint8_t Plain = Buffer[i];
                    Buffer[i] = Plain ^ Crypto1Byte();
                    Buffer[ISO14443A_BUFFER_PARITY_OFFSET + i] = ODD_PARITY(Plain) ^ Crypto1FilterOutput();
                }

                return ( (CMD_READ_RESPONSE_FRAME_SIZE + ISO14443A_CRCA_SIZE )
    355c:	80 e9       	ldi	r24, 0x90	; 144
    355e:	90 e1       	ldi	r25, 0x10	; 16
    3560:	51 c4       	rjmp	.+2210   	; 0x3e04 <MifareClassicAppProcess+0xab6>
                        * BITS_PER_BYTE) | ISO14443A_APP_CUSTOM_PARITY;
            } else {
                Buffer[0] = NAK_CRC_ERROR ^ Crypto1Nibble();
                return ACK_NAK_FRAME_SIZE;
            }
        } else if (Buffer[0] == CMD_WRITE) {
    3562:	80 3a       	cpi	r24, 0xA0	; 160
    3564:	71 f4       	brne	.+28     	; 0x3582 <MifareClassicAppProcess+0x234>
            if (ISO14443ACheckCRCA(Buffer, CMD_WRITE_FRAME_SIZE)) {
    3566:	62 e0       	ldi	r22, 0x02	; 2
    3568:	70 e0       	ldi	r23, 0x00	; 0
    356a:	c8 01       	movw	r24, r16
    356c:	ca d4       	rcall	.+2452   	; 0x3f02 <ISO14443ACheckCRCA>
    356e:	88 23       	and	r24, r24
    3570:	b9 f0       	breq	.+46     	; 0x35a0 <MifareClassicAppProcess+0x252>
                /* Write command. Store the address and prepare for the upcoming data.
                * Respond with ACK. */
                CurrentAddress = Buffer[1];
    3572:	f8 01       	movw	r30, r16
    3574:	81 81       	ldd	r24, Z+1	; 0x01
    3576:	80 93 19 21 	sts	0x2119, r24	; 0x802119 <CurrentAddress>
                State = STATE_WRITE;
    357a:	89 e0       	ldi	r24, 0x09	; 9
    357c:	80 93 22 21 	sts	0x2122, r24	; 0x802122 <State>
    3580:	57 c0       	rjmp	.+174    	; 0x3630 <MifareClassicAppProcess+0x2e2>
                Buffer[0] = ACK_VALUE ^ Crypto1Nibble();
            } else {
                Buffer[0] = NAK_CRC_ERROR ^ Crypto1Nibble();
            }
            return ACK_NAK_FRAME_SIZE;
        } else if (Buffer[0] == CMD_DECREMENT) {
    3582:	80 3c       	cpi	r24, 0xC0	; 192
    3584:	99 f0       	breq	.+38     	; 0x35ac <MifareClassicAppProcess+0x25e>
                Buffer[0] = ACK_VALUE ^ Crypto1Nibble();
            } else {
                Buffer[0] = NAK_CRC_ERROR ^ Crypto1Nibble();
            }
            return ACK_NAK_FRAME_SIZE;
        } else if (Buffer[0] == CMD_INCREMENT) {
    3586:	81 3c       	cpi	r24, 0xC1	; 193
    3588:	f1 f0       	breq	.+60     	; 0x35c6 <MifareClassicAppProcess+0x278>
                Buffer[0] = ACK_VALUE ^ Crypto1Nibble();
            } else {
                Buffer[0] = NAK_CRC_ERROR ^ Crypto1Nibble();
            }
            return ACK_NAK_FRAME_SIZE;
        } else if (Buffer[0] == CMD_RESTORE) {
    358a:	82 3c       	cpi	r24, 0xC2	; 194
    358c:	69 f1       	breq	.+90     	; 0x35e8 <MifareClassicAppProcess+0x29a>
                Buffer[0] = ACK_VALUE ^ Crypto1Nibble();
            } else {
                Buffer[0] = NAK_CRC_ERROR ^ Crypto1Nibble();
            }
            return ACK_NAK_FRAME_SIZE;
        }else if (Buffer[0] == CMD_TRANSFER) {
    358e:	80 3b       	cpi	r24, 0xB0	; 176
    3590:	09 f0       	breq	.+2      	; 0x3594 <MifareClassicAppProcess+0x246>
    3592:	54 c0       	rjmp	.+168    	; 0x363c <MifareClassicAppProcess+0x2ee>
            /* Write back the global block buffer to the desired block address */
            if (ISO14443ACheckCRCA(Buffer, CMD_TRANSFER_FRAME_SIZE)) {
    3594:	62 e0       	ldi	r22, 0x02	; 2
    3596:	70 e0       	ldi	r23, 0x00	; 0
    3598:	c8 01       	movw	r24, r16
    359a:	b3 d4       	rcall	.+2406   	; 0x3f02 <ISO14443ACheckCRCA>
    359c:	81 11       	cpse	r24, r1
    359e:	38 c0       	rjmp	.+112    	; 0x3610 <MifareClassicAppProcess+0x2c2>
                * Respond with ACK. */
                CurrentAddress = Buffer[1];
                State = STATE_WRITE;
                Buffer[0] = ACK_VALUE ^ Crypto1Nibble();
            } else {
                Buffer[0] = NAK_CRC_ERROR ^ Crypto1Nibble();
    35a0:	b5 d5       	rcall	.+2922   	; 0x410c <Crypto1Nibble>
    35a2:	91 e0       	ldi	r25, 0x01	; 1
    35a4:	89 27       	eor	r24, r25
    35a6:	f8 01       	movw	r30, r16
    35a8:	80 83       	st	Z, r24
    35aa:	ed c0       	rjmp	.+474    	; 0x3786 <MifareClassicAppProcess+0x438>
            }
            return ACK_NAK_FRAME_SIZE;
        } else if (Buffer[0] == CMD_DECREMENT) {
            if (ISO14443ACheckCRCA(Buffer, CMD_DECREMENT_FRAME_SIZE)) {
    35ac:	62 e0       	ldi	r22, 0x02	; 2
    35ae:	70 e0       	ldi	r23, 0x00	; 0
    35b0:	c8 01       	movw	r24, r16
    35b2:	a7 d4       	rcall	.+2382   	; 0x3f02 <ISO14443ACheckCRCA>
    35b4:	88 23       	and	r24, r24
    35b6:	49 f1       	breq	.+82     	; 0x360a <MifareClassicAppProcess+0x2bc>
                CurrentAddress = Buffer[1];
    35b8:	d8 01       	movw	r26, r16
    35ba:	11 96       	adiw	r26, 0x01	; 1
    35bc:	8c 91       	ld	r24, X
    35be:	80 93 19 21 	sts	0x2119, r24	; 0x802119 <CurrentAddress>
                State = STATE_DECREMENT;
    35c2:	8b e0       	ldi	r24, 0x0B	; 11
    35c4:	1d c0       	rjmp	.+58     	; 0x3600 <MifareClassicAppProcess+0x2b2>
            } else {
                Buffer[0] = NAK_CRC_ERROR ^ Crypto1Nibble();
            }
            return ACK_NAK_FRAME_SIZE;
        } else if (Buffer[0] == CMD_INCREMENT) {
            if (ISO14443ACheckCRCA(Buffer, CMD_DECREMENT_FRAME_SIZE)) {
    35c6:	62 e0       	ldi	r22, 0x02	; 2
    35c8:	70 e0       	ldi	r23, 0x00	; 0
    35ca:	c8 01       	movw	r24, r16
    35cc:	9a d4       	rcall	.+2356   	; 0x3f02 <ISO14443ACheckCRCA>
    35ce:	88 23       	and	r24, r24
    35d0:	39 f3       	breq	.-50     	; 0x35a0 <MifareClassicAppProcess+0x252>
                CurrentAddress = Buffer[1];
    35d2:	f8 01       	movw	r30, r16
    35d4:	81 81       	ldd	r24, Z+1	; 0x01
    35d6:	80 93 19 21 	sts	0x2119, r24	; 0x802119 <CurrentAddress>
                State = STATE_INCREMENT;
    35da:	5a e0       	ldi	r21, 0x0A	; 10
    35dc:	f5 2e       	mov	r15, r21
    35de:	f0 92 22 21 	sts	0x2122, r15	; 0x802122 <State>
                Buffer[0] = ACK_VALUE ^ Crypto1Nibble();
    35e2:	94 d5       	rcall	.+2856   	; 0x410c <Crypto1Nibble>
    35e4:	8f 25       	eor	r24, r15
    35e6:	27 c0       	rjmp	.+78     	; 0x3636 <MifareClassicAppProcess+0x2e8>
            } else {
                Buffer[0] = NAK_CRC_ERROR ^ Crypto1Nibble();
            }
            return ACK_NAK_FRAME_SIZE;
        } else if (Buffer[0] == CMD_RESTORE) {
            if (ISO14443ACheckCRCA(Buffer, CMD_DECREMENT_FRAME_SIZE)) {
    35e8:	62 e0       	ldi	r22, 0x02	; 2
    35ea:	70 e0       	ldi	r23, 0x00	; 0
    35ec:	c8 01       	movw	r24, r16
    35ee:	89 d4       	rcall	.+2322   	; 0x3f02 <ISO14443ACheckCRCA>
    35f0:	88 23       	and	r24, r24
    35f2:	59 f0       	breq	.+22     	; 0x360a <MifareClassicAppProcess+0x2bc>
                CurrentAddress = Buffer[1];
    35f4:	d8 01       	movw	r26, r16
    35f6:	11 96       	adiw	r26, 0x01	; 1
    35f8:	8c 91       	ld	r24, X
    35fa:	80 93 19 21 	sts	0x2119, r24	; 0x802119 <CurrentAddress>
                State = STATE_RESTORE;
    35fe:	8c e0       	ldi	r24, 0x0C	; 12
    3600:	80 93 22 21 	sts	0x2122, r24	; 0x802122 <State>
                Buffer[0] = ACK_VALUE ^ Crypto1Nibble();
    3604:	83 d5       	rcall	.+2822   	; 0x410c <Crypto1Nibble>
    3606:	9a e0       	ldi	r25, 0x0A	; 10
    3608:	cd cf       	rjmp	.-102    	; 0x35a4 <MifareClassicAppProcess+0x256>
            } else {
                Buffer[0] = NAK_CRC_ERROR ^ Crypto1Nibble();
    360a:	80 d5       	rcall	.+2816   	; 0x410c <Crypto1Nibble>
    360c:	91 e0       	ldi	r25, 0x01	; 1
    360e:	12 c0       	rjmp	.+36     	; 0x3634 <MifareClassicAppProcess+0x2e6>
            }
            return ACK_NAK_FRAME_SIZE;
        }else if (Buffer[0] == CMD_TRANSFER) {
            /* Write back the global block buffer to the desired block address */
            if (ISO14443ACheckCRCA(Buffer, CMD_TRANSFER_FRAME_SIZE)) {
                if (!ActiveConfiguration.ReadOnly) {
    3610:	80 91 51 21 	lds	r24, 0x2151	; 0x802151 <ActiveConfiguration+0x17>
    3614:	81 11       	cpse	r24, r1
    3616:	0c c0       	rjmp	.+24     	; 0x3630 <MifareClassicAppProcess+0x2e2>
                    MemoryWriteBlock(BlockBuffer, (uint16_t) Buffer[1] * MEM_BYTES_PER_BLOCK, MEM_BYTES_PER_BLOCK );
    3618:	f8 01       	movw	r30, r16
    361a:	61 81       	ldd	r22, Z+1	; 0x01
    361c:	f0 e1       	ldi	r31, 0x10	; 16
    361e:	6f 9f       	mul	r22, r31
    3620:	b0 01       	movw	r22, r0
    3622:	11 24       	eor	r1, r1
    3624:	40 e1       	ldi	r20, 0x10	; 16
    3626:	50 e0       	ldi	r21, 0x00	; 0
    3628:	89 e0       	ldi	r24, 0x09	; 9
    362a:	91 e2       	ldi	r25, 0x21	; 33
    362c:	0e 94 07 09 	call	0x120e	; 0x120e <MemoryWriteBlock>
                } else {
                    /* In read only mode, silently ignore the write */
                }

                Buffer[0] = ACK_VALUE ^ Crypto1Nibble();
    3630:	6d d5       	rcall	.+2778   	; 0x410c <Crypto1Nibble>
    3632:	9a e0       	ldi	r25, 0x0A	; 10
    3634:	89 27       	eor	r24, r25
    3636:	d8 01       	movw	r26, r16
    3638:	8c 93       	st	X, r24
    363a:	a5 c0       	rjmp	.+330    	; 0x3786 <MifareClassicAppProcess+0x438>
            } else {
                Buffer[0] = NAK_CRC_ERROR ^ Crypto1Nibble();
            }

            return ACK_NAK_FRAME_SIZE;
        } else if ( (Buffer[0] == CMD_AUTH_A) || (Buffer[0] == CMD_AUTH_B) ) {
    363c:	80 56       	subi	r24, 0x60	; 96
    363e:	82 30       	cpi	r24, 0x02	; 2
    3640:	08 f0       	brcs	.+2      	; 0x3644 <MifareClassicAppProcess+0x2f6>
    3642:	13 cf       	rjmp	.-474    	; 0x346a <MifareClassicAppProcess+0x11c>
            if (ISO14443ACheckCRCA(Buffer, CMD_AUTH_FRAME_SIZE)) {
    3644:	62 e0       	ldi	r22, 0x02	; 2
    3646:	70 e0       	ldi	r23, 0x00	; 0
    3648:	c8 01       	movw	r24, r16
    364a:	5b d4       	rcall	.+2230   	; 0x3f02 <ISO14443ACheckCRCA>
    364c:	88 23       	and	r24, r24
    364e:	09 f4       	brne	.+2      	; 0x3652 <MifareClassicAppProcess+0x304>
    3650:	a7 cf       	rjmp	.-178    	; 0x35a0 <MifareClassicAppProcess+0x252>
                /* Nested authentication. */
                uint8_t SectorAddress = Buffer[1] & MEM_SECTOR_ADDR_MASK;
    3652:	d8 01       	movw	r26, r16
    3654:	11 96       	adiw	r26, 0x01	; 1
    3656:	8c 91       	ld	r24, X
    3658:	11 97       	sbiw	r26, 0x01	; 1
    365a:	8c 73       	andi	r24, 0x3C	; 60
                uint8_t KeyOffset = (Buffer[0] == CMD_AUTH_A ? MEM_KEY_A_OFFSET : MEM_KEY_B_OFFSET);
    365c:	9c 91       	ld	r25, X
    365e:	90 36       	cpi	r25, 0x60	; 96
    3660:	11 f0       	breq	.+4      	; 0x3666 <MifareClassicAppProcess+0x318>
    3662:	9a e3       	ldi	r25, 0x3A	; 58
    3664:	01 c0       	rjmp	.+2      	; 0x3668 <MifareClassicAppProcess+0x31a>
    3666:	90 e3       	ldi	r25, 0x30	; 48
                uint16_t KeyAddress = (uint16_t) SectorAddress * MEM_BYTES_PER_BLOCK + KeyOffset;
    3668:	b0 e1       	ldi	r27, 0x10	; 16
    366a:	8b 9f       	mul	r24, r27
    366c:	80 01       	movw	r16, r0
    366e:	11 24       	eor	r1, r1
    3670:	09 0f       	add	r16, r25
    3672:	11 1d       	adc	r17, r1
                uint8_t Key[6];
                uint8_t Uid[4];
				uint8_t CardNonce[4]={0x01};
    3674:	1f 82       	std	Y+7, r1	; 0x07
    3676:	18 86       	std	Y+8, r1	; 0x08
    3678:	19 86       	std	Y+9, r1	; 0x09
    367a:	1a 86       	std	Y+10, r1	; 0x0a
    367c:	81 e0       	ldi	r24, 0x01	; 1
    367e:	8f 83       	std	Y+7, r24	; 0x07

                /* Generate a random nonce and read UID and key from memory */
                //RandomGetBuffer(CardNonce, sizeof(CardNonce));
                if (_7BUID)
    3680:	80 91 05 21 	lds	r24, 0x2105	; 0x802105 <_7BUID>
					MemoryReadBlock(Uid, MEM_UID_CL2_ADDRESS, MEM_UID_CL2_SIZE);
    3684:	44 e0       	ldi	r20, 0x04	; 4
    3686:	50 e0       	ldi	r21, 0x00	; 0
                uint8_t Uid[4];
				uint8_t CardNonce[4]={0x01};

                /* Generate a random nonce and read UID and key from memory */
                //RandomGetBuffer(CardNonce, sizeof(CardNonce));
                if (_7BUID)
    3688:	88 23       	and	r24, r24
    368a:	19 f0       	breq	.+6      	; 0x3692 <MifareClassicAppProcess+0x344>
					MemoryReadBlock(Uid, MEM_UID_CL2_ADDRESS, MEM_UID_CL2_SIZE);
    368c:	63 e0       	ldi	r22, 0x03	; 3
    368e:	70 e0       	ldi	r23, 0x00	; 0
    3690:	02 c0       	rjmp	.+4      	; 0x3696 <MifareClassicAppProcess+0x348>
                else
                MemoryReadBlock(Uid, MEM_UID_CL1_ADDRESS, MEM_UID_CL1_SIZE);
    3692:	60 e0       	ldi	r22, 0x00	; 0
    3694:	70 e0       	ldi	r23, 0x00	; 0
    3696:	ce 01       	movw	r24, r28
    3698:	0b 96       	adiw	r24, 0x0b	; 11
    369a:	0e 94 7c 08 	call	0x10f8	; 0x10f8 <MemoryReadBlock>
                MemoryReadBlock(Key, KeyAddress, MEM_KEY_SIZE);
    369e:	46 e0       	ldi	r20, 0x06	; 6
    36a0:	50 e0       	ldi	r21, 0x00	; 0
    36a2:	b8 01       	movw	r22, r16
    36a4:	ce 01       	movw	r24, r28
    36a6:	01 96       	adiw	r24, 0x01	; 1
    36a8:	0e 94 7c 08 	call	0x10f8	; 0x10f8 <MemoryReadBlock>

                /* Precalculate the reader response from card-nonce */
                for (uint8_t i=0; i<sizeof(ReaderResponse); i++)
                    ReaderResponse[i] = CardNonce[i];
    36ac:	8f 81       	ldd	r24, Y+7	; 0x07
    36ae:	80 93 1a 21 	sts	0x211A, r24	; 0x80211a <ReaderResponse>
    36b2:	88 85       	ldd	r24, Y+8	; 0x08
    36b4:	80 93 1b 21 	sts	0x211B, r24	; 0x80211b <ReaderResponse+0x1>
    36b8:	89 85       	ldd	r24, Y+9	; 0x09
    36ba:	80 93 1c 21 	sts	0x211C, r24	; 0x80211c <ReaderResponse+0x2>
    36be:	8a 85       	ldd	r24, Y+10	; 0x0a
    36c0:	80 93 1d 21 	sts	0x211D, r24	; 0x80211d <ReaderResponse+0x3>

                Crypto1PRNG(ReaderResponse, 64);
    36c4:	60 e4       	ldi	r22, 0x40	; 64
    36c6:	70 e0       	ldi	r23, 0x00	; 0
    36c8:	8a e1       	ldi	r24, 0x1A	; 26
    36ca:	91 e2       	ldi	r25, 0x21	; 33
    36cc:	30 d5       	rcall	.+2656   	; 0x412e <Crypto1PRNG>

                /* Precalculate our response from the reader response */
                for (uint8_t i=0; i<sizeof(CardResponse); i++)
                    CardResponse[i] = ReaderResponse[i];
    36ce:	80 91 1a 21 	lds	r24, 0x211A	; 0x80211a <ReaderResponse>
    36d2:	80 93 1e 21 	sts	0x211E, r24	; 0x80211e <CardResponse>
    36d6:	80 91 1b 21 	lds	r24, 0x211B	; 0x80211b <ReaderResponse+0x1>
    36da:	80 93 1f 21 	sts	0x211F, r24	; 0x80211f <CardResponse+0x1>
    36de:	80 91 1c 21 	lds	r24, 0x211C	; 0x80211c <ReaderResponse+0x2>
    36e2:	80 93 20 21 	sts	0x2120, r24	; 0x802120 <CardResponse+0x2>
    36e6:	80 91 1d 21 	lds	r24, 0x211D	; 0x80211d <ReaderResponse+0x3>
    36ea:	80 93 21 21 	sts	0x2121, r24	; 0x802121 <CardResponse+0x3>

                Crypto1PRNG(CardResponse, 32);
    36ee:	60 e2       	ldi	r22, 0x20	; 32
    36f0:	70 e0       	ldi	r23, 0x00	; 0
    36f2:	8e e1       	ldi	r24, 0x1E	; 30
    36f4:	91 e2       	ldi	r25, 0x21	; 33
    36f6:	1b d5       	rcall	.+2614   	; 0x412e <Crypto1PRNG>

                /* Setup crypto1 cipher. */
                Crypto1Setup(Key, Uid, CardNonce);
    36f8:	ae 01       	movw	r20, r28
    36fa:	49 5f       	subi	r20, 0xF9	; 249
    36fc:	5f 4f       	sbci	r21, 0xFF	; 255
    36fe:	be 01       	movw	r22, r28
    3700:	65 5f       	subi	r22, 0xF5	; 245
    3702:	7f 4f       	sbci	r23, 0xFF	; 255
    3704:	ce 01       	movw	r24, r28
    3706:	01 96       	adiw	r24, 0x01	; 1
    3708:	46 d4       	rcall	.+2188   	; 0x3f96 <Crypto1Setup>
    370a:	fe 01       	movw	r30, r28
    370c:	37 96       	adiw	r30, 0x07	; 7
    370e:	84 e0       	ldi	r24, 0x04	; 4
    3710:	8e 0f       	add	r24, r30

                for (uint8_t i=0; i<sizeof(CardNonce); i++)
                    Buffer[i] = CardNonce[i];
    3712:	91 91       	ld	r25, Z+
    3714:	d7 01       	movw	r26, r14
    3716:	9d 93       	st	X+, r25
    3718:	7d 01       	movw	r14, r26
                Crypto1PRNG(CardResponse, 32);

                /* Setup crypto1 cipher. */
                Crypto1Setup(Key, Uid, CardNonce);

                for (uint8_t i=0; i<sizeof(CardNonce); i++)
    371a:	8e 13       	cpse	r24, r30
    371c:	fa cf       	rjmp	.-12     	; 0x3712 <MifareClassicAppProcess+0x3c4>
                    Buffer[i] = CardNonce[i];

                /* Respond with the encrypted random card nonce and expect further authentication
                * form the reader in the next frame. */
                State = STATE_AUTHING;
    371e:	87 e0       	ldi	r24, 0x07	; 7
    3720:	80 93 22 21 	sts	0x2122, r24	; 0x802122 <State>

                return CMD_AUTH_RB_FRAME_SIZE * BITS_PER_BYTE;
    3724:	80 e2       	ldi	r24, 0x20	; 32
    3726:	e7 c2       	rjmp	.+1486   	; 0x3cf6 <MifareClassicAppProcess+0x9a8>
    3728:	78 01       	movw	r14, r16
    372a:	68 01       	movw	r12, r16
    372c:	f2 e1       	ldi	r31, 0x12	; 18
    372e:	cf 0e       	add	r12, r31
    3730:	d1 1c       	adc	r13, r1
         * check for CRC. Then write the data when ReadOnly mode is not
         * activated. */

        /* We receive 16 bytes of data to be written and 2 bytes CRCA. Decrypt */
        for (uint8_t i=0; i<(MEM_BYTES_PER_BLOCK + ISO14443A_CRCA_SIZE); i++)
            Buffer[i] ^= Crypto1Byte();
    3732:	db d4       	rcall	.+2486   	; 0x40ea <Crypto1Byte>
    3734:	d7 01       	movw	r26, r14
    3736:	9c 91       	ld	r25, X
    3738:	89 27       	eor	r24, r25
    373a:	f7 01       	movw	r30, r14
    373c:	81 93       	st	Z+, r24
    373e:	7f 01       	movw	r14, r30
         * sending the data to be written. Decrypt the data first and
         * check for CRC. Then write the data when ReadOnly mode is not
         * activated. */

        /* We receive 16 bytes of data to be written and 2 bytes CRCA. Decrypt */
        for (uint8_t i=0; i<(MEM_BYTES_PER_BLOCK + ISO14443A_CRCA_SIZE); i++)
    3740:	ec 15       	cp	r30, r12
    3742:	fd 05       	cpc	r31, r13
    3744:	b1 f7       	brne	.-20     	; 0x3732 <MifareClassicAppProcess+0x3e4>
            Buffer[i] ^= Crypto1Byte();

        if (ISO14443ACheckCRCA(Buffer, MEM_BYTES_PER_BLOCK)) {
    3746:	60 e1       	ldi	r22, 0x10	; 16
    3748:	70 e0       	ldi	r23, 0x00	; 0
    374a:	c8 01       	movw	r24, r16
    374c:	da d3       	rcall	.+1972   	; 0x3f02 <ISO14443ACheckCRCA>
    374e:	88 23       	and	r24, r24
    3750:	91 f0       	breq	.+36     	; 0x3776 <MifareClassicAppProcess+0x428>
            if (!ActiveConfiguration.ReadOnly) {
    3752:	80 91 51 21 	lds	r24, 0x2151	; 0x802151 <ActiveConfiguration+0x17>
    3756:	81 11       	cpse	r24, r1
    3758:	0b c0       	rjmp	.+22     	; 0x3770 <MifareClassicAppProcess+0x422>
                MemoryWriteBlock(Buffer, CurrentAddress * MEM_BYTES_PER_BLOCK, MEM_BYTES_PER_BLOCK);
    375a:	60 91 19 21 	lds	r22, 0x2119	; 0x802119 <CurrentAddress>
    375e:	f0 e1       	ldi	r31, 0x10	; 16
    3760:	6f 9f       	mul	r22, r31
    3762:	b0 01       	movw	r22, r0
    3764:	11 24       	eor	r1, r1
    3766:	40 e1       	ldi	r20, 0x10	; 16
    3768:	50 e0       	ldi	r21, 0x00	; 0
    376a:	c8 01       	movw	r24, r16
    376c:	0e 94 07 09 	call	0x120e	; 0x120e <MemoryWriteBlock>
            } else {
                /* Silently ignore in ReadOnly mode */
            }

            Buffer[0] = ACK_VALUE ^ Crypto1Nibble();
    3770:	cd d4       	rcall	.+2458   	; 0x410c <Crypto1Nibble>
    3772:	9a e0       	ldi	r25, 0x0A	; 10
    3774:	b9 c0       	rjmp	.+370    	; 0x38e8 <MifareClassicAppProcess+0x59a>
        } else {
            Buffer[0] = NAK_CRC_ERROR ^ Crypto1Nibble();
    3776:	ca d4       	rcall	.+2452   	; 0x410c <Crypto1Nibble>
    3778:	91 e0       	ldi	r25, 0x01	; 1
    377a:	89 27       	eor	r24, r25
    377c:	f8 01       	movw	r30, r16
    377e:	80 83       	st	Z, r24
        }

        State = STATE_AUTHED_IDLE;
    3780:	88 e0       	ldi	r24, 0x08	; 8
    3782:	80 93 22 21 	sts	0x2122, r24	; 0x802122 <State>
        return ACK_NAK_FRAME_SIZE;
    3786:	84 e0       	ldi	r24, 0x04	; 4
    3788:	b6 c2       	rjmp	.+1388   	; 0x3cf6 <MifareClassicAppProcess+0x9a8>
         * decrypt the data and check CRC. Read data from the requested block
         * address into the global block buffer and check for integrity. Then
         * add or subtract according to issued command if necessary and store
         * the block back into the global block buffer. */
        for (uint8_t i=0; i<(MEM_VALUE_SIZE  + ISO14443A_CRCA_SIZE); i++)
            Buffer[i] ^= Crypto1Byte();
    378a:	af d4       	rcall	.+2398   	; 0x40ea <Crypto1Byte>
    378c:	d7 01       	movw	r26, r14
    378e:	9c 91       	ld	r25, X
    3790:	89 27       	eor	r24, r25
    3792:	f7 01       	movw	r30, r14
    3794:	81 93       	st	Z+, r24
    3796:	7f 01       	movw	r14, r30
         * been issued earlier and the reader is now sending the data. First,
         * decrypt the data and check CRC. Read data from the requested block
         * address into the global block buffer and check for integrity. Then
         * add or subtract according to issued command if necessary and store
         * the block back into the global block buffer. */
        for (uint8_t i=0; i<(MEM_VALUE_SIZE  + ISO14443A_CRCA_SIZE); i++)
    3798:	ec 15       	cp	r30, r12
    379a:	fd 05       	cpc	r31, r13
    379c:	b1 f7       	brne	.-20     	; 0x378a <MifareClassicAppProcess+0x43c>
            Buffer[i] ^= Crypto1Byte();

        if (ISO14443ACheckCRCA(Buffer, MEM_VALUE_SIZE )) {
    379e:	64 e0       	ldi	r22, 0x04	; 4
    37a0:	70 e0       	ldi	r23, 0x00	; 0
    37a2:	c8 01       	movw	r24, r16
    37a4:	ae d3       	rcall	.+1884   	; 0x3f02 <ISO14443ACheckCRCA>
    37a6:	88 23       	and	r24, r24
    37a8:	09 f4       	brne	.+2      	; 0x37ac <MifareClassicAppProcess+0x45e>
    37aa:	9c c0       	rjmp	.+312    	; 0x38e4 <MifareClassicAppProcess+0x596>
            MemoryReadBlock(BlockBuffer, (uint16_t) CurrentAddress * MEM_BYTES_PER_BLOCK, MEM_BYTES_PER_BLOCK);
    37ac:	60 91 19 21 	lds	r22, 0x2119	; 0x802119 <CurrentAddress>
    37b0:	f0 e1       	ldi	r31, 0x10	; 16
    37b2:	6f 9f       	mul	r22, r31
    37b4:	b0 01       	movw	r22, r0
    37b6:	11 24       	eor	r1, r1
    37b8:	40 e1       	ldi	r20, 0x10	; 16
    37ba:	50 e0       	ldi	r21, 0x00	; 0
    37bc:	89 e0       	ldi	r24, 0x09	; 9
    37be:	91 e2       	ldi	r25, 0x21	; 33
    37c0:	0e 94 7c 08 	call	0x10f8	; 0x10f8 <MemoryReadBlock>

INLINE bool CheckValueIntegrity(uint8_t* Block)
{
    /* Value Blocks contain a value stored three times, with
     * the middle portion inverted. */
    if (    (Block[0] == (uint8_t) ~Block[4]) && (Block[0] == Block[8])
    37c4:	30 91 09 21 	lds	r19, 0x2109	; 0x802109 <BlockBuffer>
    37c8:	80 91 0d 21 	lds	r24, 0x210D	; 0x80210d <BlockBuffer+0x4>
    37cc:	80 95       	com	r24
    37ce:	38 13       	cpse	r19, r24
    37d0:	0e c3       	rjmp	.+1564   	; 0x3dee <MifareClassicAppProcess+0xaa0>
    37d2:	80 91 11 21 	lds	r24, 0x2111	; 0x802111 <BlockBuffer+0x8>
    37d6:	38 13       	cpse	r19, r24
    37d8:	0a c3       	rjmp	.+1556   	; 0x3dee <MifareClassicAppProcess+0xaa0>
         && (Block[1] == (uint8_t) ~Block[5]) && (Block[1] == Block[9])
    37da:	e0 91 0a 21 	lds	r30, 0x210A	; 0x80210a <BlockBuffer+0x1>
    37de:	80 91 0e 21 	lds	r24, 0x210E	; 0x80210e <BlockBuffer+0x5>
    37e2:	80 95       	com	r24
    37e4:	e8 13       	cpse	r30, r24
    37e6:	03 c3       	rjmp	.+1542   	; 0x3dee <MifareClassicAppProcess+0xaa0>
    37e8:	80 91 12 21 	lds	r24, 0x2112	; 0x802112 <BlockBuffer+0x9>
    37ec:	e8 13       	cpse	r30, r24
    37ee:	ff c2       	rjmp	.+1534   	; 0x3dee <MifareClassicAppProcess+0xaa0>
         && (Block[2] == (uint8_t) ~Block[6]) && (Block[2] == Block[10])
    37f0:	80 91 0b 21 	lds	r24, 0x210B	; 0x80210b <BlockBuffer+0x2>
    37f4:	90 91 0f 21 	lds	r25, 0x210F	; 0x80210f <BlockBuffer+0x6>
    37f8:	90 95       	com	r25
    37fa:	89 13       	cpse	r24, r25
    37fc:	f8 c2       	rjmp	.+1520   	; 0x3dee <MifareClassicAppProcess+0xaa0>
    37fe:	90 91 13 21 	lds	r25, 0x2113	; 0x802113 <BlockBuffer+0xa>
    3802:	89 13       	cpse	r24, r25
    3804:	f4 c2       	rjmp	.+1512   	; 0x3dee <MifareClassicAppProcess+0xaa0>
         && (Block[3] == (uint8_t) ~Block[7]) && (Block[3] == Block[11])
    3806:	20 91 0c 21 	lds	r18, 0x210C	; 0x80210c <BlockBuffer+0x3>
    380a:	90 91 10 21 	lds	r25, 0x2110	; 0x802110 <BlockBuffer+0x7>
    380e:	90 95       	com	r25
    3810:	29 13       	cpse	r18, r25
    3812:	ed c2       	rjmp	.+1498   	; 0x3dee <MifareClassicAppProcess+0xaa0>
    3814:	90 91 14 21 	lds	r25, 0x2114	; 0x802114 <BlockBuffer+0xb>
    3818:	29 13       	cpse	r18, r25
    381a:	e9 c2       	rjmp	.+1490   	; 0x3dee <MifareClassicAppProcess+0xaa0>
         && (Block[12] == (uint8_t) ~Block[13])
    381c:	40 91 15 21 	lds	r20, 0x2115	; 0x802115 <BlockBuffer+0xc>
    3820:	90 91 16 21 	lds	r25, 0x2116	; 0x802116 <BlockBuffer+0xd>
    3824:	90 95       	com	r25
    3826:	49 13       	cpse	r20, r25
    3828:	e2 c2       	rjmp	.+1476   	; 0x3dee <MifareClassicAppProcess+0xaa0>
         && (Block[12] == Block[14])
    382a:	90 91 17 21 	lds	r25, 0x2117	; 0x802117 <BlockBuffer+0xe>
    382e:	49 13       	cpse	r20, r25
    3830:	de c2       	rjmp	.+1468   	; 0x3dee <MifareClassicAppProcess+0xaa0>
         && (Block[14] == (uint8_t) ~Block[15])) {
    3832:	90 91 18 21 	lds	r25, 0x2118	; 0x802118 <BlockBuffer+0xf>
    3836:	90 95       	com	r25
    3838:	49 13       	cpse	r20, r25
    383a:	d9 c2       	rjmp	.+1458   	; 0x3dee <MifareClassicAppProcess+0xaa0>
}

INLINE void ValueFromBlock(uint32_t* Value, uint8_t* Block)
{
    *Value = 0;
    *Value |= ((uint32_t) Block[0] << 0);
    383c:	d8 01       	movw	r26, r16
    383e:	9c 91       	ld	r25, X
    *Value |= ((uint32_t) Block[1] << 8);
    3840:	11 96       	adiw	r26, 0x01	; 1
    3842:	fc 91       	ld	r31, X
    3844:	11 97       	sbiw	r26, 0x01	; 1
    *Value |= ((uint32_t) Block[2] << 16);
    3846:	12 96       	adiw	r26, 0x02	; 2
    3848:	4c 91       	ld	r20, X
    384a:	12 97       	sbiw	r26, 0x02	; 2
    384c:	50 e0       	ldi	r21, 0x00	; 0
    384e:	60 e0       	ldi	r22, 0x00	; 0
    3850:	70 e0       	ldi	r23, 0x00	; 0
    3852:	ba 01       	movw	r22, r20
    3854:	55 27       	eor	r21, r21
    3856:	44 27       	eor	r20, r20
    3858:	5f 2b       	or	r21, r31
    385a:	49 2b       	or	r20, r25
    *Value |= ((uint32_t) Block[3] << 24);
    385c:	13 96       	adiw	r26, 0x03	; 3
    385e:	9c 91       	ld	r25, X
    3860:	79 2b       	or	r23, r25
INLINE void ValueFromBlock(uint32_t* Value, uint8_t* Block)
{
    *Value = 0;
    *Value |= ((uint32_t) Block[0] << 0);
    *Value |= ((uint32_t) Block[1] << 8);
    *Value |= ((uint32_t) Block[2] << 16);
    3862:	90 e0       	ldi	r25, 0x00	; 0
    3864:	a0 e0       	ldi	r26, 0x00	; 0
    3866:	b0 e0       	ldi	r27, 0x00	; 0
    3868:	dc 01       	movw	r26, r24
    386a:	99 27       	eor	r25, r25
    386c:	88 27       	eor	r24, r24
    386e:	9e 2b       	or	r25, r30
    3870:	83 2b       	or	r24, r19
    *Value |= ((uint32_t) Block[3] << 24);
    3872:	b2 2b       	or	r27, r18
                uint32_t BlockValue;

                ValueFromBlock(&ParamValue, Buffer);
                ValueFromBlock(&BlockValue, BlockBuffer);

                if (State == STATE_DECREMENT) {
    3874:	20 91 22 21 	lds	r18, 0x2122	; 0x802122 <State>
    3878:	2b 30       	cpi	r18, 0x0B	; 11
    387a:	09 f0       	breq	.+2      	; 0x387e <MifareClassicAppProcess+0x530>
    387c:	bb c2       	rjmp	.+1398   	; 0x3df4 <MifareClassicAppProcess+0xaa6>
                    BlockValue -= ParamValue;
    387e:	84 1b       	sub	r24, r20
    3880:	95 0b       	sbc	r25, r21
    3882:	a6 0b       	sbc	r26, r22
    3884:	b7 0b       	sbc	r27, r23
    *Value |= ((uint32_t) Block[3] << 24);
}

INLINE void ValueToBlock(uint8_t* Block, uint32_t Value)
{
    Block[0] = (uint8_t) (Value >> 0);
    3886:	80 93 09 21 	sts	0x2109, r24	; 0x802109 <BlockBuffer>
    Block[1] = (uint8_t) (Value >> 8);
    388a:	c9 2e       	mov	r12, r25
    388c:	da 2e       	mov	r13, r26
    388e:	eb 2e       	mov	r14, r27
    3890:	ff 24       	eor	r15, r15
    3892:	c0 92 0a 21 	sts	0x210A, r12	; 0x80210a <BlockBuffer+0x1>
    Block[2] = (uint8_t) (Value >> 16);
    3896:	8d 01       	movw	r16, r26
    3898:	22 27       	eor	r18, r18
    389a:	33 27       	eor	r19, r19
    389c:	00 93 0b 21 	sts	0x210B, r16	; 0x80210b <BlockBuffer+0x2>
    Block[3] = (uint8_t) (Value >> 24);
    38a0:	4b 2f       	mov	r20, r27
    38a2:	55 27       	eor	r21, r21
    38a4:	66 27       	eor	r22, r22
    38a6:	77 27       	eor	r23, r23
    38a8:	40 93 0c 21 	sts	0x210C, r20	; 0x80210c <BlockBuffer+0x3>
    Block[4] = ~Block[0];
    38ac:	e8 2f       	mov	r30, r24
    38ae:	e0 95       	com	r30
    38b0:	e0 93 0d 21 	sts	0x210D, r30	; 0x80210d <BlockBuffer+0x4>
    Block[5] = ~Block[1];
    38b4:	ec 2d       	mov	r30, r12
    38b6:	e0 95       	com	r30
    38b8:	e0 93 0e 21 	sts	0x210E, r30	; 0x80210e <BlockBuffer+0x5>
    Block[6] = ~Block[2];
    38bc:	e0 2f       	mov	r30, r16
    38be:	e0 95       	com	r30
    38c0:	e0 93 0f 21 	sts	0x210F, r30	; 0x80210f <BlockBuffer+0x6>
    Block[7] = ~Block[3];
    38c4:	e4 2f       	mov	r30, r20
    38c6:	e0 95       	com	r30
    38c8:	e0 93 10 21 	sts	0x2110, r30	; 0x802110 <BlockBuffer+0x7>
    Block[8] = Block[0];
    38cc:	80 93 11 21 	sts	0x2111, r24	; 0x802111 <BlockBuffer+0x8>
    Block[9] = Block[1];
    38d0:	c0 92 12 21 	sts	0x2112, r12	; 0x802112 <BlockBuffer+0x9>
    Block[10] = Block[2];
    38d4:	00 93 13 21 	sts	0x2113, r16	; 0x802113 <BlockBuffer+0xa>
    Block[11] = Block[3];
    38d8:	40 93 14 21 	sts	0x2114, r20	; 0x802114 <BlockBuffer+0xb>
                    /* Do nothing */
                }

                ValueToBlock(BlockBuffer, BlockValue);

                State = STATE_AUTHED_IDLE;
    38dc:	88 e0       	ldi	r24, 0x08	; 8
    38de:	80 93 22 21 	sts	0x2122, r24	; 0x802122 <State>
    38e2:	08 c2       	rjmp	.+1040   	; 0x3cf4 <MifareClassicAppProcess+0x9a6>
                /* Not sure if this is the correct error code.. */
                Buffer[0] = NAK_OTHER_ERROR ^ Crypto1Nibble();
            }
        } else {
            /* CRC Error. */
            Buffer[0] = NAK_CRC_ERROR ^ Crypto1Nibble();
    38e4:	13 d4       	rcall	.+2086   	; 0x410c <Crypto1Nibble>
    38e6:	91 e0       	ldi	r25, 0x01	; 1
    38e8:	89 27       	eor	r24, r25
    38ea:	d8 01       	movw	r26, r16
    38ec:	8c 93       	st	X, r24
    38ee:	48 cf       	rjmp	.-368    	; 0x3780 <MifareClassicAppProcess+0x432>

    case STATE_READY1:
        if (ISO14443AWakeUp(Buffer, &BitCount, CardATQAValue, false)) {
            State = STATE_READY1;
            return BitCount;
        } else if (Buffer[0] == ISO14443A_CMD_SELECT_CL1) {
    38f0:	83 39       	cpi	r24, 0x93	; 147
    38f2:	09 f0       	breq	.+2      	; 0x38f6 <MifareClassicAppProcess+0x5a8>
    38f4:	48 c1       	rjmp	.+656    	; 0x3b86 <MifareClassicAppProcess+0x838>
            /* Load UID CL1 and perform anticollision */
            uint8_t UidCL1[ISO14443A_CL_UID_SIZE];
			
            if (_7BUID) {
    38f6:	80 91 05 21 	lds	r24, 0x2105	; 0x802105 <_7BUID>
    38fa:	88 23       	and	r24, r24
    38fc:	09 f4       	brne	.+2      	; 0x3900 <MifareClassicAppProcess+0x5b2>
    38fe:	a1 c0       	rjmp	.+322    	; 0x3a42 <MifareClassicAppProcess+0x6f4>
	            MemoryReadBlock(&UidCL1[1], MEM_UID_CL1_ADDRESS, MEM_UID_CL1_SIZE-1);
    3900:	43 e0       	ldi	r20, 0x03	; 3
    3902:	50 e0       	ldi	r21, 0x00	; 0
    3904:	60 e0       	ldi	r22, 0x00	; 0
    3906:	70 e0       	ldi	r23, 0x00	; 0
    3908:	ce 01       	movw	r24, r28
    390a:	02 96       	adiw	r24, 0x02	; 2
    390c:	0e 94 7c 08 	call	0x10f8	; 0x10f8 <MemoryReadBlock>
	            UidCL1[0] = ISO14443A_UID0_CT;
    3910:	88 e8       	ldi	r24, 0x88	; 136
    3912:	89 83       	std	Y+1, r24	; 0x01

INLINE
bool ISO14443ASelect(void* Buffer, uint16_t* BitCount, uint8_t* UidCL, uint8_t SAKValue)
{
    uint8_t* DataPtr = (uint8_t*) Buffer;
    uint8_t NVB = DataPtr[1];
    3914:	f8 01       	movw	r30, r16
    3916:	91 81       	ldd	r25, Z+1	; 0x01
    //uint8_t CollisionByteCount = (NVB >> 4) & 0x0F;
    //uint8_t CollisionBitCount =  (NVB >> 0) & 0x0F;

    switch (NVB) {
    3918:	90 32       	cpi	r25, 0x20	; 32
    391a:	19 f0       	breq	.+6      	; 0x3922 <MifareClassicAppProcess+0x5d4>
    391c:	90 37       	cpi	r25, 0x70	; 112
    391e:	61 f0       	breq	.+24     	; 0x3938 <MifareClassicAppProcess+0x5ea>
    3920:	24 c0       	rjmp	.+72     	; 0x396a <MifareClassicAppProcess+0x61c>
    case ISO14443A_NVB_AC_START:
        /* Start of anticollision procedure.
        * Send whole UID CLn + BCC */
        DataPtr[0] = UidCL[0];
    3922:	d8 01       	movw	r26, r16
    3924:	80 83       	st	Z, r24
        DataPtr[1] = UidCL[1];
    3926:	3a 81       	ldd	r19, Y+2	; 0x02
    3928:	31 83       	std	Z+1, r19	; 0x01
        DataPtr[2] = UidCL[2];
    392a:	2b 81       	ldd	r18, Y+3	; 0x03
    392c:	22 83       	std	Z+2, r18	; 0x02
        DataPtr[3] = UidCL[3];
    392e:	9c 81       	ldd	r25, Y+4	; 0x04
    3930:	93 83       	std	Z+3, r25	; 0x03
    3932:	23 27       	eor	r18, r19
        DataPtr[4] = ISO14443A_CALC_BCC(DataPtr);
    3934:	82 27       	eor	r24, r18
    3936:	4b c1       	rjmp	.+662    	; 0x3bce <MifareClassicAppProcess+0x880>
        return false;

    case ISO14443A_NVB_AC_END:
        /* End of anticollision procedure.
        * Send SAK CLn if we are selected. */
        if (    (DataPtr[2] == UidCL[0]) &&
    3938:	f8 01       	movw	r30, r16
    393a:	82 81       	ldd	r24, Z+2	; 0x02
    393c:	88 38       	cpi	r24, 0x88	; 136
    393e:	09 f0       	breq	.+2      	; 0x3942 <MifareClassicAppProcess+0x5f4>
    3940:	d9 c1       	rjmp	.+946    	; 0x3cf4 <MifareClassicAppProcess+0x9a6>
    3942:	93 81       	ldd	r25, Z+3	; 0x03
    3944:	8a 81       	ldd	r24, Y+2	; 0x02
    3946:	98 13       	cpse	r25, r24
    3948:	d5 c1       	rjmp	.+938    	; 0x3cf4 <MifareClassicAppProcess+0x9a6>
                (DataPtr[3] == UidCL[1]) &&
    394a:	94 81       	ldd	r25, Z+4	; 0x04
    394c:	8b 81       	ldd	r24, Y+3	; 0x03
    394e:	98 13       	cpse	r25, r24
    3950:	d1 c1       	rjmp	.+930    	; 0x3cf4 <MifareClassicAppProcess+0x9a6>
                (DataPtr[4] == UidCL[2]) &&
    3952:	95 81       	ldd	r25, Z+5	; 0x05
    3954:	8c 81       	ldd	r24, Y+4	; 0x04
    3956:	98 13       	cpse	r25, r24
    3958:	cd c1       	rjmp	.+922    	; 0x3cf4 <MifareClassicAppProcess+0x9a6>
                (DataPtr[5] == UidCL[3]) ) {

            DataPtr[0] = SAKValue;
    395a:	84 e0       	ldi	r24, 0x04	; 4
    395c:	80 83       	st	Z, r24
            ISO14443AAppendCRCA(Buffer, 1);
    395e:	61 e0       	ldi	r22, 0x01	; 1
    3960:	70 e0       	ldi	r23, 0x00	; 0
    3962:	c8 01       	movw	r24, r16
    3964:	a3 d2       	rcall	.+1350   	; 0x3eac <ISO14443AAppendCRCA>
	            if (ISO14443ASelect(Buffer, &BitCount, UidCL1, SAK_CL1_VALUE))
	            State = STATE_READY2;
    3966:	85 e0       	ldi	r24, 0x05	; 5
    3968:	4f c1       	rjmp	.+670    	; 0x3c08 <MifareClassicAppProcess+0x8ba>
            *BitCount = 0;
            return false;
        }
    default:
    {
        uint8_t CollisionByteCount = ((NVB >> 4) & 0x0f) - 2;
    396a:	e9 2e       	mov	r14, r25
    396c:	e2 94       	swap	r14
    396e:	ff e0       	ldi	r31, 0x0F	; 15
    3970:	ef 22       	and	r14, r31
    3972:	2e ef       	ldi	r18, 0xFE	; 254
    3974:	2e 0d       	add	r18, r14
        uint8_t CollisionBitCount  = (NVB >> 0) & 0x0f;
    3976:	9f 70       	andi	r25, 0x0F	; 15
    3978:	f9 2e       	mov	r15, r25
        uint8_t mask = 0xFF >> (8 - CollisionBitCount);
    397a:	88 e0       	ldi	r24, 0x08	; 8
    397c:	90 e0       	ldi	r25, 0x00	; 0
    397e:	8f 19       	sub	r24, r15
    3980:	91 09       	sbc	r25, r1
    3982:	4f ef       	ldi	r20, 0xFF	; 255
    3984:	50 e0       	ldi	r21, 0x00	; 0
    3986:	6a 01       	movw	r12, r20
    3988:	02 c0       	rjmp	.+4      	; 0x398e <MifareClassicAppProcess+0x640>
    398a:	d5 94       	asr	r13
    398c:	c7 94       	ror	r12
    398e:	8a 95       	dec	r24
    3990:	e2 f7       	brpl	.-8      	; 0x398a <MifareClassicAppProcess+0x63c>
        // Since the UidCL does not contain the BCC, we have to distinguish here
        if (
    3992:	25 30       	cpi	r18, 0x05	; 5
    3994:	21 f0       	breq	.+8      	; 0x399e <MifareClassicAppProcess+0x650>
                ((CollisionByteCount == 5 || (CollisionByteCount == 4 && CollisionBitCount > 0)) && memcmp(UidCL, &DataPtr[2], 4) == 0 && (ISO14443A_CALC_BCC(UidCL) & mask) == (DataPtr[6] & mask))
    3996:	24 30       	cpi	r18, 0x04	; 4
    3998:	61 f5       	brne	.+88     	; 0x39f2 <MifareClassicAppProcess+0x6a4>
    399a:	ff 20       	and	r15, r15
    399c:	f1 f0       	breq	.+60     	; 0x39da <MifareClassicAppProcess+0x68c>
    399e:	44 e0       	ldi	r20, 0x04	; 4
    39a0:	50 e0       	ldi	r21, 0x00	; 0
    39a2:	b8 01       	movw	r22, r16
    39a4:	6e 5f       	subi	r22, 0xFE	; 254
    39a6:	7f 4f       	sbci	r23, 0xFF	; 255
    39a8:	ce 01       	movw	r24, r28
    39aa:	01 96       	adiw	r24, 0x01	; 1
    39ac:	2f 87       	std	Y+15, r18	; 0x0f
    39ae:	0e 94 77 2a 	call	0x54ee	; 0x54ee <memcmp>
    39b2:	2f 85       	ldd	r18, Y+15	; 0x0f
    39b4:	89 2b       	or	r24, r25
    39b6:	69 f4       	brne	.+26     	; 0x39d2 <MifareClassicAppProcess+0x684>
    39b8:	9a 81       	ldd	r25, Y+2	; 0x02
    39ba:	8b 81       	ldd	r24, Y+3	; 0x03
    39bc:	89 27       	eor	r24, r25
    39be:	98 e8       	ldi	r25, 0x88	; 136
    39c0:	89 27       	eor	r24, r25
    39c2:	9c 81       	ldd	r25, Y+4	; 0x04
    39c4:	89 27       	eor	r24, r25
    39c6:	d8 01       	movw	r26, r16
    39c8:	16 96       	adiw	r26, 0x06	; 6
    39ca:	9c 91       	ld	r25, X
    39cc:	89 27       	eor	r24, r25
    39ce:	8c 21       	and	r24, r12
    39d0:	81 f1       	breq	.+96     	; 0x3a32 <MifareClassicAppProcess+0x6e4>
                ||
    39d2:	24 30       	cpi	r18, 0x04	; 4
    39d4:	71 f4       	brne	.+28     	; 0x39f2 <MifareClassicAppProcess+0x6a4>
                (CollisionByteCount == 4 && CollisionBitCount == 0 && memcmp(UidCL, &DataPtr[2], 4) == 0)
    39d6:	f1 10       	cpse	r15, r1
    39d8:	8d c1       	rjmp	.+794    	; 0x3cf4 <MifareClassicAppProcess+0x9a6>
    39da:	44 e0       	ldi	r20, 0x04	; 4
    39dc:	50 e0       	ldi	r21, 0x00	; 0
    39de:	b8 01       	movw	r22, r16
    39e0:	6e 5f       	subi	r22, 0xFE	; 254
    39e2:	7f 4f       	sbci	r23, 0xFF	; 255
    39e4:	ce 01       	movw	r24, r28
    39e6:	01 96       	adiw	r24, 0x01	; 1
    39e8:	0e 94 77 2a 	call	0x54ee	; 0x54ee <memcmp>
    39ec:	89 2b       	or	r24, r25
    39ee:	09 f1       	breq	.+66     	; 0x3a32 <MifareClassicAppProcess+0x6e4>
    39f0:	81 c1       	rjmp	.+770    	; 0x3cf4 <MifareClassicAppProcess+0x9a6>
                ||
    39f2:	24 30       	cpi	r18, 0x04	; 4
    39f4:	08 f0       	brcs	.+2      	; 0x39f8 <MifareClassicAppProcess+0x6aa>
    39f6:	7e c1       	rjmp	.+764    	; 0x3cf4 <MifareClassicAppProcess+0x9a6>
                (CollisionByteCount < 4 && memcmp(UidCL, &DataPtr[2], CollisionByteCount) == 0 && (UidCL[CollisionByteCount] & mask) == (DataPtr[CollisionByteCount + 2] & mask))
    39f8:	e2 2e       	mov	r14, r18
    39fa:	f1 2c       	mov	r15, r1
    39fc:	a7 01       	movw	r20, r14
    39fe:	b8 01       	movw	r22, r16
    3a00:	6e 5f       	subi	r22, 0xFE	; 254
    3a02:	7f 4f       	sbci	r23, 0xFF	; 255
    3a04:	ce 01       	movw	r24, r28
    3a06:	01 96       	adiw	r24, 0x01	; 1
    3a08:	0e 94 77 2a 	call	0x54ee	; 0x54ee <memcmp>
    3a0c:	89 2b       	or	r24, r25
    3a0e:	09 f0       	breq	.+2      	; 0x3a12 <MifareClassicAppProcess+0x6c4>
    3a10:	71 c1       	rjmp	.+738    	; 0x3cf4 <MifareClassicAppProcess+0x9a6>
    3a12:	d8 01       	movw	r26, r16
    3a14:	ae 0d       	add	r26, r14
    3a16:	bf 1d       	adc	r27, r15
    3a18:	e1 e0       	ldi	r30, 0x01	; 1
    3a1a:	f0 e0       	ldi	r31, 0x00	; 0
    3a1c:	ec 0f       	add	r30, r28
    3a1e:	fd 1f       	adc	r31, r29
    3a20:	ee 0d       	add	r30, r14
    3a22:	ff 1d       	adc	r31, r15
    3a24:	12 96       	adiw	r26, 0x02	; 2
    3a26:	9c 91       	ld	r25, X
    3a28:	80 81       	ld	r24, Z
    3a2a:	89 27       	eor	r24, r25
    3a2c:	c8 22       	and	r12, r24
    3a2e:	09 f0       	breq	.+2      	; 0x3a32 <MifareClassicAppProcess+0x6e4>
    3a30:	61 c1       	rjmp	.+706    	; 0x3cf4 <MifareClassicAppProcess+0x9a6>
        )
        {
            DataPtr[0] = UidCL[0];
    3a32:	98 e8       	ldi	r25, 0x88	; 136
    3a34:	f8 01       	movw	r30, r16
    3a36:	90 83       	st	Z, r25
            DataPtr[1] = UidCL[1];
    3a38:	3a 81       	ldd	r19, Y+2	; 0x02
    3a3a:	31 83       	std	Z+1, r19	; 0x01
            DataPtr[2] = UidCL[2];
    3a3c:	2b 81       	ldd	r18, Y+3	; 0x03
    3a3e:	22 83       	std	Z+2, r18	; 0x02
    3a40:	1e c1       	rjmp	.+572    	; 0x3c7e <MifareClassicAppProcess+0x930>
	            } else {
            MemoryReadBlock(UidCL1, MEM_UID_CL1_ADDRESS, MEM_UID_CL1_SIZE);
    3a42:	44 e0       	ldi	r20, 0x04	; 4
    3a44:	50 e0       	ldi	r21, 0x00	; 0
    3a46:	60 e0       	ldi	r22, 0x00	; 0
    3a48:	70 e0       	ldi	r23, 0x00	; 0
    3a4a:	ce 01       	movw	r24, r28
    3a4c:	01 96       	adiw	r24, 0x01	; 1
    3a4e:	0e 94 7c 08 	call	0x10f8	; 0x10f8 <MemoryReadBlock>
			 	if (ISO14443ASelect(Buffer, &BitCount, UidCL1, CardSAKValue))
    3a52:	90 91 06 21 	lds	r25, 0x2106	; 0x802106 <CardSAKValue>

INLINE
bool ISO14443ASelect(void* Buffer, uint16_t* BitCount, uint8_t* UidCL, uint8_t SAKValue)
{
    uint8_t* DataPtr = (uint8_t*) Buffer;
    uint8_t NVB = DataPtr[1];
    3a56:	d8 01       	movw	r26, r16
    3a58:	11 96       	adiw	r26, 0x01	; 1
    3a5a:	8c 91       	ld	r24, X
    //uint8_t CollisionByteCount = (NVB >> 4) & 0x0F;
    //uint8_t CollisionBitCount =  (NVB >> 0) & 0x0F;

    switch (NVB) {
    3a5c:	80 32       	cpi	r24, 0x20	; 32
    3a5e:	09 f4       	brne	.+2      	; 0x3a62 <MifareClassicAppProcess+0x714>
    3a60:	07 c1       	rjmp	.+526    	; 0x3c70 <MifareClassicAppProcess+0x922>
    3a62:	80 37       	cpi	r24, 0x70	; 112
    3a64:	d9 f4       	brne	.+54     	; 0x3a9c <MifareClassicAppProcess+0x74e>
        return false;

    case ISO14443A_NVB_AC_END:
        /* End of anticollision procedure.
        * Send SAK CLn if we are selected. */
        if (    (DataPtr[2] == UidCL[0]) &&
    3a66:	d8 01       	movw	r26, r16
    3a68:	12 96       	adiw	r26, 0x02	; 2
    3a6a:	2c 91       	ld	r18, X
    3a6c:	12 97       	sbiw	r26, 0x02	; 2
    3a6e:	89 81       	ldd	r24, Y+1	; 0x01
    3a70:	28 13       	cpse	r18, r24
    3a72:	40 c1       	rjmp	.+640    	; 0x3cf4 <MifareClassicAppProcess+0x9a6>
    3a74:	13 96       	adiw	r26, 0x03	; 3
    3a76:	2c 91       	ld	r18, X
    3a78:	13 97       	sbiw	r26, 0x03	; 3
    3a7a:	8a 81       	ldd	r24, Y+2	; 0x02
    3a7c:	28 13       	cpse	r18, r24
    3a7e:	3a c1       	rjmp	.+628    	; 0x3cf4 <MifareClassicAppProcess+0x9a6>
                (DataPtr[3] == UidCL[1]) &&
    3a80:	14 96       	adiw	r26, 0x04	; 4
    3a82:	2c 91       	ld	r18, X
    3a84:	14 97       	sbiw	r26, 0x04	; 4
    3a86:	8b 81       	ldd	r24, Y+3	; 0x03
    3a88:	28 13       	cpse	r18, r24
    3a8a:	34 c1       	rjmp	.+616    	; 0x3cf4 <MifareClassicAppProcess+0x9a6>
                (DataPtr[4] == UidCL[2]) &&
    3a8c:	15 96       	adiw	r26, 0x05	; 5
    3a8e:	2c 91       	ld	r18, X
    3a90:	15 97       	sbiw	r26, 0x05	; 5
    3a92:	8c 81       	ldd	r24, Y+4	; 0x04
    3a94:	28 13       	cpse	r18, r24
    3a96:	2e c1       	rjmp	.+604    	; 0x3cf4 <MifareClassicAppProcess+0x9a6>
                (DataPtr[5] == UidCL[3]) ) {

            DataPtr[0] = SAKValue;
    3a98:	9c 93       	st	X, r25
    3a9a:	b1 c0       	rjmp	.+354    	; 0x3bfe <MifareClassicAppProcess+0x8b0>
            *BitCount = 0;
            return false;
        }
    default:
    {
        uint8_t CollisionByteCount = ((NVB >> 4) & 0x0f) - 2;
    3a9c:	e8 2e       	mov	r14, r24
    3a9e:	e2 94       	swap	r14
    3aa0:	ef e0       	ldi	r30, 0x0F	; 15
    3aa2:	ee 22       	and	r14, r30
    3aa4:	2e ef       	ldi	r18, 0xFE	; 254
    3aa6:	2e 0d       	add	r18, r14
        uint8_t CollisionBitCount  = (NVB >> 0) & 0x0f;
    3aa8:	8f 70       	andi	r24, 0x0F	; 15
    3aaa:	f8 2e       	mov	r15, r24
        uint8_t mask = 0xFF >> (8 - CollisionBitCount);
    3aac:	88 e0       	ldi	r24, 0x08	; 8
    3aae:	90 e0       	ldi	r25, 0x00	; 0
    3ab0:	8f 19       	sub	r24, r15
    3ab2:	91 09       	sbc	r25, r1
    3ab4:	4f ef       	ldi	r20, 0xFF	; 255
    3ab6:	50 e0       	ldi	r21, 0x00	; 0
    3ab8:	6a 01       	movw	r12, r20
    3aba:	02 c0       	rjmp	.+4      	; 0x3ac0 <MifareClassicAppProcess+0x772>
    3abc:	d5 94       	asr	r13
    3abe:	c7 94       	ror	r12
    3ac0:	8a 95       	dec	r24
    3ac2:	e2 f7       	brpl	.-8      	; 0x3abc <MifareClassicAppProcess+0x76e>
        // Since the UidCL does not contain the BCC, we have to distinguish here
        if (
    3ac4:	25 30       	cpi	r18, 0x05	; 5
    3ac6:	21 f0       	breq	.+8      	; 0x3ad0 <MifareClassicAppProcess+0x782>
                ((CollisionByteCount == 5 || (CollisionByteCount == 4 && CollisionBitCount > 0)) && memcmp(UidCL, &DataPtr[2], 4) == 0 && (ISO14443A_CALC_BCC(UidCL) & mask) == (DataPtr[6] & mask))
    3ac8:	24 30       	cpi	r18, 0x04	; 4
    3aca:	69 f5       	brne	.+90     	; 0x3b26 <MifareClassicAppProcess+0x7d8>
    3acc:	ff 20       	and	r15, r15
    3ace:	f1 f0       	breq	.+60     	; 0x3b0c <MifareClassicAppProcess+0x7be>
    3ad0:	44 e0       	ldi	r20, 0x04	; 4
    3ad2:	50 e0       	ldi	r21, 0x00	; 0
    3ad4:	b8 01       	movw	r22, r16
    3ad6:	6e 5f       	subi	r22, 0xFE	; 254
    3ad8:	7f 4f       	sbci	r23, 0xFF	; 255
    3ada:	ce 01       	movw	r24, r28
    3adc:	01 96       	adiw	r24, 0x01	; 1
    3ade:	2f 87       	std	Y+15, r18	; 0x0f
    3ae0:	0e 94 77 2a 	call	0x54ee	; 0x54ee <memcmp>
    3ae4:	2f 85       	ldd	r18, Y+15	; 0x0f
    3ae6:	89 2b       	or	r24, r25
    3ae8:	69 f4       	brne	.+26     	; 0x3b04 <MifareClassicAppProcess+0x7b6>
    3aea:	9a 81       	ldd	r25, Y+2	; 0x02
    3aec:	89 81       	ldd	r24, Y+1	; 0x01
    3aee:	89 27       	eor	r24, r25
    3af0:	9b 81       	ldd	r25, Y+3	; 0x03
    3af2:	89 27       	eor	r24, r25
    3af4:	9c 81       	ldd	r25, Y+4	; 0x04
    3af6:	89 27       	eor	r24, r25
    3af8:	f8 01       	movw	r30, r16
    3afa:	96 81       	ldd	r25, Z+6	; 0x06
    3afc:	89 27       	eor	r24, r25
    3afe:	8c 21       	and	r24, r12
    3b00:	09 f4       	brne	.+2      	; 0x3b04 <MifareClassicAppProcess+0x7b6>
    3b02:	54 c0       	rjmp	.+168    	; 0x3bac <MifareClassicAppProcess+0x85e>
                ||
    3b04:	24 30       	cpi	r18, 0x04	; 4
    3b06:	79 f4       	brne	.+30     	; 0x3b26 <MifareClassicAppProcess+0x7d8>
                (CollisionByteCount == 4 && CollisionBitCount == 0 && memcmp(UidCL, &DataPtr[2], 4) == 0)
    3b08:	f1 10       	cpse	r15, r1
    3b0a:	f4 c0       	rjmp	.+488    	; 0x3cf4 <MifareClassicAppProcess+0x9a6>
    3b0c:	44 e0       	ldi	r20, 0x04	; 4
    3b0e:	50 e0       	ldi	r21, 0x00	; 0
    3b10:	b8 01       	movw	r22, r16
    3b12:	6e 5f       	subi	r22, 0xFE	; 254
    3b14:	7f 4f       	sbci	r23, 0xFF	; 255
    3b16:	ce 01       	movw	r24, r28
    3b18:	01 96       	adiw	r24, 0x01	; 1
    3b1a:	0e 94 77 2a 	call	0x54ee	; 0x54ee <memcmp>
    3b1e:	89 2b       	or	r24, r25
    3b20:	09 f4       	brne	.+2      	; 0x3b24 <MifareClassicAppProcess+0x7d6>
    3b22:	44 c0       	rjmp	.+136    	; 0x3bac <MifareClassicAppProcess+0x85e>
    3b24:	e7 c0       	rjmp	.+462    	; 0x3cf4 <MifareClassicAppProcess+0x9a6>
                ||
    3b26:	24 30       	cpi	r18, 0x04	; 4
    3b28:	08 f0       	brcs	.+2      	; 0x3b2c <MifareClassicAppProcess+0x7de>
    3b2a:	e4 c0       	rjmp	.+456    	; 0x3cf4 <MifareClassicAppProcess+0x9a6>
                (CollisionByteCount < 4 && memcmp(UidCL, &DataPtr[2], CollisionByteCount) == 0 && (UidCL[CollisionByteCount] & mask) == (DataPtr[CollisionByteCount + 2] & mask))
    3b2c:	e2 2e       	mov	r14, r18
    3b2e:	f1 2c       	mov	r15, r1
    3b30:	a7 01       	movw	r20, r14
    3b32:	b8 01       	movw	r22, r16
    3b34:	6e 5f       	subi	r22, 0xFE	; 254
    3b36:	7f 4f       	sbci	r23, 0xFF	; 255
    3b38:	ce 01       	movw	r24, r28
    3b3a:	01 96       	adiw	r24, 0x01	; 1
    3b3c:	0e 94 77 2a 	call	0x54ee	; 0x54ee <memcmp>
    3b40:	89 2b       	or	r24, r25
    3b42:	09 f0       	breq	.+2      	; 0x3b46 <MifareClassicAppProcess+0x7f8>
    3b44:	d7 c0       	rjmp	.+430    	; 0x3cf4 <MifareClassicAppProcess+0x9a6>
    3b46:	d8 01       	movw	r26, r16
    3b48:	ae 0d       	add	r26, r14
    3b4a:	bf 1d       	adc	r27, r15
    3b4c:	e1 e0       	ldi	r30, 0x01	; 1
    3b4e:	f0 e0       	ldi	r31, 0x00	; 0
    3b50:	ec 0f       	add	r30, r28
    3b52:	fd 1f       	adc	r31, r29
    3b54:	ee 0d       	add	r30, r14
    3b56:	ff 1d       	adc	r31, r15
    3b58:	12 96       	adiw	r26, 0x02	; 2
    3b5a:	9c 91       	ld	r25, X
    3b5c:	80 81       	ld	r24, Z
    3b5e:	89 27       	eor	r24, r25
    3b60:	c8 22       	and	r12, r24
    3b62:	09 f0       	breq	.+2      	; 0x3b66 <MifareClassicAppProcess+0x818>
    3b64:	c7 c0       	rjmp	.+398    	; 0x3cf4 <MifareClassicAppProcess+0x9a6>
    3b66:	22 c0       	rjmp	.+68     	; 0x3bac <MifareClassicAppProcess+0x85e>

    case STATE_ACTIVE:
        if (ISO14443AWakeUp(Buffer, &BitCount, CardATQAValue, false)) {
            State = STATE_READY1;
            return BitCount;
        } else if (Buffer[0] == CMD_HALT) {
    3b68:	80 35       	cpi	r24, 0x50	; 80
    3b6a:	09 f0       	breq	.+2      	; 0x3b6e <MifareClassicAppProcess+0x820>
    3b6c:	c6 c0       	rjmp	.+396    	; 0x3cfa <MifareClassicAppProcess+0x9ac>
            /* Halts the tag. According to the ISO14443, the second
            * byte is supposed to be 0. */
            if (Buffer[1] == 0) {
    3b6e:	d8 01       	movw	r26, r16
    3b70:	11 96       	adiw	r26, 0x01	; 1
    3b72:	8c 91       	ld	r24, X
    3b74:	81 11       	cpse	r24, r1
    3b76:	ce c0       	rjmp	.+412    	; 0x3d14 <MifareClassicAppProcess+0x9c6>
                if (ISO14443ACheckCRCA(Buffer, CMD_HALT_FRAME_SIZE)) {
    3b78:	62 e0       	ldi	r22, 0x02	; 2
    3b7a:	70 e0       	ldi	r23, 0x00	; 0
    3b7c:	c8 01       	movw	r24, r16
    3b7e:	c1 d1       	rcall	.+898    	; 0x3f02 <ISO14443ACheckCRCA>
    3b80:	88 23       	and	r24, r24
    3b82:	09 f4       	brne	.+2      	; 0x3b86 <MifareClassicAppProcess+0x838>
    3b84:	c5 c0       	rjmp	.+394    	; 0x3d10 <MifareClassicAppProcess+0x9c2>
            }

            return BitCount;
        } else {
            /* Unknown command. Enter HALT state. */
            State = STATE_HALT;
    3b86:	10 92 22 21 	sts	0x2122, r1	; 0x802122 <State>
    3b8a:	b4 c0       	rjmp	.+360    	; 0x3cf4 <MifareClassicAppProcess+0x9a6>

    case STATE_READY2:
    if (ISO14443AWakeUp(Buffer, &BitCount, CardATQAValue, false)) {
	    State = STATE_READY1;
	    return BitCount;
	    } else if (Buffer[0] == ISO14443A_CMD_SELECT_CL2) {
    3b8c:	85 39       	cpi	r24, 0x95	; 149
    3b8e:	d9 f7       	brne	.-10     	; 0x3b86 <MifareClassicAppProcess+0x838>
	    /* Load UID CL2 and perform anticollision */
	    uint8_t UidCL2[ISO14443A_CL_UID_SIZE];
	    MemoryReadBlock(UidCL2, MEM_UID_CL2_ADDRESS, MEM_UID_CL2_SIZE);
    3b90:	44 e0       	ldi	r20, 0x04	; 4
    3b92:	50 e0       	ldi	r21, 0x00	; 0
    3b94:	63 e0       	ldi	r22, 0x03	; 3
    3b96:	70 e0       	ldi	r23, 0x00	; 0
    3b98:	ce 01       	movw	r24, r28
    3b9a:	01 96       	adiw	r24, 0x01	; 1
    3b9c:	0e 94 7c 08 	call	0x10f8	; 0x10f8 <MemoryReadBlock>

	    if (ISO14443ASelect(Buffer, &BitCount, UidCL2, CardSAKValue)) {
    3ba0:	90 91 06 21 	lds	r25, 0x2106	; 0x802106 <CardSAKValue>

INLINE
bool ISO14443ASelect(void* Buffer, uint16_t* BitCount, uint8_t* UidCL, uint8_t SAKValue)
{
    uint8_t* DataPtr = (uint8_t*) Buffer;
    uint8_t NVB = DataPtr[1];
    3ba4:	f8 01       	movw	r30, r16
    3ba6:	81 81       	ldd	r24, Z+1	; 0x01
    //uint8_t CollisionByteCount = (NVB >> 4) & 0x0F;
    //uint8_t CollisionBitCount =  (NVB >> 0) & 0x0F;

    switch (NVB) {
    3ba8:	80 32       	cpi	r24, 0x20	; 32
    3baa:	a9 f4       	brne	.+42     	; 0x3bd6 <MifareClassicAppProcess+0x888>
    case ISO14443A_NVB_AC_START:
        /* Start of anticollision procedure.
        * Send whole UID CLn + BCC */
        DataPtr[0] = UidCL[0];
    3bac:	29 81       	ldd	r18, Y+1	; 0x01
    3bae:	d8 01       	movw	r26, r16
    3bb0:	2c 93       	st	X, r18
        DataPtr[1] = UidCL[1];
    3bb2:	3a 81       	ldd	r19, Y+2	; 0x02
    3bb4:	11 96       	adiw	r26, 0x01	; 1
    3bb6:	3c 93       	st	X, r19
    3bb8:	11 97       	sbiw	r26, 0x01	; 1
        DataPtr[2] = UidCL[2];
    3bba:	9b 81       	ldd	r25, Y+3	; 0x03
    3bbc:	12 96       	adiw	r26, 0x02	; 2
    3bbe:	9c 93       	st	X, r25
    3bc0:	12 97       	sbiw	r26, 0x02	; 2
        DataPtr[3] = UidCL[3];
    3bc2:	8c 81       	ldd	r24, Y+4	; 0x04
    3bc4:	13 96       	adiw	r26, 0x03	; 3
    3bc6:	8c 93       	st	X, r24
    3bc8:	13 97       	sbiw	r26, 0x03	; 3
        DataPtr[4] = ISO14443A_CALC_BCC(DataPtr);
    3bca:	23 27       	eor	r18, r19
    3bcc:	92 27       	eor	r25, r18
    3bce:	89 27       	eor	r24, r25
    3bd0:	14 96       	adiw	r26, 0x04	; 4
    3bd2:	8c 93       	st	X, r24
    3bd4:	5a c0       	rjmp	.+180    	; 0x3c8a <MifareClassicAppProcess+0x93c>
    uint8_t* DataPtr = (uint8_t*) Buffer;
    uint8_t NVB = DataPtr[1];
    //uint8_t CollisionByteCount = (NVB >> 4) & 0x0F;
    //uint8_t CollisionBitCount =  (NVB >> 0) & 0x0F;

    switch (NVB) {
    3bd6:	80 37       	cpi	r24, 0x70	; 112
    3bd8:	d9 f4       	brne	.+54     	; 0x3c10 <MifareClassicAppProcess+0x8c2>
        return false;

    case ISO14443A_NVB_AC_END:
        /* End of anticollision procedure.
        * Send SAK CLn if we are selected. */
        if (    (DataPtr[2] == UidCL[0]) &&
    3bda:	f8 01       	movw	r30, r16
    3bdc:	22 81       	ldd	r18, Z+2	; 0x02
    3bde:	89 81       	ldd	r24, Y+1	; 0x01
    3be0:	28 13       	cpse	r18, r24
    3be2:	88 c0       	rjmp	.+272    	; 0x3cf4 <MifareClassicAppProcess+0x9a6>
    3be4:	23 81       	ldd	r18, Z+3	; 0x03
    3be6:	8a 81       	ldd	r24, Y+2	; 0x02
    3be8:	28 13       	cpse	r18, r24
    3bea:	84 c0       	rjmp	.+264    	; 0x3cf4 <MifareClassicAppProcess+0x9a6>
                (DataPtr[3] == UidCL[1]) &&
    3bec:	24 81       	ldd	r18, Z+4	; 0x04
    3bee:	8b 81       	ldd	r24, Y+3	; 0x03
    3bf0:	28 13       	cpse	r18, r24
    3bf2:	80 c0       	rjmp	.+256    	; 0x3cf4 <MifareClassicAppProcess+0x9a6>
                (DataPtr[4] == UidCL[2]) &&
    3bf4:	25 81       	ldd	r18, Z+5	; 0x05
    3bf6:	8c 81       	ldd	r24, Y+4	; 0x04
    3bf8:	28 13       	cpse	r18, r24
    3bfa:	7c c0       	rjmp	.+248    	; 0x3cf4 <MifareClassicAppProcess+0x9a6>
                (DataPtr[5] == UidCL[3]) ) {

            DataPtr[0] = SAKValue;
    3bfc:	90 83       	st	Z, r25
            ISO14443AAppendCRCA(Buffer, 1);
    3bfe:	61 e0       	ldi	r22, 0x01	; 1
    3c00:	70 e0       	ldi	r23, 0x00	; 0
    3c02:	c8 01       	movw	r24, r16
    3c04:	53 d1       	rcall	.+678    	; 0x3eac <ISO14443AAppendCRCA>
		    State = STATE_ACTIVE;
    3c06:	86 e0       	ldi	r24, 0x06	; 6
    3c08:	80 93 22 21 	sts	0x2122, r24	; 0x802122 <State>
    3c0c:	88 e1       	ldi	r24, 0x18	; 24
    3c0e:	73 c0       	rjmp	.+230    	; 0x3cf6 <MifareClassicAppProcess+0x9a8>
            *BitCount = 0;
            return false;
        }
    default:
    {
        uint8_t CollisionByteCount = ((NVB >> 4) & 0x0f) - 2;
    3c10:	e8 2e       	mov	r14, r24
    3c12:	e2 94       	swap	r14
    3c14:	7f e0       	ldi	r23, 0x0F	; 15
    3c16:	e7 22       	and	r14, r23
    3c18:	2e ef       	ldi	r18, 0xFE	; 254
    3c1a:	2e 0d       	add	r18, r14
        uint8_t CollisionBitCount  = (NVB >> 0) & 0x0f;
    3c1c:	8f 70       	andi	r24, 0x0F	; 15
    3c1e:	f8 2e       	mov	r15, r24
        uint8_t mask = 0xFF >> (8 - CollisionBitCount);
    3c20:	88 e0       	ldi	r24, 0x08	; 8
    3c22:	90 e0       	ldi	r25, 0x00	; 0
    3c24:	8f 19       	sub	r24, r15
    3c26:	91 09       	sbc	r25, r1
    3c28:	4f ef       	ldi	r20, 0xFF	; 255
    3c2a:	50 e0       	ldi	r21, 0x00	; 0
    3c2c:	6a 01       	movw	r12, r20
    3c2e:	02 c0       	rjmp	.+4      	; 0x3c34 <MifareClassicAppProcess+0x8e6>
    3c30:	d5 94       	asr	r13
    3c32:	c7 94       	ror	r12
    3c34:	8a 95       	dec	r24
    3c36:	e2 f7       	brpl	.-8      	; 0x3c30 <MifareClassicAppProcess+0x8e2>
        // Since the UidCL does not contain the BCC, we have to distinguish here
        if (
    3c38:	25 30       	cpi	r18, 0x05	; 5
    3c3a:	49 f5       	brne	.+82     	; 0x3c8e <MifareClassicAppProcess+0x940>
                ((CollisionByteCount == 5 || (CollisionByteCount == 4 && CollisionBitCount > 0)) && memcmp(UidCL, &DataPtr[2], 4) == 0 && (ISO14443A_CALC_BCC(UidCL) & mask) == (DataPtr[6] & mask))
    3c3c:	44 e0       	ldi	r20, 0x04	; 4
    3c3e:	50 e0       	ldi	r21, 0x00	; 0
    3c40:	b8 01       	movw	r22, r16
    3c42:	6e 5f       	subi	r22, 0xFE	; 254
    3c44:	7f 4f       	sbci	r23, 0xFF	; 255
    3c46:	ce 01       	movw	r24, r28
    3c48:	01 96       	adiw	r24, 0x01	; 1
    3c4a:	2f 87       	std	Y+15, r18	; 0x0f
    3c4c:	0e 94 77 2a 	call	0x54ee	; 0x54ee <memcmp>
    3c50:	2f 85       	ldd	r18, Y+15	; 0x0f
    3c52:	89 2b       	or	r24, r25
    3c54:	09 f5       	brne	.+66     	; 0x3c98 <MifareClassicAppProcess+0x94a>
    3c56:	9a 81       	ldd	r25, Y+2	; 0x02
    3c58:	89 81       	ldd	r24, Y+1	; 0x01
    3c5a:	89 27       	eor	r24, r25
    3c5c:	9b 81       	ldd	r25, Y+3	; 0x03
    3c5e:	89 27       	eor	r24, r25
    3c60:	9c 81       	ldd	r25, Y+4	; 0x04
    3c62:	89 27       	eor	r24, r25
    3c64:	d8 01       	movw	r26, r16
    3c66:	16 96       	adiw	r26, 0x06	; 6
    3c68:	9c 91       	ld	r25, X
    3c6a:	89 27       	eor	r24, r25
    3c6c:	8c 21       	and	r24, r12
    3c6e:	a1 f4       	brne	.+40     	; 0x3c98 <MifareClassicAppProcess+0x94a>
                (CollisionByteCount == 4 && CollisionBitCount == 0 && memcmp(UidCL, &DataPtr[2], 4) == 0)
                ||
                (CollisionByteCount < 4 && memcmp(UidCL, &DataPtr[2], CollisionByteCount) == 0 && (UidCL[CollisionByteCount] & mask) == (DataPtr[CollisionByteCount + 2] & mask))
        )
        {
            DataPtr[0] = UidCL[0];
    3c70:	29 81       	ldd	r18, Y+1	; 0x01
    3c72:	f8 01       	movw	r30, r16
    3c74:	20 83       	st	Z, r18
            DataPtr[1] = UidCL[1];
    3c76:	3a 81       	ldd	r19, Y+2	; 0x02
    3c78:	31 83       	std	Z+1, r19	; 0x01
            DataPtr[2] = UidCL[2];
    3c7a:	9b 81       	ldd	r25, Y+3	; 0x03
    3c7c:	92 83       	std	Z+2, r25	; 0x02
            DataPtr[3] = UidCL[3];
    3c7e:	8c 81       	ldd	r24, Y+4	; 0x04
    3c80:	83 83       	std	Z+3, r24	; 0x03
            DataPtr[4] = ISO14443A_CALC_BCC(DataPtr);
    3c82:	23 27       	eor	r18, r19
    3c84:	92 27       	eor	r25, r18
    3c86:	89 27       	eor	r24, r25
    3c88:	84 83       	std	Z+4, r24	; 0x04

            *BitCount = ISO14443A_CL_FRAME_SIZE;
    3c8a:	88 e2       	ldi	r24, 0x28	; 40
    3c8c:	34 c0       	rjmp	.+104    	; 0x3cf6 <MifareClassicAppProcess+0x9a8>
        uint8_t CollisionByteCount = ((NVB >> 4) & 0x0f) - 2;
        uint8_t CollisionBitCount  = (NVB >> 0) & 0x0f;
        uint8_t mask = 0xFF >> (8 - CollisionBitCount);
        // Since the UidCL does not contain the BCC, we have to distinguish here
        if (
                ((CollisionByteCount == 5 || (CollisionByteCount == 4 && CollisionBitCount > 0)) && memcmp(UidCL, &DataPtr[2], 4) == 0 && (ISO14443A_CALC_BCC(UidCL) & mask) == (DataPtr[6] & mask))
    3c8e:	24 30       	cpi	r18, 0x04	; 4
    3c90:	99 f4       	brne	.+38     	; 0x3cb8 <MifareClassicAppProcess+0x96a>
    3c92:	ff 20       	and	r15, r15
    3c94:	29 f0       	breq	.+10     	; 0x3ca0 <MifareClassicAppProcess+0x952>
    3c96:	d2 cf       	rjmp	.-92     	; 0x3c3c <MifareClassicAppProcess+0x8ee>
                ||
    3c98:	24 30       	cpi	r18, 0x04	; 4
    3c9a:	71 f4       	brne	.+28     	; 0x3cb8 <MifareClassicAppProcess+0x96a>
                (CollisionByteCount == 4 && CollisionBitCount == 0 && memcmp(UidCL, &DataPtr[2], 4) == 0)
    3c9c:	f1 10       	cpse	r15, r1
    3c9e:	2a c0       	rjmp	.+84     	; 0x3cf4 <MifareClassicAppProcess+0x9a6>
    3ca0:	44 e0       	ldi	r20, 0x04	; 4
    3ca2:	50 e0       	ldi	r21, 0x00	; 0
    3ca4:	b8 01       	movw	r22, r16
    3ca6:	6e 5f       	subi	r22, 0xFE	; 254
    3ca8:	7f 4f       	sbci	r23, 0xFF	; 255
    3caa:	ce 01       	movw	r24, r28
    3cac:	01 96       	adiw	r24, 0x01	; 1
    3cae:	0e 94 77 2a 	call	0x54ee	; 0x54ee <memcmp>
    3cb2:	89 2b       	or	r24, r25
    3cb4:	e9 f2       	breq	.-70     	; 0x3c70 <MifareClassicAppProcess+0x922>
    3cb6:	1e c0       	rjmp	.+60     	; 0x3cf4 <MifareClassicAppProcess+0x9a6>
                ||
    3cb8:	24 30       	cpi	r18, 0x04	; 4
    3cba:	e0 f4       	brcc	.+56     	; 0x3cf4 <MifareClassicAppProcess+0x9a6>
                (CollisionByteCount < 4 && memcmp(UidCL, &DataPtr[2], CollisionByteCount) == 0 && (UidCL[CollisionByteCount] & mask) == (DataPtr[CollisionByteCount + 2] & mask))
    3cbc:	e2 2e       	mov	r14, r18
    3cbe:	f1 2c       	mov	r15, r1
    3cc0:	a7 01       	movw	r20, r14
    3cc2:	b8 01       	movw	r22, r16
    3cc4:	6e 5f       	subi	r22, 0xFE	; 254
    3cc6:	7f 4f       	sbci	r23, 0xFF	; 255
    3cc8:	ce 01       	movw	r24, r28
    3cca:	01 96       	adiw	r24, 0x01	; 1
    3ccc:	0e 94 77 2a 	call	0x54ee	; 0x54ee <memcmp>
    3cd0:	89 2b       	or	r24, r25
    3cd2:	81 f4       	brne	.+32     	; 0x3cf4 <MifareClassicAppProcess+0x9a6>
    3cd4:	d8 01       	movw	r26, r16
    3cd6:	ae 0d       	add	r26, r14
    3cd8:	bf 1d       	adc	r27, r15
    3cda:	e1 e0       	ldi	r30, 0x01	; 1
    3cdc:	f0 e0       	ldi	r31, 0x00	; 0
    3cde:	ec 0f       	add	r30, r28
    3ce0:	fd 1f       	adc	r31, r29
    3ce2:	ee 0d       	add	r30, r14
    3ce4:	ff 1d       	adc	r31, r15
    3ce6:	12 96       	adiw	r26, 0x02	; 2
    3ce8:	9c 91       	ld	r25, X
    3cea:	80 81       	ld	r24, Z
    3cec:	89 27       	eor	r24, r25
    3cee:	c8 22       	and	r12, r24
    3cf0:	09 f4       	brne	.+2      	; 0x3cf4 <MifareClassicAppProcess+0x9a6>
    3cf2:	be cf       	rjmp	.-132    	; 0x3c70 <MifareClassicAppProcess+0x922>

            *BitCount = ISO14443A_SAK_FRAME_SIZE;
            return true;
        } else {
            /* We have not been selected. Don't send anything. */
            *BitCount = 0;
    3cf4:	80 e0       	ldi	r24, 0x00	; 0
    3cf6:	90 e0       	ldi	r25, 0x00	; 0
    3cf8:	85 c0       	rjmp	.+266    	; 0x3e04 <MifareClassicAppProcess+0xab6>
                }
            } else {
                Buffer[0] = NAK_INVALID_ARG;
                return ACK_NAK_FRAME_SIZE;
            }
        } else if ( (Buffer[0] == CMD_AUTH_A) || (Buffer[0] == CMD_AUTH_B)) {
    3cfa:	90 ea       	ldi	r25, 0xA0	; 160
    3cfc:	98 0f       	add	r25, r24
    3cfe:	92 30       	cpi	r25, 0x02	; 2
    3d00:	08 f0       	brcs	.+2      	; 0x3d04 <MifareClassicAppProcess+0x9b6>
    3d02:	64 c0       	rjmp	.+200    	; 0x3dcc <MifareClassicAppProcess+0xa7e>
            if (ISO14443ACheckCRCA(Buffer, CMD_AUTH_FRAME_SIZE)) {
    3d04:	62 e0       	ldi	r22, 0x02	; 2
    3d06:	70 e0       	ldi	r23, 0x00	; 0
    3d08:	c8 01       	movw	r24, r16
    3d0a:	fb d0       	rcall	.+502    	; 0x3f02 <ISO14443ACheckCRCA>
    3d0c:	81 11       	cpse	r24, r1
    3d0e:	05 c0       	rjmp	.+10     	; 0x3d1a <MifareClassicAppProcess+0x9cc>
                    /* According to ISO14443, we must not send anything
                    * in order to acknowledge the HALT command. */
                    State = STATE_HALT;
                    return ISO14443A_APP_NO_RESPONSE;
                } else {
                    Buffer[0] = NAK_CRC_ERROR;
    3d10:	81 e0       	ldi	r24, 0x01	; 1
    3d12:	49 cc       	rjmp	.-1902   	; 0x35a6 <MifareClassicAppProcess+0x258>
                    return ACK_NAK_FRAME_SIZE;
                }
            } else {
                Buffer[0] = NAK_INVALID_ARG;
    3d14:	d8 01       	movw	r26, r16
    3d16:	1c 92       	st	X, r1
    3d18:	36 cd       	rjmp	.-1428   	; 0x3786 <MifareClassicAppProcess+0x438>
                return ACK_NAK_FRAME_SIZE;
            }
        } else if ( (Buffer[0] == CMD_AUTH_A) || (Buffer[0] == CMD_AUTH_B)) {
            if (ISO14443ACheckCRCA(Buffer, CMD_AUTH_FRAME_SIZE)) {
                uint8_t SectorAddress = Buffer[1] & MEM_SECTOR_ADDR_MASK;
    3d1a:	f8 01       	movw	r30, r16
    3d1c:	81 81       	ldd	r24, Z+1	; 0x01
    3d1e:	8c 73       	andi	r24, 0x3C	; 60
                uint8_t KeyOffset = (Buffer[0] == CMD_AUTH_A ? MEM_KEY_A_OFFSET : MEM_KEY_B_OFFSET);
    3d20:	90 81       	ld	r25, Z
    3d22:	90 36       	cpi	r25, 0x60	; 96
    3d24:	11 f0       	breq	.+4      	; 0x3d2a <MifareClassicAppProcess+0x9dc>
    3d26:	9a e3       	ldi	r25, 0x3A	; 58
    3d28:	01 c0       	rjmp	.+2      	; 0x3d2c <MifareClassicAppProcess+0x9de>
    3d2a:	90 e3       	ldi	r25, 0x30	; 48
                uint16_t KeyAddress = (uint16_t) SectorAddress * MEM_BYTES_PER_BLOCK + KeyOffset;
    3d2c:	f0 e1       	ldi	r31, 0x10	; 16
    3d2e:	8f 9f       	mul	r24, r31
    3d30:	70 01       	movw	r14, r0
    3d32:	11 24       	eor	r1, r1
    3d34:	e9 0e       	add	r14, r25
    3d36:	f1 1c       	adc	r15, r1
                uint8_t Key[6];
                uint8_t Uid[4];
			    uint8_t CardNonce[4]={0x01,0x20,0x01,0x45};
    3d38:	81 e0       	ldi	r24, 0x01	; 1
    3d3a:	8f 83       	std	Y+7, r24	; 0x07
    3d3c:	90 e2       	ldi	r25, 0x20	; 32
    3d3e:	98 87       	std	Y+8, r25	; 0x08
    3d40:	89 87       	std	Y+9, r24	; 0x09
    3d42:	85 e4       	ldi	r24, 0x45	; 69
    3d44:	8a 87       	std	Y+10, r24	; 0x0a
                uint8_t CardNonceSuccessor1[4]={0x63, 0xe5, 0xbc, 0xa7};
                uint8_t CardNonceSuccessor2[4]={0x99, 0x37, 0x30, 0xbd};

                /* Generate a random nonce and read UID and key from memory */
                //RandomGetBuffer(CardNonce, sizeof(CardNonce));
                if (_7BUID)
    3d46:	80 91 05 21 	lds	r24, 0x2105	; 0x802105 <_7BUID>
					MemoryReadBlock(Uid, MEM_UID_CL2_ADDRESS, MEM_UID_CL2_SIZE);
    3d4a:	44 e0       	ldi	r20, 0x04	; 4
    3d4c:	50 e0       	ldi	r21, 0x00	; 0
                uint8_t CardNonceSuccessor1[4]={0x63, 0xe5, 0xbc, 0xa7};
                uint8_t CardNonceSuccessor2[4]={0x99, 0x37, 0x30, 0xbd};

                /* Generate a random nonce and read UID and key from memory */
                //RandomGetBuffer(CardNonce, sizeof(CardNonce));
                if (_7BUID)
    3d4e:	88 23       	and	r24, r24
    3d50:	19 f0       	breq	.+6      	; 0x3d58 <MifareClassicAppProcess+0xa0a>
					MemoryReadBlock(Uid, MEM_UID_CL2_ADDRESS, MEM_UID_CL2_SIZE);
    3d52:	63 e0       	ldi	r22, 0x03	; 3
    3d54:	70 e0       	ldi	r23, 0x00	; 0
    3d56:	02 c0       	rjmp	.+4      	; 0x3d5c <MifareClassicAppProcess+0xa0e>
                else
                MemoryReadBlock(Uid, MEM_UID_CL1_ADDRESS, MEM_UID_CL1_SIZE);
    3d58:	60 e0       	ldi	r22, 0x00	; 0
    3d5a:	70 e0       	ldi	r23, 0x00	; 0
    3d5c:	ce 01       	movw	r24, r28
    3d5e:	0b 96       	adiw	r24, 0x0b	; 11
    3d60:	0e 94 7c 08 	call	0x10f8	; 0x10f8 <MemoryReadBlock>
                MemoryReadBlock(Key, KeyAddress, MEM_KEY_SIZE);
    3d64:	46 e0       	ldi	r20, 0x06	; 6
    3d66:	50 e0       	ldi	r21, 0x00	; 0
    3d68:	b7 01       	movw	r22, r14
    3d6a:	ce 01       	movw	r24, r28
    3d6c:	01 96       	adiw	r24, 0x01	; 1
    3d6e:	0e 94 7c 08 	call	0x10f8	; 0x10f8 <MemoryReadBlock>

                /* Precalculate the reader response from card-nonce */
                memcpy(ReaderResponse,CardNonceSuccessor1,4);
    3d72:	83 e6       	ldi	r24, 0x63	; 99
    3d74:	80 93 1a 21 	sts	0x211A, r24	; 0x80211a <ReaderResponse>
    3d78:	85 ee       	ldi	r24, 0xE5	; 229
    3d7a:	80 93 1b 21 	sts	0x211B, r24	; 0x80211b <ReaderResponse+0x1>
    3d7e:	8c eb       	ldi	r24, 0xBC	; 188
    3d80:	80 93 1c 21 	sts	0x211C, r24	; 0x80211c <ReaderResponse+0x2>
    3d84:	87 ea       	ldi	r24, 0xA7	; 167
    3d86:	80 93 1d 21 	sts	0x211D, r24	; 0x80211d <ReaderResponse+0x3>

                /* Precalculate our response from the reader response */
                memcpy(CardResponse,CardNonceSuccessor2,4);
    3d8a:	89 e9       	ldi	r24, 0x99	; 153
    3d8c:	80 93 1e 21 	sts	0x211E, r24	; 0x80211e <CardResponse>
    3d90:	87 e3       	ldi	r24, 0x37	; 55
    3d92:	80 93 1f 21 	sts	0x211F, r24	; 0x80211f <CardResponse+0x1>
    3d96:	80 e3       	ldi	r24, 0x30	; 48
    3d98:	80 93 20 21 	sts	0x2120, r24	; 0x802120 <CardResponse+0x2>
    3d9c:	8d eb       	ldi	r24, 0xBD	; 189
    3d9e:	80 93 21 21 	sts	0x2121, r24	; 0x802121 <CardResponse+0x3>

                /* Respond with the random card nonce and expect further authentication
                * form the reader in the next frame. */
                State = STATE_AUTHING;
    3da2:	87 e0       	ldi	r24, 0x07	; 7
    3da4:	80 93 22 21 	sts	0x2122, r24	; 0x802122 <State>
    3da8:	ae 01       	movw	r20, r28
    3daa:	49 5f       	subi	r20, 0xF9	; 249
    3dac:	5f 4f       	sbci	r21, 0xFF	; 255
    3dae:	d8 01       	movw	r26, r16
    3db0:	fa 01       	movw	r30, r20
    3db2:	84 e0       	ldi	r24, 0x04	; 4
    3db4:	84 0f       	add	r24, r20

                for (uint8_t i=0; i<sizeof(CardNonce); i++)
                    Buffer[i] = CardNonce[i];
    3db6:	91 91       	ld	r25, Z+
    3db8:	9d 93       	st	X+, r25

                /* Respond with the random card nonce and expect further authentication
                * form the reader in the next frame. */
                State = STATE_AUTHING;

                for (uint8_t i=0; i<sizeof(CardNonce); i++)
    3dba:	8e 13       	cpse	r24, r30
    3dbc:	fc cf       	rjmp	.-8      	; 0x3db6 <MifareClassicAppProcess+0xa68>
                    Buffer[i] = CardNonce[i];

                /* Setup crypto1 cipher. Discard in-place encrypted CardNonce. */
                Crypto1Setup(Key, Uid, CardNonce);
    3dbe:	be 01       	movw	r22, r28
    3dc0:	65 5f       	subi	r22, 0xF5	; 245
    3dc2:	7f 4f       	sbci	r23, 0xFF	; 255
    3dc4:	ce 01       	movw	r24, r28
    3dc6:	01 96       	adiw	r24, 0x01	; 1
    3dc8:	e6 d0       	rcall	.+460    	; 0x3f96 <Crypto1Setup>
    3dca:	ac cc       	rjmp	.-1704   	; 0x3724 <MifareClassicAppProcess+0x3d6>
                return CMD_AUTH_RB_FRAME_SIZE * BITS_PER_BYTE;
            } else {
                Buffer[0] = NAK_CRC_ERROR;
                return ACK_NAK_FRAME_SIZE;
            }
        } else if (  (Buffer[0] == CMD_READ) || (Buffer[0] == CMD_WRITE) || (Buffer[0] == CMD_DECREMENT)
    3dcc:	98 2f       	mov	r25, r24
    3dce:	9f 77       	andi	r25, 0x7F	; 127
    3dd0:	90 33       	cpi	r25, 0x30	; 48
    3dd2:	31 f0       	breq	.+12     	; 0x3de0 <MifareClassicAppProcess+0xa92>
    3dd4:	80 3a       	cpi	r24, 0xA0	; 160
    3dd6:	21 f0       	breq	.+8      	; 0x3de0 <MifareClassicAppProcess+0xa92>
    3dd8:	80 5c       	subi	r24, 0xC0	; 192
    3dda:	83 30       	cpi	r24, 0x03	; 3
    3ddc:	08 f0       	brcs	.+2      	; 0x3de0 <MifareClassicAppProcess+0xa92>
    3dde:	45 cb       	rjmp	.-2422   	; 0x346a <MifareClassicAppProcess+0x11c>
                  || (Buffer[0] == CMD_INCREMENT) || (Buffer[0] == CMD_RESTORE) || (Buffer[0] == CMD_TRANSFER) ) {
            State = STATE_IDLE;
    3de0:	81 e0       	ldi	r24, 0x01	; 1
    3de2:	80 93 22 21 	sts	0x2122, r24	; 0x802122 <State>
            Buffer[0] = NAK_NOT_AUTHED;
    3de6:	84 e0       	ldi	r24, 0x04	; 4
    3de8:	d8 01       	movw	r26, r16
    3dea:	8c 93       	st	X, r24
    3dec:	84 cf       	rjmp	.-248    	; 0x3cf6 <MifareClassicAppProcess+0x9a8>
                State = STATE_AUTHED_IDLE;
                /* No ACK response on value commands part 2 */
                return ISO14443A_APP_NO_RESPONSE;
            } else {
                /* Not sure if this is the correct error code.. */
                Buffer[0] = NAK_OTHER_ERROR ^ Crypto1Nibble();
    3dee:	8e d1       	rcall	.+796    	; 0x410c <Crypto1Nibble>
    3df0:	96 e0       	ldi	r25, 0x06	; 6
    3df2:	c3 cc       	rjmp	.-1658   	; 0x377a <MifareClassicAppProcess+0x42c>
                ValueFromBlock(&ParamValue, Buffer);
                ValueFromBlock(&BlockValue, BlockBuffer);

                if (State == STATE_DECREMENT) {
                    BlockValue -= ParamValue;
                } else if (State == STATE_INCREMENT) {
    3df4:	2a 30       	cpi	r18, 0x0A	; 10
    3df6:	09 f0       	breq	.+2      	; 0x3dfa <MifareClassicAppProcess+0xaac>
    3df8:	46 cd       	rjmp	.-1396   	; 0x3886 <MifareClassicAppProcess+0x538>
                    BlockValue += ParamValue;
    3dfa:	84 0f       	add	r24, r20
    3dfc:	95 1f       	adc	r25, r21
    3dfe:	a6 1f       	adc	r26, r22
    3e00:	b7 1f       	adc	r27, r23
    3e02:	41 cd       	rjmp	.-1406   	; 0x3886 <MifareClassicAppProcess+0x538>
        break;
    }

    /* No response has been sent, when we reach here */
    return ISO14443A_APP_NO_RESPONSE;
}
    3e04:	2f 96       	adiw	r28, 0x0f	; 15
    3e06:	cd bf       	out	0x3d, r28	; 61
    3e08:	de bf       	out	0x3e, r29	; 62
    3e0a:	df 91       	pop	r29
    3e0c:	cf 91       	pop	r28
    3e0e:	1f 91       	pop	r17
    3e10:	0f 91       	pop	r16
    3e12:	ff 90       	pop	r15
    3e14:	ef 90       	pop	r14
    3e16:	df 90       	pop	r13
    3e18:	cf 90       	pop	r12
    3e1a:	bf 90       	pop	r11
    3e1c:	af 90       	pop	r10
    3e1e:	08 95       	ret

00003e20 <MifareClassicGetUid>:

void MifareClassicGetUid(ConfigurationUidType Uid)
{
    3e20:	cf 93       	push	r28
    3e22:	df 93       	push	r29
	if (_7BUID) {
    3e24:	20 91 05 21 	lds	r18, 0x2105	; 0x802105 <_7BUID>
    3e28:	22 23       	and	r18, r18
    3e2a:	71 f0       	breq	.+28     	; 0x3e48 <MifareClassicGetUid+0x28>
    3e2c:	ec 01       	movw	r28, r24
		//Uid[0]=0x88;
		MemoryReadBlock(&Uid[0], MEM_UID_CL1_ADDRESS, MEM_UID_CL1_SIZE-1);
    3e2e:	43 e0       	ldi	r20, 0x03	; 3
    3e30:	50 e0       	ldi	r21, 0x00	; 0
    3e32:	60 e0       	ldi	r22, 0x00	; 0
    3e34:	70 e0       	ldi	r23, 0x00	; 0
    3e36:	0e 94 7c 08 	call	0x10f8	; 0x10f8 <MemoryReadBlock>
		MemoryReadBlock(&Uid[3], MEM_UID_CL2_ADDRESS, MEM_UID_CL2_SIZE);
    3e3a:	44 e0       	ldi	r20, 0x04	; 4
    3e3c:	50 e0       	ldi	r21, 0x00	; 0
    3e3e:	63 e0       	ldi	r22, 0x03	; 3
    3e40:	70 e0       	ldi	r23, 0x00	; 0
    3e42:	ce 01       	movw	r24, r28
    3e44:	03 96       	adiw	r24, 0x03	; 3
    3e46:	04 c0       	rjmp	.+8      	; 0x3e50 <MifareClassicGetUid+0x30>
	}
	else
    MemoryReadBlock(Uid, MEM_UID_CL1_ADDRESS, MEM_UID_CL1_SIZE);
    3e48:	44 e0       	ldi	r20, 0x04	; 4
    3e4a:	50 e0       	ldi	r21, 0x00	; 0
    3e4c:	60 e0       	ldi	r22, 0x00	; 0
    3e4e:	70 e0       	ldi	r23, 0x00	; 0
}
    3e50:	df 91       	pop	r29
    3e52:	cf 91       	pop	r28
		//Uid[0]=0x88;
		MemoryReadBlock(&Uid[0], MEM_UID_CL1_ADDRESS, MEM_UID_CL1_SIZE-1);
		MemoryReadBlock(&Uid[3], MEM_UID_CL2_ADDRESS, MEM_UID_CL2_SIZE);
	}
	else
    MemoryReadBlock(Uid, MEM_UID_CL1_ADDRESS, MEM_UID_CL1_SIZE);
    3e54:	0c 94 7c 08 	jmp	0x10f8	; 0x10f8 <MemoryReadBlock>

00003e58 <MifareClassicSetUid>:
}

void MifareClassicSetUid(ConfigurationUidType Uid)
{
    3e58:	cf 93       	push	r28
    3e5a:	df 93       	push	r29
    3e5c:	1f 92       	push	r1
    3e5e:	cd b7       	in	r28, 0x3d	; 61
    3e60:	de b7       	in	r29, 0x3e	; 62
    if (_7BUID) {
    3e62:	20 91 05 21 	lds	r18, 0x2105	; 0x802105 <_7BUID>
    3e66:	22 23       	and	r18, r18
    3e68:	31 f0       	breq	.+12     	; 0x3e76 <MifareClassicSetUid+0x1e>
	    //Uid[0]=0x88;
	    MemoryWriteBlock(Uid, MEM_UID_CL1_ADDRESS, ActiveConfiguration.UidSize);
    3e6a:	40 91 50 21 	lds	r20, 0x2150	; 0x802150 <ActiveConfiguration+0x16>
    3e6e:	50 e0       	ldi	r21, 0x00	; 0
    3e70:	60 e0       	ldi	r22, 0x00	; 0
    3e72:	70 e0       	ldi	r23, 0x00	; 0
    3e74:	15 c0       	rjmp	.+42     	; 0x3ea0 <MifareClassicSetUid+0x48>
    }
    else {
    uint8_t BCC =  Uid[0] ^ Uid[1] ^ Uid[2] ^ Uid[3];
    3e76:	fc 01       	movw	r30, r24
    3e78:	31 81       	ldd	r19, Z+1	; 0x01
    3e7a:	20 81       	ld	r18, Z
    3e7c:	23 27       	eor	r18, r19
    3e7e:	32 81       	ldd	r19, Z+2	; 0x02
    3e80:	23 27       	eor	r18, r19
    3e82:	33 81       	ldd	r19, Z+3	; 0x03
    3e84:	23 27       	eor	r18, r19
    3e86:	29 83       	std	Y+1, r18	; 0x01

    MemoryWriteBlock(Uid, MEM_UID_CL1_ADDRESS, MEM_UID_CL1_SIZE);
    3e88:	44 e0       	ldi	r20, 0x04	; 4
    3e8a:	50 e0       	ldi	r21, 0x00	; 0
    3e8c:	60 e0       	ldi	r22, 0x00	; 0
    3e8e:	70 e0       	ldi	r23, 0x00	; 0
    3e90:	0e 94 07 09 	call	0x120e	; 0x120e <MemoryWriteBlock>
    MemoryWriteBlock(&BCC, MEM_UID_BCC1_ADDRESS, ISO14443A_CL_BCC_SIZE);
    3e94:	41 e0       	ldi	r20, 0x01	; 1
    3e96:	50 e0       	ldi	r21, 0x00	; 0
    3e98:	64 e0       	ldi	r22, 0x04	; 4
    3e9a:	70 e0       	ldi	r23, 0x00	; 0
    3e9c:	ce 01       	movw	r24, r28
    3e9e:	01 96       	adiw	r24, 0x01	; 1
    3ea0:	0e 94 07 09 	call	0x120e	; 0x120e <MemoryWriteBlock>
    }
}
    3ea4:	0f 90       	pop	r0
    3ea6:	df 91       	pop	r29
    3ea8:	cf 91       	pop	r28
    3eaa:	08 95       	ret

00003eac <ISO14443AAppendCRCA>:
#ifdef USE_HW_CRC
void ISO14443AAppendCRCA(void* Buffer, uint16_t ByteCount)
{
    uint8_t* DataPtr = (uint8_t*) Buffer;

    CRC.CTRL = CRC_RESET0_bm;
    3eac:	20 e4       	ldi	r18, 0x40	; 64
    3eae:	20 93 d0 00 	sts	0x00D0, r18	; 0x8000d0 <__TEXT_REGION_LENGTH__+0x7000d0>
    CRC.CHECKSUM1 = (CRC_INIT_R >> 8) & 0xFF;
    3eb2:	26 ec       	ldi	r18, 0xC6	; 198
    3eb4:	20 93 d5 00 	sts	0x00D5, r18	; 0x8000d5 <__TEXT_REGION_LENGTH__+0x7000d5>
    CRC.CHECKSUM0 = (CRC_INIT_R >> 0) & 0xFF;
    3eb8:	20 93 d4 00 	sts	0x00D4, r18	; 0x8000d4 <__TEXT_REGION_LENGTH__+0x7000d4>
    CRC.CTRL = CRC_SOURCE_IO_gc;
    3ebc:	21 e0       	ldi	r18, 0x01	; 1
    3ebe:	20 93 d0 00 	sts	0x00D0, r18	; 0x8000d0 <__TEXT_REGION_LENGTH__+0x7000d0>
    3ec2:	dc 01       	movw	r26, r24
    3ec4:	68 0f       	add	r22, r24
    3ec6:	79 1f       	adc	r23, r25

    while(ByteCount--) {
    3ec8:	a6 17       	cp	r26, r22
    3eca:	b7 07       	cpc	r27, r23
    3ecc:	41 f0       	breq	.+16     	; 0x3ede <ISO14443AAppendCRCA+0x32>
        uint8_t Byte = *DataPtr++;
    3ece:	ed 91       	ld	r30, X+

INLINE uint8_t BitReverseByte(uint8_t Byte)
{
    extern const uint8_t PROGMEM BitReverseByteTable[];

    return pgm_read_byte(&BitReverseByteTable[Byte]);
    3ed0:	f0 e0       	ldi	r31, 0x00	; 0
    3ed2:	e9 5e       	subi	r30, 0xE9	; 233
    3ed4:	fa 4f       	sbci	r31, 0xFA	; 250
    3ed6:	e4 91       	lpm	r30, Z
        Byte = BitReverseByte(Byte);

        CRC.DATAIN = Byte;
    3ed8:	e0 93 d3 00 	sts	0x00D3, r30	; 0x8000d3 <__TEXT_REGION_LENGTH__+0x7000d3>
    3edc:	f5 cf       	rjmp	.-22     	; 0x3ec8 <ISO14443AAppendCRCA+0x1c>
    }

    DataPtr[0] = BitReverseByte(CRC.CHECKSUM1);
    3ede:	e0 91 d5 00 	lds	r30, 0x00D5	; 0x8000d5 <__TEXT_REGION_LENGTH__+0x7000d5>
    3ee2:	f0 e0       	ldi	r31, 0x00	; 0
    3ee4:	e9 5e       	subi	r30, 0xE9	; 233
    3ee6:	fa 4f       	sbci	r31, 0xFA	; 250
    3ee8:	e4 91       	lpm	r30, Z
    3eea:	ec 93       	st	X, r30
    DataPtr[1] = BitReverseByte(CRC.CHECKSUM0);
    3eec:	e0 91 d4 00 	lds	r30, 0x00D4	; 0x8000d4 <__TEXT_REGION_LENGTH__+0x7000d4>
    3ef0:	f0 e0       	ldi	r31, 0x00	; 0
    3ef2:	e9 5e       	subi	r30, 0xE9	; 233
    3ef4:	fa 4f       	sbci	r31, 0xFA	; 250
    3ef6:	e4 91       	lpm	r30, Z
    3ef8:	11 96       	adiw	r26, 0x01	; 1
    3efa:	ec 93       	st	X, r30

    CRC.CTRL = CRC_SOURCE_DISABLE_gc;
    3efc:	10 92 d0 00 	sts	0x00D0, r1	; 0x8000d0 <__TEXT_REGION_LENGTH__+0x7000d0>
    3f00:	08 95       	ret

00003f02 <ISO14443ACheckCRCA>:
#ifdef USE_HW_CRC
bool ISO14443ACheckCRCA(const void* Buffer, uint16_t ByteCount)
{
    const uint8_t* DataPtr = (const uint8_t*) Buffer;

    CRC.CTRL = CRC_RESET0_bm;
    3f02:	20 e4       	ldi	r18, 0x40	; 64
    3f04:	20 93 d0 00 	sts	0x00D0, r18	; 0x8000d0 <__TEXT_REGION_LENGTH__+0x7000d0>
    CRC.CHECKSUM1 = (CRC_INIT_R >> 8) & 0xFF;
    3f08:	26 ec       	ldi	r18, 0xC6	; 198
    3f0a:	20 93 d5 00 	sts	0x00D5, r18	; 0x8000d5 <__TEXT_REGION_LENGTH__+0x7000d5>
    CRC.CHECKSUM0 = (CRC_INIT_R >> 0) & 0xFF;
    3f0e:	20 93 d4 00 	sts	0x00D4, r18	; 0x8000d4 <__TEXT_REGION_LENGTH__+0x7000d4>
    CRC.CTRL = CRC_SOURCE_IO_gc;
    3f12:	21 e0       	ldi	r18, 0x01	; 1
    3f14:	20 93 d0 00 	sts	0x00D0, r18	; 0x8000d0 <__TEXT_REGION_LENGTH__+0x7000d0>
    3f18:	dc 01       	movw	r26, r24
    3f1a:	68 0f       	add	r22, r24
    3f1c:	79 1f       	adc	r23, r25

    while(ByteCount--) {
    3f1e:	a6 17       	cp	r26, r22
    3f20:	b7 07       	cpc	r27, r23
    3f22:	41 f0       	breq	.+16     	; 0x3f34 <ISO14443ACheckCRCA+0x32>
        uint8_t Byte = *DataPtr++;
    3f24:	ed 91       	ld	r30, X+
    3f26:	f0 e0       	ldi	r31, 0x00	; 0
    3f28:	e9 5e       	subi	r30, 0xE9	; 233
    3f2a:	fa 4f       	sbci	r31, 0xFA	; 250
    3f2c:	e4 91       	lpm	r30, Z
        Byte = BitReverseByte(Byte);

        CRC.DATAIN = Byte;
    3f2e:	e0 93 d3 00 	sts	0x00D3, r30	; 0x8000d3 <__TEXT_REGION_LENGTH__+0x7000d3>
    3f32:	f5 cf       	rjmp	.-22     	; 0x3f1e <ISO14443ACheckCRCA+0x1c>
    }

    bool Result = (DataPtr[0] == BitReverseByte(CRC.CHECKSUM1)) && (DataPtr[1] == BitReverseByte(CRC.CHECKSUM0));
    3f34:	e0 91 d5 00 	lds	r30, 0x00D5	; 0x8000d5 <__TEXT_REGION_LENGTH__+0x7000d5>
    3f38:	f0 e0       	ldi	r31, 0x00	; 0
    3f3a:	e9 5e       	subi	r30, 0xE9	; 233
    3f3c:	fa 4f       	sbci	r31, 0xFA	; 250
    3f3e:	e4 91       	lpm	r30, Z
    3f40:	8c 91       	ld	r24, X
    3f42:	8e 13       	cpse	r24, r30
    3f44:	0a c0       	rjmp	.+20     	; 0x3f5a <ISO14443ACheckCRCA+0x58>
    3f46:	e0 91 d4 00 	lds	r30, 0x00D4	; 0x8000d4 <__TEXT_REGION_LENGTH__+0x7000d4>
    3f4a:	f0 e0       	ldi	r31, 0x00	; 0
    3f4c:	e9 5e       	subi	r30, 0xE9	; 233
    3f4e:	fa 4f       	sbci	r31, 0xFA	; 250
    3f50:	e4 91       	lpm	r30, Z
    3f52:	81 e0       	ldi	r24, 0x01	; 1
    3f54:	11 96       	adiw	r26, 0x01	; 1
    3f56:	9c 91       	ld	r25, X
    3f58:	9e 13       	cpse	r25, r30
    3f5a:	80 e0       	ldi	r24, 0x00	; 0

    CRC.CTRL = CRC_SOURCE_DISABLE_gc;
    3f5c:	10 92 d0 00 	sts	0x00D0, r1	; 0x8000d0 <__TEXT_REGION_LENGTH__+0x7000d0>

    return Result;
}
    3f60:	81 70       	andi	r24, 0x01	; 1
    3f62:	08 95       	ret

00003f64 <Crypto1ByteAuth>:

uint32_t StateOdd;
uint32_t StateEven;

static uint8_t Crypto1ByteAuth(uint8_t In, uint8_t AuthSet)
{
    3f64:	0f 93       	push	r16
    3f66:	1f 93       	push	r17
    3f68:	cf 93       	push	r28
    3f6a:	df 93       	push	r29
    3f6c:	18 2f       	mov	r17, r24
    3f6e:	06 2f       	mov	r16, r22
    3f70:	d8 e0       	ldi	r29, 0x08	; 8
	uint8_t KeyStream = 0;
    3f72:	c0 e0       	ldi	r28, 0x00	; 0

	/* Generate 8 keystream-bits */
	for (i=0; i<8; i++) {

		/* Calculate next bit and add to KeyStream */
		uint8_t Out = Crypto1Bit(In&1,AuthSet);
    3f74:	60 2f       	mov	r22, r16
    3f76:	81 2f       	mov	r24, r17
    3f78:	81 70       	andi	r24, 0x01	; 1
    3f7a:	0e 94 7d 05 	call	0xafa	; 0xafa <Crypto1Bit>

		In>>=1;
    3f7e:	16 95       	lsr	r17
		KeyStream>>=1;
    3f80:	c6 95       	lsr	r28
		if(Out) {
    3f82:	81 11       	cpse	r24, r1
			KeyStream |= (1<<7);
    3f84:	c0 68       	ori	r28, 0x80	; 128
    3f86:	d1 50       	subi	r29, 0x01	; 1
{
	uint8_t KeyStream = 0;
	uint8_t i;

	/* Generate 8 keystream-bits */
	for (i=0; i<8; i++) {
    3f88:	a9 f7       	brne	.-22     	; 0x3f74 <Crypto1ByteAuth+0x10>
		}
		
	}

	return KeyStream;
}
    3f8a:	8c 2f       	mov	r24, r28
    3f8c:	df 91       	pop	r29
    3f8e:	cf 91       	pop	r28
    3f90:	1f 91       	pop	r17
    3f92:	0f 91       	pop	r16
    3f94:	08 95       	ret

00003f96 <Crypto1Setup>:

void Crypto1Setup(uint8_t Key[6], uint8_t Uid[4], uint8_t CardNonce[4])
{
    3f96:	cf 92       	push	r12
    3f98:	df 92       	push	r13
    3f9a:	ef 92       	push	r14
    3f9c:	ff 92       	push	r15
    3f9e:	0f 93       	push	r16
    3fa0:	1f 93       	push	r17
    3fa2:	cf 93       	push	r28
    3fa4:	df 93       	push	r29

	StateOdd = 0;
    3fa6:	10 92 56 23 	sts	0x2356, r1	; 0x802356 <StateOdd>
    3faa:	10 92 57 23 	sts	0x2357, r1	; 0x802357 <StateOdd+0x1>
    3fae:	10 92 58 23 	sts	0x2358, r1	; 0x802358 <StateOdd+0x2>
    3fb2:	10 92 59 23 	sts	0x2359, r1	; 0x802359 <StateOdd+0x3>
	StateEven = 0;
    3fb6:	10 92 52 23 	sts	0x2352, r1	; 0x802352 <StateEven>
    3fba:	10 92 53 23 	sts	0x2353, r1	; 0x802353 <StateEven+0x1>
    3fbe:	10 92 54 23 	sts	0x2354, r1	; 0x802354 <StateEven+0x2>
    3fc2:	10 92 55 23 	sts	0x2355, r1	; 0x802355 <StateEven+0x3>
    3fc6:	dc 01       	movw	r26, r24
    3fc8:	16 96       	adiw	r26, 0x06	; 6

	return KeyStream;
}

void Crypto1Setup(uint8_t Key[6], uint8_t Uid[4], uint8_t CardNonce[4])
{
    3fca:	e7 e0       	ldi	r30, 0x07	; 7
    3fcc:	f0 e0       	ldi	r31, 0x00	; 0

	int i = 0, j = 0;
	for(i = 0 ; i < 6 ; i++) {

		for(j = 7 ; j > 0 ; j -= 2) {
			StateOdd = StateOdd << 1 | (Key[i]>>((j-1) ^ 7)&1);
    3fce:	ec 01       	movw	r28, r24
    3fd0:	08 81       	ld	r16, Y
    3fd2:	10 e0       	ldi	r17, 0x00	; 0
    3fd4:	9f 01       	movw	r18, r30
    3fd6:	21 50       	subi	r18, 0x01	; 1
    3fd8:	31 09       	sbc	r19, r1
    3fda:	d7 e0       	ldi	r29, 0x07	; 7
    3fdc:	2d 27       	eor	r18, r29
    3fde:	02 c0       	rjmp	.+4      	; 0x3fe4 <Crypto1Setup+0x4e>
    3fe0:	15 95       	asr	r17
    3fe2:	07 95       	ror	r16
    3fe4:	2a 95       	dec	r18
    3fe6:	e2 f7       	brpl	.-8      	; 0x3fe0 <Crypto1Setup+0x4a>
    3fe8:	01 70       	andi	r16, 0x01	; 1
    3fea:	11 27       	eor	r17, r17
    3fec:	01 2e       	mov	r0, r17
    3fee:	00 0c       	add	r0, r0
    3ff0:	22 0b       	sbc	r18, r18
    3ff2:	33 0b       	sbc	r19, r19
    3ff4:	c0 90 56 23 	lds	r12, 0x2356	; 0x802356 <StateOdd>
    3ff8:	d0 90 57 23 	lds	r13, 0x2357	; 0x802357 <StateOdd+0x1>
    3ffc:	e0 90 58 23 	lds	r14, 0x2358	; 0x802358 <StateOdd+0x2>
    4000:	f0 90 59 23 	lds	r15, 0x2359	; 0x802359 <StateOdd+0x3>
    4004:	cc 0c       	add	r12, r12
    4006:	dd 1c       	adc	r13, r13
    4008:	ee 1c       	adc	r14, r14
    400a:	ff 1c       	adc	r15, r15
    400c:	0c 29       	or	r16, r12
    400e:	1d 29       	or	r17, r13
    4010:	2e 29       	or	r18, r14
    4012:	3f 29       	or	r19, r15
    4014:	00 93 56 23 	sts	0x2356, r16	; 0x802356 <StateOdd>
    4018:	10 93 57 23 	sts	0x2357, r17	; 0x802357 <StateOdd+0x1>
    401c:	20 93 58 23 	sts	0x2358, r18	; 0x802358 <StateOdd+0x2>
    4020:	30 93 59 23 	sts	0x2359, r19	; 0x802359 <StateOdd+0x3>
			StateEven = StateEven << 1 | (Key[i]>>((j) ^ 7)&1);
    4024:	ec 01       	movw	r28, r24
    4026:	08 81       	ld	r16, Y
    4028:	10 e0       	ldi	r17, 0x00	; 0
    402a:	9f 01       	movw	r18, r30
    402c:	d7 e0       	ldi	r29, 0x07	; 7
    402e:	2d 27       	eor	r18, r29
    4030:	02 c0       	rjmp	.+4      	; 0x4036 <Crypto1Setup+0xa0>
    4032:	15 95       	asr	r17
    4034:	07 95       	ror	r16
    4036:	2a 95       	dec	r18
    4038:	e2 f7       	brpl	.-8      	; 0x4032 <Crypto1Setup+0x9c>
    403a:	01 70       	andi	r16, 0x01	; 1
    403c:	11 27       	eor	r17, r17
    403e:	01 2e       	mov	r0, r17
    4040:	00 0c       	add	r0, r0
    4042:	22 0b       	sbc	r18, r18
    4044:	33 0b       	sbc	r19, r19
    4046:	c0 90 52 23 	lds	r12, 0x2352	; 0x802352 <StateEven>
    404a:	d0 90 53 23 	lds	r13, 0x2353	; 0x802353 <StateEven+0x1>
    404e:	e0 90 54 23 	lds	r14, 0x2354	; 0x802354 <StateEven+0x2>
    4052:	f0 90 55 23 	lds	r15, 0x2355	; 0x802355 <StateEven+0x3>
    4056:	cc 0c       	add	r12, r12
    4058:	dd 1c       	adc	r13, r13
    405a:	ee 1c       	adc	r14, r14
    405c:	ff 1c       	adc	r15, r15
    405e:	0c 29       	or	r16, r12
    4060:	1d 29       	or	r17, r13
    4062:	2e 29       	or	r18, r14
    4064:	3f 29       	or	r19, r15
    4066:	00 93 52 23 	sts	0x2352, r16	; 0x802352 <StateEven>
    406a:	10 93 53 23 	sts	0x2353, r17	; 0x802353 <StateEven+0x1>
    406e:	20 93 54 23 	sts	0x2354, r18	; 0x802354 <StateEven+0x2>
    4072:	30 93 55 23 	sts	0x2355, r19	; 0x802355 <StateEven+0x3>
	StateEven = 0;

	int i = 0, j = 0;
	for(i = 0 ; i < 6 ; i++) {

		for(j = 7 ; j > 0 ; j -= 2) {
    4076:	32 97       	sbiw	r30, 0x02	; 2
    4078:	ef 3f       	cpi	r30, 0xFF	; 255
    407a:	2f ef       	ldi	r18, 0xFF	; 255
    407c:	f2 07       	cpc	r31, r18
    407e:	09 f0       	breq	.+2      	; 0x4082 <Crypto1Setup+0xec>
    4080:	a6 cf       	rjmp	.-180    	; 0x3fce <Crypto1Setup+0x38>
    4082:	01 96       	adiw	r24, 0x01	; 1

	StateOdd = 0;
	StateEven = 0;

	int i = 0, j = 0;
	for(i = 0 ; i < 6 ; i++) {
    4084:	8a 17       	cp	r24, r26
    4086:	9b 07       	cpc	r25, r27
    4088:	09 f0       	breq	.+2      	; 0x408c <Crypto1Setup+0xf6>
    408a:	9f cf       	rjmp	.-194    	; 0x3fca <Crypto1Setup+0x34>
    408c:	8b 01       	movw	r16, r22
    408e:	ea 01       	movw	r28, r20
    4090:	7a 01       	movw	r14, r20
    4092:	84 e0       	ldi	r24, 0x04	; 4
    4094:	e8 0e       	add	r14, r24
    4096:	f1 1c       	adc	r15, r1
			StateEven = StateEven << 1 | (Key[i]>>((j) ^ 7)&1);
		}
	}

	for(i=0; i<4; i++) {
		CardNonce[i] ^= Crypto1ByteAuth(Uid[i] ^ CardNonce[i], 0);
    4098:	f8 01       	movw	r30, r16
    409a:	91 91       	ld	r25, Z+
    409c:	8f 01       	movw	r16, r30
    409e:	88 81       	ld	r24, Y
    40a0:	60 e0       	ldi	r22, 0x00	; 0
    40a2:	89 27       	eor	r24, r25
    40a4:	5f df       	rcall	.-322    	; 0x3f64 <Crypto1ByteAuth>
    40a6:	98 81       	ld	r25, Y
    40a8:	89 27       	eor	r24, r25
    40aa:	89 93       	st	Y+, r24
			StateOdd = StateOdd << 1 | (Key[i]>>((j-1) ^ 7)&1);
			StateEven = StateEven << 1 | (Key[i]>>((j) ^ 7)&1);
		}
	}

	for(i=0; i<4; i++) {
    40ac:	ce 15       	cp	r28, r14
    40ae:	df 05       	cpc	r29, r15
    40b0:	99 f7       	brne	.-26     	; 0x4098 <Crypto1Setup+0x102>
		CardNonce[i] ^= Crypto1ByteAuth(Uid[i] ^ CardNonce[i], 0);
	}

}
    40b2:	df 91       	pop	r29
    40b4:	cf 91       	pop	r28
    40b6:	1f 91       	pop	r17
    40b8:	0f 91       	pop	r16
    40ba:	ff 90       	pop	r15
    40bc:	ef 90       	pop	r14
    40be:	df 90       	pop	r13
    40c0:	cf 90       	pop	r12
    40c2:	08 95       	ret

000040c4 <Crypto1Auth>:

void Crypto1Auth(uint8_t EncryptedReaderNonce[4])
{
    40c4:	0f 93       	push	r16
    40c6:	1f 93       	push	r17
    40c8:	cf 93       	push	r28
    40ca:	df 93       	push	r29
    40cc:	ec 01       	movw	r28, r24
    40ce:	8c 01       	movw	r16, r24
    40d0:	0c 5f       	subi	r16, 0xFC	; 252
    40d2:	1f 4f       	sbci	r17, 0xFF	; 255
	uint8_t i;

	/* Calculate Authentication on Nonce */
	for(i = 0 ; i < 4 ; i++) {
		Crypto1ByteAuth(EncryptedReaderNonce[i],1);
    40d4:	61 e0       	ldi	r22, 0x01	; 1
    40d6:	89 91       	ld	r24, Y+
    40d8:	45 df       	rcall	.-374    	; 0x3f64 <Crypto1ByteAuth>
void Crypto1Auth(uint8_t EncryptedReaderNonce[4])
{
	uint8_t i;

	/* Calculate Authentication on Nonce */
	for(i = 0 ; i < 4 ; i++) {
    40da:	c0 17       	cp	r28, r16
    40dc:	d1 07       	cpc	r29, r17
    40de:	d1 f7       	brne	.-12     	; 0x40d4 <Crypto1Auth+0x10>
		Crypto1ByteAuth(EncryptedReaderNonce[i],1);
	}
}
    40e0:	df 91       	pop	r29
    40e2:	cf 91       	pop	r28
    40e4:	1f 91       	pop	r17
    40e6:	0f 91       	pop	r16
    40e8:	08 95       	ret

000040ea <Crypto1Byte>:

uint8_t Crypto1Byte(void)
{
    40ea:	cf 93       	push	r28
    40ec:	df 93       	push	r29
    40ee:	d8 e0       	ldi	r29, 0x08	; 8
	uint8_t KeyStream = 0;
    40f0:	c0 e0       	ldi	r28, 0x00	; 0

	/* Generate 8 keystream-bits */
	for (i=0; i<8; i++) {

		/* Calculate next bit and add to KeyStream */
		uint8_t Out = Crypto1Bit(0,0);
    40f2:	60 e0       	ldi	r22, 0x00	; 0
    40f4:	80 e0       	ldi	r24, 0x00	; 0
    40f6:	0e 94 7d 05 	call	0xafa	; 0xafa <Crypto1Bit>

		KeyStream>>=1;
    40fa:	c6 95       	lsr	r28
		if(Out) {
    40fc:	81 11       	cpse	r24, r1
			KeyStream |= (1<<7);
    40fe:	c0 68       	ori	r28, 0x80	; 128
    4100:	d1 50       	subi	r29, 0x01	; 1
{
	uint8_t KeyStream = 0;
	uint8_t i;

	/* Generate 8 keystream-bits */
	for (i=0; i<8; i++) {
    4102:	b9 f7       	brne	.-18     	; 0x40f2 <Crypto1Byte+0x8>
		}
		
	}

	return KeyStream;
}
    4104:	8c 2f       	mov	r24, r28
    4106:	df 91       	pop	r29
    4108:	cf 91       	pop	r28
    410a:	08 95       	ret

0000410c <Crypto1Nibble>:

uint8_t Crypto1Nibble(void)
{
    410c:	cf 93       	push	r28
    410e:	df 93       	push	r29
    4110:	d4 e0       	ldi	r29, 0x04	; 4
	uint8_t KeyStream = 0;
    4112:	c0 e0       	ldi	r28, 0x00	; 0

	/* Generate 4 keystream-bits */
	for (i=0; i<4; i++) {

		/* Calculate next bit and add to KeyStream */
		uint8_t Out = Crypto1Bit(0,0);
    4114:	60 e0       	ldi	r22, 0x00	; 0
    4116:	80 e0       	ldi	r24, 0x00	; 0
    4118:	0e 94 7d 05 	call	0xafa	; 0xafa <Crypto1Bit>

		KeyStream>>=1;
    411c:	c6 95       	lsr	r28
		if(Out) {
    411e:	81 11       	cpse	r24, r1
			KeyStream |= (1<<7);
    4120:	c0 68       	ori	r28, 0x80	; 128
    4122:	d1 50       	subi	r29, 0x01	; 1
{
	uint8_t KeyStream = 0;
	uint8_t i;

	/* Generate 4 keystream-bits */
	for (i=0; i<4; i++) {
    4124:	b9 f7       	brne	.-18     	; 0x4114 <Crypto1Nibble+0x8>
		}
		
	}

	return KeyStream;
}
    4126:	8c 2f       	mov	r24, r28
    4128:	df 91       	pop	r29
    412a:	cf 91       	pop	r28
    412c:	08 95       	ret

0000412e <Crypto1PRNG>:

void Crypto1PRNG(uint8_t State[4], uint16_t ClockCount)
{
    412e:	fc 01       	movw	r30, r24
    4130:	cb 01       	movw	r24, r22
	while(ClockCount--) {
    4132:	01 97       	sbiw	r24, 0x01	; 1
    4134:	28 f1       	brcs	.+74     	; 0x4180 <Crypto1PRNG+0x52>
		* XOR all tapped bits to a single feedback bit. */
		uint8_t Feedback = 0;

		Feedback ^= State[0] & (uint8_t) (PRNG_MASK >> 0);
		Feedback ^= State[1] & (uint8_t) (PRNG_MASK >> 8);
		Feedback ^= State[2] & (uint8_t) (PRNG_MASK >> 16);
    4136:	42 81       	ldd	r20, Z+2	; 0x02
    4138:	24 2f       	mov	r18, r20
    413a:	2d 72       	andi	r18, 0x2D	; 45
		Feedback ^= State[3] & (uint8_t) (PRNG_MASK >> 24);

		Feedback ^= Feedback >> 4;
    413c:	32 2f       	mov	r19, r18
    413e:	32 95       	swap	r19
    4140:	3f 70       	andi	r19, 0x0F	; 15
    4142:	23 27       	eor	r18, r19
		Feedback ^= Feedback >> 2;
    4144:	32 2f       	mov	r19, r18
    4146:	36 95       	lsr	r19
    4148:	36 95       	lsr	r19
    414a:	23 27       	eor	r18, r19
		Feedback ^= Feedback >> 1;
    414c:	32 2f       	mov	r19, r18
    414e:	36 95       	lsr	r19

		/* For ease of processing convert the state into a 32 bit integer first */
		uint32_t Temp = 0;

		Temp |= (uint32_t) State[0] << 0;
		Temp |= (uint32_t) State[1] << 8;
    4150:	a1 81       	ldd	r26, Z+1	; 0x01
		Temp |= (uint32_t) State[2] << 16;
    4152:	50 e0       	ldi	r21, 0x00	; 0
    4154:	60 e0       	ldi	r22, 0x00	; 0
    4156:	70 e0       	ldi	r23, 0x00	; 0
    4158:	ba 01       	movw	r22, r20
    415a:	55 27       	eor	r21, r21
    415c:	44 27       	eor	r20, r20
    415e:	5a 2b       	or	r21, r26
		Feedback ^= Feedback >> 1;

		/* For ease of processing convert the state into a 32 bit integer first */
		uint32_t Temp = 0;

		Temp |= (uint32_t) State[0] << 0;
    4160:	a0 81       	ld	r26, Z
		Temp |= (uint32_t) State[1] << 8;
		Temp |= (uint32_t) State[2] << 16;
    4162:	4a 2b       	or	r20, r26
		Temp |= (uint32_t) State[3] << 24;
    4164:	a3 81       	ldd	r26, Z+3	; 0x03
    4166:	7a 2b       	or	r23, r26

		/* Cycle LFSR and feed back. */
		Temp >>= 1;
    4168:	76 95       	lsr	r23
    416a:	67 95       	ror	r22
    416c:	57 95       	ror	r21
    416e:	47 95       	ror	r20
		Feedback ^= State[2] & (uint8_t) (PRNG_MASK >> 16);
		Feedback ^= State[3] & (uint8_t) (PRNG_MASK >> 24);

		Feedback ^= Feedback >> 4;
		Feedback ^= Feedback >> 2;
		Feedback ^= Feedback >> 1;
    4170:	23 27       	eor	r18, r19
		Temp |= (uint32_t) State[3] << 24;

		/* Cycle LFSR and feed back. */
		Temp >>= 1;

		if (Feedback & 0x01) {
    4172:	20 fd       	sbrc	r18, 0
			Temp |= (uint32_t) 1 << (8 * PRNG_SIZE - 1);
    4174:	70 68       	ori	r23, 0x80	; 128
		}

		/* Store back state */
		State[0] = (uint8_t) (Temp >> 0);
    4176:	40 83       	st	Z, r20
		State[1] = (uint8_t) (Temp >> 8);
    4178:	51 83       	std	Z+1, r21	; 0x01
		State[2] = (uint8_t) (Temp >> 16);
    417a:	62 83       	std	Z+2, r22	; 0x02
		State[3] = (uint8_t) (Temp >> 24);
    417c:	73 83       	std	Z+3, r23	; 0x03
    417e:	d9 cf       	rjmp	.-78     	; 0x4132 <Crypto1PRNG+0x4>
	}


}
    4180:	08 95       	ret

00004182 <MifareDetectionAppProcess>:
static uint8_t turn_falga = 0;
static uint8_t turn_falgb = 0;
static uint8_t keyb_falg = 0;

uint16_t MifareDetectionAppProcess(uint8_t* Buffer, uint16_t BitCount)
{
    4182:	cf 92       	push	r12
    4184:	df 92       	push	r13
    4186:	ef 92       	push	r14
    4188:	ff 92       	push	r15
    418a:	0f 93       	push	r16
    418c:	1f 93       	push	r17
    418e:	cf 93       	push	r28
    4190:	df 93       	push	r29
    4192:	cd b7       	in	r28, 0x3d	; 61
    4194:	de b7       	in	r29, 0x3e	; 62
    4196:	25 97       	sbiw	r28, 0x05	; 5
    4198:	cd bf       	out	0x3d, r28	; 61
    419a:	de bf       	out	0x3e, r29	; 62
    419c:	8c 01       	movw	r16, r24
	/* 0x26 / 0x52 Wakeup */
    if ( (BitCount == 7) &&
    419e:	67 30       	cpi	r22, 0x07	; 7
    41a0:	71 05       	cpc	r23, r1
    41a2:	d9 f4       	brne	.+54     	; 0x41da <MifareDetectionAppProcess+0x58>
    /* precheck of WUP/REQ because ISO14443AWakeUp destroys BitCount */
    ((Buffer[0] == ISO14443A_CMD_REQA) || (Buffer[0] == ISO14443A_CMD_WUPA)) ) {
    41a4:	fc 01       	movw	r30, r24
    41a6:	80 81       	ld	r24, Z
static uint8_t keyb_falg = 0;

uint16_t MifareDetectionAppProcess(uint8_t* Buffer, uint16_t BitCount)
{
	/* 0x26 / 0x52 Wakeup */
    if ( (BitCount == 7) &&
    41a8:	86 32       	cpi	r24, 0x26	; 38
    41aa:	19 f0       	breq	.+6      	; 0x41b2 <MifareDetectionAppProcess+0x30>
    /* precheck of WUP/REQ because ISO14443AWakeUp destroys BitCount */
    ((Buffer[0] == ISO14443A_CMD_REQA) || (Buffer[0] == ISO14443A_CMD_WUPA)) ) {
    41ac:	82 35       	cpi	r24, 0x52	; 82
    41ae:	09 f0       	breq	.+2      	; 0x41b2 <MifareDetectionAppProcess+0x30>
    41b0:	bc c0       	rjmp	.+376    	; 0x432a <MifareDetectionAppProcess+0x1a8>

		State = STATE_HALT;
    41b2:	10 92 39 21 	sts	0x2139, r1	; 0x802139 <State>
		if (ISO14443AWakeUp(Buffer, &BitCount, CardATQAValue, false))
    41b6:	20 91 37 21 	lds	r18, 0x2137	; 0x802137 <CardATQAValue>
    41ba:	90 91 38 21 	lds	r25, 0x2138	; 0x802138 <CardATQAValue+0x1>
INLINE
bool ISO14443AWakeUp(void* Buffer, uint16_t* BitCount, uint16_t ATQAValue, bool FromHalt)
{
    uint8_t* DataPtr = (uint8_t*) Buffer;

    if ( ((! FromHalt) && (DataPtr[0] == ISO14443A_CMD_REQA)) ||
    41be:	86 32       	cpi	r24, 0x26	; 38
    41c0:	19 f0       	breq	.+6      	; 0x41c8 <MifareDetectionAppProcess+0x46>
    41c2:	82 35       	cpi	r24, 0x52	; 82
    41c4:	09 f0       	breq	.+2      	; 0x41c8 <MifareDetectionAppProcess+0x46>
    41c6:	af c0       	rjmp	.+350    	; 0x4326 <MifareDetectionAppProcess+0x1a4>
         (DataPtr[0] == ISO14443A_CMD_WUPA) ){
        DataPtr[0] = (ATQAValue >> 0) & 0x00FF;
    41c8:	f8 01       	movw	r30, r16
    41ca:	20 83       	st	Z, r18
        DataPtr[1] = (ATQAValue >> 8) & 0x00FF;
    41cc:	91 83       	std	Z+1, r25	; 0x01
		{
			State = STATE_READY;
    41ce:	82 e0       	ldi	r24, 0x02	; 2
    41d0:	80 93 39 21 	sts	0x2139, r24	; 0x802139 <State>

        *BitCount = ISO14443A_ATQA_FRAME_SIZE;
    41d4:	80 e1       	ldi	r24, 0x10	; 16
    41d6:	90 e0       	ldi	r25, 0x00	; 0
			return BitCount;
    41d8:	3d c1       	rjmp	.+634    	; 0x4454 <MifareDetectionAppProcess+0x2d2>
		}
	}

	//0x93 0x20 & 0x93 0x70  (select anticol)
	if (BitCount==16 || BitCount==72) {
    41da:	60 31       	cpi	r22, 0x10	; 16
    41dc:	71 05       	cpc	r23, r1
    41de:	21 f0       	breq	.+8      	; 0x41e8 <MifareDetectionAppProcess+0x66>
    41e0:	68 34       	cpi	r22, 0x48	; 72
    41e2:	71 05       	cpc	r23, r1
    41e4:	09 f0       	breq	.+2      	; 0x41e8 <MifareDetectionAppProcess+0x66>
    41e6:	a1 c0       	rjmp	.+322    	; 0x432a <MifareDetectionAppProcess+0x1a8>
		if (Buffer[0] == ISO14443A_CMD_SELECT_CL1) {
    41e8:	f8 01       	movw	r30, r16
    41ea:	80 81       	ld	r24, Z
    41ec:	83 39       	cpi	r24, 0x93	; 147
    41ee:	09 f0       	breq	.+2      	; 0x41f2 <MifareDetectionAppProcess+0x70>
    41f0:	9c c0       	rjmp	.+312    	; 0x432a <MifareDetectionAppProcess+0x1a8>
			uint8_t UidCL1[4];
			MemoryReadBlock(UidCL1, MEM_UID_CL1_ADDRESS, MEM_UID_CL1_SIZE);
    41f2:	44 e0       	ldi	r20, 0x04	; 4
    41f4:	50 e0       	ldi	r21, 0x00	; 0
    41f6:	60 e0       	ldi	r22, 0x00	; 0
    41f8:	70 e0       	ldi	r23, 0x00	; 0
    41fa:	ce 01       	movw	r24, r28
    41fc:	01 96       	adiw	r24, 0x01	; 1
    41fe:	0e 94 7c 08 	call	0x10f8	; 0x10f8 <MemoryReadBlock>
			if (ISO14443ASelect(Buffer, &BitCount, UidCL1, CardSAKValue))
    4202:	90 91 36 21 	lds	r25, 0x2136	; 0x802136 <CardSAKValue>

INLINE
bool ISO14443ASelect(void* Buffer, uint16_t* BitCount, uint8_t* UidCL, uint8_t SAKValue)
{
    uint8_t* DataPtr = (uint8_t*) Buffer;
    uint8_t NVB = DataPtr[1];
    4206:	f8 01       	movw	r30, r16
    4208:	81 81       	ldd	r24, Z+1	; 0x01
    //uint8_t CollisionByteCount = (NVB >> 4) & 0x0F;
    //uint8_t CollisionBitCount =  (NVB >> 0) & 0x0F;

    switch (NVB) {
    420a:	80 32       	cpi	r24, 0x20	; 32
    420c:	09 f4       	brne	.+2      	; 0x4210 <MifareDetectionAppProcess+0x8e>
    420e:	7b c0       	rjmp	.+246    	; 0x4306 <MifareDetectionAppProcess+0x184>
    4210:	80 37       	cpi	r24, 0x70	; 112
    4212:	c9 f4       	brne	.+50     	; 0x4246 <MifareDetectionAppProcess+0xc4>
        return false;

    case ISO14443A_NVB_AC_END:
        /* End of anticollision procedure.
        * Send SAK CLn if we are selected. */
        if (    (DataPtr[2] == UidCL[0]) &&
    4214:	f8 01       	movw	r30, r16
    4216:	22 81       	ldd	r18, Z+2	; 0x02
    4218:	89 81       	ldd	r24, Y+1	; 0x01
    421a:	28 13       	cpse	r18, r24
    421c:	84 c0       	rjmp	.+264    	; 0x4326 <MifareDetectionAppProcess+0x1a4>
    421e:	23 81       	ldd	r18, Z+3	; 0x03
    4220:	8a 81       	ldd	r24, Y+2	; 0x02
    4222:	28 13       	cpse	r18, r24
    4224:	80 c0       	rjmp	.+256    	; 0x4326 <MifareDetectionAppProcess+0x1a4>
                (DataPtr[3] == UidCL[1]) &&
    4226:	24 81       	ldd	r18, Z+4	; 0x04
    4228:	8b 81       	ldd	r24, Y+3	; 0x03
    422a:	28 13       	cpse	r18, r24
    422c:	7c c0       	rjmp	.+248    	; 0x4326 <MifareDetectionAppProcess+0x1a4>
                (DataPtr[4] == UidCL[2]) &&
    422e:	25 81       	ldd	r18, Z+5	; 0x05
    4230:	8c 81       	ldd	r24, Y+4	; 0x04
    4232:	28 13       	cpse	r18, r24
    4234:	78 c0       	rjmp	.+240    	; 0x4326 <MifareDetectionAppProcess+0x1a4>
                (DataPtr[5] == UidCL[3]) ) {

            DataPtr[0] = SAKValue;
    4236:	90 83       	st	Z, r25
            ISO14443AAppendCRCA(Buffer, 1);
    4238:	61 e0       	ldi	r22, 0x01	; 1
    423a:	70 e0       	ldi	r23, 0x00	; 0
    423c:	c8 01       	movw	r24, r16
    423e:	36 de       	rcall	.-916    	; 0x3eac <ISO14443AAppendCRCA>
			return BitCount;
    4240:	88 e1       	ldi	r24, 0x18	; 24
    4242:	90 e0       	ldi	r25, 0x00	; 0
    4244:	07 c1       	rjmp	.+526    	; 0x4454 <MifareDetectionAppProcess+0x2d2>
            *BitCount = 0;
            return false;
        }
    default:
    {
        uint8_t CollisionByteCount = ((NVB >> 4) & 0x0f) - 2;
    4246:	e8 2e       	mov	r14, r24
    4248:	e2 94       	swap	r14
    424a:	2f e0       	ldi	r18, 0x0F	; 15
    424c:	e2 22       	and	r14, r18
    424e:	2e ef       	ldi	r18, 0xFE	; 254
    4250:	2e 0d       	add	r18, r14
        uint8_t CollisionBitCount  = (NVB >> 0) & 0x0f;
    4252:	8f 70       	andi	r24, 0x0F	; 15
    4254:	f8 2e       	mov	r15, r24
        uint8_t mask = 0xFF >> (8 - CollisionBitCount);
    4256:	88 e0       	ldi	r24, 0x08	; 8
    4258:	90 e0       	ldi	r25, 0x00	; 0
    425a:	8f 19       	sub	r24, r15
    425c:	91 09       	sbc	r25, r1
    425e:	4f ef       	ldi	r20, 0xFF	; 255
    4260:	50 e0       	ldi	r21, 0x00	; 0
    4262:	6a 01       	movw	r12, r20
    4264:	02 c0       	rjmp	.+4      	; 0x426a <MifareDetectionAppProcess+0xe8>
    4266:	d5 94       	asr	r13
    4268:	c7 94       	ror	r12
    426a:	8a 95       	dec	r24
    426c:	e2 f7       	brpl	.-8      	; 0x4266 <MifareDetectionAppProcess+0xe4>
        // Since the UidCL does not contain the BCC, we have to distinguish here
        if (
    426e:	25 30       	cpi	r18, 0x05	; 5
    4270:	21 f0       	breq	.+8      	; 0x427a <MifareDetectionAppProcess+0xf8>
                ((CollisionByteCount == 5 || (CollisionByteCount == 4 && CollisionBitCount > 0)) && memcmp(UidCL, &DataPtr[2], 4) == 0 && (ISO14443A_CALC_BCC(UidCL) & mask) == (DataPtr[6] & mask))
    4272:	24 30       	cpi	r18, 0x04	; 4
    4274:	59 f5       	brne	.+86     	; 0x42cc <MifareDetectionAppProcess+0x14a>
    4276:	ff 20       	and	r15, r15
    4278:	e9 f0       	breq	.+58     	; 0x42b4 <MifareDetectionAppProcess+0x132>
    427a:	44 e0       	ldi	r20, 0x04	; 4
    427c:	50 e0       	ldi	r21, 0x00	; 0
    427e:	b8 01       	movw	r22, r16
    4280:	6e 5f       	subi	r22, 0xFE	; 254
    4282:	7f 4f       	sbci	r23, 0xFF	; 255
    4284:	ce 01       	movw	r24, r28
    4286:	01 96       	adiw	r24, 0x01	; 1
    4288:	2d 83       	std	Y+5, r18	; 0x05
    428a:	0e 94 77 2a 	call	0x54ee	; 0x54ee <memcmp>
    428e:	2d 81       	ldd	r18, Y+5	; 0x05
    4290:	89 2b       	or	r24, r25
    4292:	61 f4       	brne	.+24     	; 0x42ac <MifareDetectionAppProcess+0x12a>
    4294:	9a 81       	ldd	r25, Y+2	; 0x02
    4296:	89 81       	ldd	r24, Y+1	; 0x01
    4298:	89 27       	eor	r24, r25
    429a:	9b 81       	ldd	r25, Y+3	; 0x03
    429c:	89 27       	eor	r24, r25
    429e:	9c 81       	ldd	r25, Y+4	; 0x04
    42a0:	89 27       	eor	r24, r25
    42a2:	f8 01       	movw	r30, r16
    42a4:	96 81       	ldd	r25, Z+6	; 0x06
    42a6:	89 27       	eor	r24, r25
    42a8:	8c 21       	and	r24, r12
    42aa:	69 f1       	breq	.+90     	; 0x4306 <MifareDetectionAppProcess+0x184>
                ||
    42ac:	24 30       	cpi	r18, 0x04	; 4
    42ae:	71 f4       	brne	.+28     	; 0x42cc <MifareDetectionAppProcess+0x14a>
                (CollisionByteCount == 4 && CollisionBitCount == 0 && memcmp(UidCL, &DataPtr[2], 4) == 0)
    42b0:	f1 10       	cpse	r15, r1
    42b2:	39 c0       	rjmp	.+114    	; 0x4326 <MifareDetectionAppProcess+0x1a4>
    42b4:	44 e0       	ldi	r20, 0x04	; 4
    42b6:	50 e0       	ldi	r21, 0x00	; 0
    42b8:	b8 01       	movw	r22, r16
    42ba:	6e 5f       	subi	r22, 0xFE	; 254
    42bc:	7f 4f       	sbci	r23, 0xFF	; 255
    42be:	ce 01       	movw	r24, r28
    42c0:	01 96       	adiw	r24, 0x01	; 1
    42c2:	0e 94 77 2a 	call	0x54ee	; 0x54ee <memcmp>
    42c6:	89 2b       	or	r24, r25
    42c8:	f1 f0       	breq	.+60     	; 0x4306 <MifareDetectionAppProcess+0x184>
    42ca:	2d c0       	rjmp	.+90     	; 0x4326 <MifareDetectionAppProcess+0x1a4>
                ||
    42cc:	24 30       	cpi	r18, 0x04	; 4
    42ce:	58 f5       	brcc	.+86     	; 0x4326 <MifareDetectionAppProcess+0x1a4>
                (CollisionByteCount < 4 && memcmp(UidCL, &DataPtr[2], CollisionByteCount) == 0 && (UidCL[CollisionByteCount] & mask) == (DataPtr[CollisionByteCount + 2] & mask))
    42d0:	e2 2e       	mov	r14, r18
    42d2:	f1 2c       	mov	r15, r1
    42d4:	a7 01       	movw	r20, r14
    42d6:	b8 01       	movw	r22, r16
    42d8:	6e 5f       	subi	r22, 0xFE	; 254
    42da:	7f 4f       	sbci	r23, 0xFF	; 255
    42dc:	ce 01       	movw	r24, r28
    42de:	01 96       	adiw	r24, 0x01	; 1
    42e0:	0e 94 77 2a 	call	0x54ee	; 0x54ee <memcmp>
    42e4:	89 2b       	or	r24, r25
    42e6:	f9 f4       	brne	.+62     	; 0x4326 <MifareDetectionAppProcess+0x1a4>
    42e8:	d8 01       	movw	r26, r16
    42ea:	ae 0d       	add	r26, r14
    42ec:	bf 1d       	adc	r27, r15
    42ee:	e1 e0       	ldi	r30, 0x01	; 1
    42f0:	f0 e0       	ldi	r31, 0x00	; 0
    42f2:	ec 0f       	add	r30, r28
    42f4:	fd 1f       	adc	r31, r29
    42f6:	ee 0d       	add	r30, r14
    42f8:	ff 1d       	adc	r31, r15
    42fa:	12 96       	adiw	r26, 0x02	; 2
    42fc:	9c 91       	ld	r25, X
    42fe:	80 81       	ld	r24, Z
    4300:	89 27       	eor	r24, r25
    4302:	c8 22       	and	r12, r24
    4304:	81 f4       	brne	.+32     	; 0x4326 <MifareDetectionAppProcess+0x1a4>
        )
        {
            DataPtr[0] = UidCL[0];
    4306:	29 81       	ldd	r18, Y+1	; 0x01
    4308:	f8 01       	movw	r30, r16
    430a:	20 83       	st	Z, r18
            DataPtr[1] = UidCL[1];
    430c:	3a 81       	ldd	r19, Y+2	; 0x02
    430e:	31 83       	std	Z+1, r19	; 0x01
            DataPtr[2] = UidCL[2];
    4310:	9b 81       	ldd	r25, Y+3	; 0x03
    4312:	92 83       	std	Z+2, r25	; 0x02
            DataPtr[3] = UidCL[3];
    4314:	8c 81       	ldd	r24, Y+4	; 0x04
    4316:	83 83       	std	Z+3, r24	; 0x03
            DataPtr[4] = ISO14443A_CALC_BCC(DataPtr);
    4318:	23 27       	eor	r18, r19
    431a:	92 27       	eor	r25, r18
    431c:	89 27       	eor	r24, r25
    431e:	84 83       	std	Z+4, r24	; 0x04

            *BitCount = ISO14443A_CL_FRAME_SIZE;
    4320:	68 e2       	ldi	r22, 0x28	; 40
    4322:	70 e0       	ldi	r23, 0x00	; 0
    4324:	02 c0       	rjmp	.+4      	; 0x432a <MifareDetectionAppProcess+0x1a8>

        *BitCount = ISO14443A_ATQA_FRAME_SIZE;

        return true;
    } else {
        *BitCount = 0;
    4326:	60 e0       	ldi	r22, 0x00	; 0
    4328:	70 e0       	ldi	r23, 0x00	; 0
		}
	}

	if (State != STATE_AUTHED_IDLE) {
    432a:	80 91 39 21 	lds	r24, 0x2139	; 0x802139 <State>
    432e:	85 30       	cpi	r24, 0x05	; 5
    4330:	09 f4       	brne	.+2      	; 0x4334 <MifareDetectionAppProcess+0x1b2>
    4332:	8e c0       	rjmp	.+284    	; 0x4450 <MifareDetectionAppProcess+0x2ce>
		if (BitCount==32) {
    4334:	60 32       	cpi	r22, 0x20	; 32
    4336:	71 05       	cpc	r23, r1
    4338:	09 f0       	breq	.+2      	; 0x433c <MifareDetectionAppProcess+0x1ba>
    433a:	49 c0       	rjmp	.+146    	; 0x43ce <MifareDetectionAppProcess+0x24c>
			if ((Buffer[0] == CMD_AUTH_A) || (Buffer[0] == CMD_AUTH_B)) {
    433c:	f8 01       	movw	r30, r16
    433e:	80 81       	ld	r24, Z
    4340:	80 56       	subi	r24, 0x60	; 96
    4342:	82 30       	cpi	r24, 0x02	; 2
    4344:	08 f0       	brcs	.+2      	; 0x4348 <MifareDetectionAppProcess+0x1c6>
    4346:	84 c0       	rjmp	.+264    	; 0x4450 <MifareDetectionAppProcess+0x2ce>
				if (ISO14443ACheckCRCA(Buffer, CMD_AUTH_FRAME_SIZE)) {
    4348:	62 e0       	ldi	r22, 0x02	; 2
    434a:	70 e0       	ldi	r23, 0x00	; 0
    434c:	c8 01       	movw	r24, r16
    434e:	d9 dd       	rcall	.-1102   	; 0x3f02 <ISO14443ACheckCRCA>
    4350:	88 23       	and	r24, r24
    4352:	09 f4       	brne	.+2      	; 0x4356 <MifareDetectionAppProcess+0x1d4>
    4354:	7d c0       	rjmp	.+250    	; 0x4450 <MifareDetectionAppProcess+0x2ce>

					uint8_t CardNonce[4]={0x01, 0x20, 0x01, 0x45};
    4356:	ff 24       	eor	r15, r15
    4358:	f3 94       	inc	r15
    435a:	f9 82       	std	Y+1, r15	; 0x01
    435c:	80 e2       	ldi	r24, 0x20	; 32
    435e:	8a 83       	std	Y+2, r24	; 0x02
    4360:	fb 82       	std	Y+3, r15	; 0x03
    4362:	85 e4       	ldi	r24, 0x45	; 69
    4364:	8c 83       	std	Y+4, r24	; 0x04

					/* Generate a random nonce and read UID and key from memory */
					RandomGetBuffer(CardNonce, sizeof(CardNonce));
    4366:	64 e0       	ldi	r22, 0x04	; 4
    4368:	ce 01       	movw	r24, r28
    436a:	01 96       	adiw	r24, 0x01	; 1
    436c:	0e 94 6b 07 	call	0xed6	; 0xed6 <RandomGetBuffer>
					memcpy(data_svae, Buffer, 4);
    4370:	f8 01       	movw	r30, r16
    4372:	80 81       	ld	r24, Z
    4374:	91 81       	ldd	r25, Z+1	; 0x01
    4376:	a2 81       	ldd	r26, Z+2	; 0x02
    4378:	b3 81       	ldd	r27, Z+3	; 0x03
    437a:	80 93 23 21 	sts	0x2123, r24	; 0x802123 <data_svae>
    437e:	90 93 24 21 	sts	0x2124, r25	; 0x802124 <data_svae+0x1>
    4382:	a0 93 25 21 	sts	0x2125, r26	; 0x802125 <data_svae+0x2>
    4386:	b0 93 26 21 	sts	0x2126, r27	; 0x802126 <data_svae+0x3>
					memcpy(data_svae+4, CardNonce, 4);
    438a:	89 81       	ldd	r24, Y+1	; 0x01
    438c:	9a 81       	ldd	r25, Y+2	; 0x02
    438e:	ab 81       	ldd	r26, Y+3	; 0x03
    4390:	bc 81       	ldd	r27, Y+4	; 0x04
    4392:	80 93 27 21 	sts	0x2127, r24	; 0x802127 <data_svae+0x4>
    4396:	90 93 28 21 	sts	0x2128, r25	; 0x802128 <data_svae+0x5>
    439a:	a0 93 29 21 	sts	0x2129, r26	; 0x802129 <data_svae+0x6>
    439e:	b0 93 2a 21 	sts	0x212A, r27	; 0x80212a <data_svae+0x7>

					if (Buffer[0] == CMD_AUTH_B) 
    43a2:	80 81       	ld	r24, Z
    43a4:	81 36       	cpi	r24, 0x61	; 97
    43a6:	19 f4       	brne	.+6      	; 0x43ae <MifareDetectionAppProcess+0x22c>
						keyb_falg = 1;
    43a8:	f0 92 33 21 	sts	0x2133, r15	; 0x802133 <keyb_falg>
    43ac:	02 c0       	rjmp	.+4      	; 0x43b2 <MifareDetectionAppProcess+0x230>
					else
						keyb_falg = 0;
    43ae:	10 92 33 21 	sts	0x2133, r1	; 0x802133 <keyb_falg>

					State = STATE_AUTHING;
    43b2:	84 e0       	ldi	r24, 0x04	; 4
    43b4:	80 93 39 21 	sts	0x2139, r24	; 0x802139 <State>
    43b8:	d8 01       	movw	r26, r16
    43ba:	fe 01       	movw	r30, r28
    43bc:	31 96       	adiw	r30, 0x01	; 1
    43be:	8e 0f       	add	r24, r30

					for (uint8_t i=0; i<sizeof(CardNonce); i++)
						Buffer[i] = CardNonce[i];
    43c0:	91 91       	ld	r25, Z+
    43c2:	9d 93       	st	X+, r25
					else
						keyb_falg = 0;

					State = STATE_AUTHING;

					for (uint8_t i=0; i<sizeof(CardNonce); i++)
    43c4:	8e 13       	cpse	r24, r30
    43c6:	fc cf       	rjmp	.-8      	; 0x43c0 <MifareDetectionAppProcess+0x23e>
						Buffer[i] = CardNonce[i];

					return CMD_AUTH_RB_FRAME_SIZE * BITS_PER_BYTE;
    43c8:	80 e2       	ldi	r24, 0x20	; 32
    43ca:	90 e0       	ldi	r25, 0x00	; 0
    43cc:	43 c0       	rjmp	.+134    	; 0x4454 <MifareDetectionAppProcess+0x2d2>
				}
			}
		}
		////8
		if (BitCount==64 && State == STATE_AUTHING) {
    43ce:	60 34       	cpi	r22, 0x40	; 64
    43d0:	71 05       	cpc	r23, r1
    43d2:	09 f0       	breq	.+2      	; 0x43d6 <MifareDetectionAppProcess+0x254>
    43d4:	3d c0       	rjmp	.+122    	; 0x4450 <MifareDetectionAppProcess+0x2ce>
    43d6:	84 30       	cpi	r24, 0x04	; 4
    43d8:	d9 f5       	brne	.+118    	; 0x4450 <MifareDetectionAppProcess+0x2ce>
		//
			memcpy(data_svae+8, Buffer, 8);
    43da:	88 e0       	ldi	r24, 0x08	; 8
    43dc:	f8 01       	movw	r30, r16
    43de:	ab e2       	ldi	r26, 0x2B	; 43
    43e0:	b1 e2       	ldi	r27, 0x21	; 33
    43e2:	01 90       	ld	r0, Z+
    43e4:	0d 92       	st	X+, r0
    43e6:	8a 95       	dec	r24
    43e8:	e1 f7       	brne	.-8      	; 0x43e2 <MifareDetectionAppProcess+0x260>

			if (!keyb_falg) {
    43ea:	80 91 33 21 	lds	r24, 0x2133	; 0x802133 <keyb_falg>
    43ee:	81 11       	cpse	r24, r1
    43f0:	18 c0       	rjmp	.+48     	; 0x4422 <MifareDetectionAppProcess+0x2a0>
				MemoryWriteBlock(data_svae, (turn_falga+1) * MEM_BYTES_PER_BLOCK+4096, MEM_BYTES_PER_BLOCK);
    43f2:	60 91 35 21 	lds	r22, 0x2135	; 0x802135 <turn_falga>
    43f6:	70 e0       	ldi	r23, 0x00	; 0
    43f8:	6f 5f       	subi	r22, 0xFF	; 255
    43fa:	7e 4f       	sbci	r23, 0xFE	; 254
    43fc:	94 e0       	ldi	r25, 0x04	; 4
    43fe:	66 0f       	add	r22, r22
    4400:	77 1f       	adc	r23, r23
    4402:	9a 95       	dec	r25
    4404:	e1 f7       	brne	.-8      	; 0x43fe <MifareDetectionAppProcess+0x27c>
    4406:	40 e1       	ldi	r20, 0x10	; 16
    4408:	50 e0       	ldi	r21, 0x00	; 0
    440a:	83 e2       	ldi	r24, 0x23	; 35
    440c:	91 e2       	ldi	r25, 0x21	; 33
    440e:	0e 94 07 09 	call	0x120e	; 0x120e <MemoryWriteBlock>
				turn_falga++;
    4412:	80 91 35 21 	lds	r24, 0x2135	; 0x802135 <turn_falga>
    4416:	8f 5f       	subi	r24, 0xFF	; 255
				turn_falga = turn_falga % 6;
    4418:	66 e0       	ldi	r22, 0x06	; 6
    441a:	7f d7       	rcall	.+3838   	; 0x531a <__udivmodqi4>
    441c:	90 93 35 21 	sts	0x2135, r25	; 0x802135 <turn_falga>
    4420:	17 c0       	rjmp	.+46     	; 0x4450 <MifareDetectionAppProcess+0x2ce>
			} else {
				MemoryWriteBlock(data_svae, (turn_falgb) * MEM_BYTES_PER_BLOCK + 112+4096, MEM_BYTES_PER_BLOCK);
    4422:	60 91 34 21 	lds	r22, 0x2134	; 0x802134 <turn_falgb>
    4426:	70 e0       	ldi	r23, 0x00	; 0
    4428:	69 5f       	subi	r22, 0xF9	; 249
    442a:	7e 4f       	sbci	r23, 0xFE	; 254
    442c:	84 e0       	ldi	r24, 0x04	; 4
    442e:	66 0f       	add	r22, r22
    4430:	77 1f       	adc	r23, r23
    4432:	8a 95       	dec	r24
    4434:	e1 f7       	brne	.-8      	; 0x442e <MifareDetectionAppProcess+0x2ac>
    4436:	40 e1       	ldi	r20, 0x10	; 16
    4438:	50 e0       	ldi	r21, 0x00	; 0
    443a:	83 e2       	ldi	r24, 0x23	; 35
    443c:	91 e2       	ldi	r25, 0x21	; 33
    443e:	0e 94 07 09 	call	0x120e	; 0x120e <MemoryWriteBlock>
				turn_falgb++;
    4442:	80 91 34 21 	lds	r24, 0x2134	; 0x802134 <turn_falgb>
    4446:	8f 5f       	subi	r24, 0xFF	; 255
				turn_falgb = turn_falgb % 6;
    4448:	66 e0       	ldi	r22, 0x06	; 6
    444a:	67 d7       	rcall	.+3790   	; 0x531a <__udivmodqi4>
    444c:	90 93 34 21 	sts	0x2134, r25	; 0x802134 <turn_falgb>
				
		}
	}

	/* No response has been sent, when we reach here */
    return ISO14443A_APP_NO_RESPONSE;
    4450:	80 e0       	ldi	r24, 0x00	; 0
    4452:	90 e0       	ldi	r25, 0x00	; 0
 }
    4454:	25 96       	adiw	r28, 0x05	; 5
    4456:	cd bf       	out	0x3d, r28	; 61
    4458:	de bf       	out	0x3e, r29	; 62
    445a:	df 91       	pop	r29
    445c:	cf 91       	pop	r28
    445e:	1f 91       	pop	r17
    4460:	0f 91       	pop	r16
    4462:	ff 90       	pop	r15
    4464:	ef 90       	pop	r14
    4466:	df 90       	pop	r13
    4468:	cf 90       	pop	r12
    446a:	08 95       	ret

0000446c <MifareDetectionInit>:

 void MifareDetectionInit(void)  {
	 State = STATE_IDLE;
    446c:	81 e0       	ldi	r24, 0x01	; 1
    446e:	80 93 39 21 	sts	0x2139, r24	; 0x802139 <State>
	 CardATQAValue = MFCLASSIC_1K_ATQA_VALUE;
    4472:	84 e0       	ldi	r24, 0x04	; 4
    4474:	90 e0       	ldi	r25, 0x00	; 0
    4476:	80 93 37 21 	sts	0x2137, r24	; 0x802137 <CardATQAValue>
    447a:	90 93 38 21 	sts	0x2138, r25	; 0x802138 <CardATQAValue+0x1>
	 CardSAKValue = MFCLASSIC_1K_SAK_CL1_VALUE;
    447e:	88 e0       	ldi	r24, 0x08	; 8
    4480:	80 93 36 21 	sts	0x2136, r24	; 0x802136 <CardSAKValue>
    4484:	08 95       	ret

00004486 <MifareDetectionReset>:
 }

 void MifareDetectionReset(void)
 {
    4486:	08 95       	ret

00004488 <USB_Device_ProcessControlRequest>:
#if !defined(NO_DEVICE_REMOTE_WAKEUP)
bool    USB_Device_RemoteWakeupEnabled;
#endif

void USB_Device_ProcessControlRequest(void)
{
    4488:	ff 92       	push	r15
    448a:	0f 93       	push	r16
    448c:	1f 93       	push	r17
    448e:	cf 93       	push	r28
    4490:	df 93       	push	r29
    4492:	cd b7       	in	r28, 0x3d	; 61
    4494:	de b7       	in	r29, 0x3e	; 62
    4496:	ea 97       	sbiw	r28, 0x3a	; 58
    4498:	cd bf       	out	0x3d, r28	; 61
    449a:	de bf       	out	0x3e, r29	; 62
    449c:	0f e5       	ldi	r16, 0x5F	; 95
    449e:	13 e2       	ldi	r17, 0x23	; 35
    44a0:	88 e0       	ldi	r24, 0x08	; 8
    44a2:	f8 2e       	mov	r15, r24
    44a4:	f0 0e       	add	r15, r16
	USB_ControlRequest.wLength       = Endpoint_Read_16_LE();
	#else
	uint8_t* RequestHeader = (uint8_t*)&USB_ControlRequest;

	for (uint8_t RequestHeaderByte = 0; RequestHeaderByte < sizeof(USB_Request_Header_t); RequestHeaderByte++)
	  *(RequestHeader++) = Endpoint_Read_8();
    44a6:	8b d2       	rcall	.+1302   	; 0x49be <Endpoint_Read_8>
    44a8:	f8 01       	movw	r30, r16
    44aa:	81 93       	st	Z+, r24
    44ac:	8f 01       	movw	r16, r30
	USB_ControlRequest.wIndex        = Endpoint_Read_16_LE();
	USB_ControlRequest.wLength       = Endpoint_Read_16_LE();
	#else
	uint8_t* RequestHeader = (uint8_t*)&USB_ControlRequest;

	for (uint8_t RequestHeaderByte = 0; RequestHeaderByte < sizeof(USB_Request_Header_t); RequestHeaderByte++)
    44ae:	fe 12       	cpse	r15, r30
    44b0:	fa cf       	rjmp	.-12     	; 0x44a6 <USB_Device_ProcessControlRequest+0x1e>
	  *(RequestHeader++) = Endpoint_Read_8();
	#endif

	EVENT_USB_Device_ControlRequest();
    44b2:	0e 94 9d 0d 	call	0x1b3a	; 0x1b3a <EVENT_USB_Device_ControlRequest>

	if (Endpoint_IsSETUPReceived())
    44b6:	fe d2       	rcall	.+1532   	; 0x4ab4 <Endpoint_IsSETUPReceived>
    44b8:	88 23       	and	r24, r24
    44ba:	09 f4       	brne	.+2      	; 0x44be <USB_Device_ProcessControlRequest+0x36>
    44bc:	f7 c0       	rjmp	.+494    	; 0x46ac <USB_Device_ProcessControlRequest+0x224>
	{
		uint8_t bmRequestType = USB_ControlRequest.bmRequestType;
    44be:	80 91 5f 23 	lds	r24, 0x235F	; 0x80235f <USB_ControlRequest>

		switch (USB_ControlRequest.bRequest)
    44c2:	90 91 60 23 	lds	r25, 0x2360	; 0x802360 <USB_ControlRequest+0x1>
    44c6:	95 30       	cpi	r25, 0x05	; 5
    44c8:	09 f4       	brne	.+2      	; 0x44cc <USB_Device_ProcessControlRequest+0x44>
    44ca:	6f c0       	rjmp	.+222    	; 0x45aa <USB_Device_ProcessControlRequest+0x122>
    44cc:	30 f4       	brcc	.+12     	; 0x44da <USB_Device_ProcessControlRequest+0x52>
    44ce:	91 30       	cpi	r25, 0x01	; 1
    44d0:	69 f1       	breq	.+90     	; 0x452c <USB_Device_ProcessControlRequest+0xa4>
    44d2:	68 f0       	brcs	.+26     	; 0x44ee <USB_Device_ProcessControlRequest+0x66>
    44d4:	93 30       	cpi	r25, 0x03	; 3
    44d6:	51 f1       	breq	.+84     	; 0x452c <USB_Device_ProcessControlRequest+0xa4>
    44d8:	e9 c0       	rjmp	.+466    	; 0x46ac <USB_Device_ProcessControlRequest+0x224>
    44da:	98 30       	cpi	r25, 0x08	; 8
    44dc:	09 f4       	brne	.+2      	; 0x44e0 <USB_Device_ProcessControlRequest+0x58>
    44de:	c2 c0       	rjmp	.+388    	; 0x4664 <USB_Device_ProcessControlRequest+0x1dc>
    44e0:	99 30       	cpi	r25, 0x09	; 9
    44e2:	09 f4       	brne	.+2      	; 0x44e6 <USB_Device_ProcessControlRequest+0x5e>
    44e4:	c8 c0       	rjmp	.+400    	; 0x4676 <USB_Device_ProcessControlRequest+0x1ee>
    44e6:	96 30       	cpi	r25, 0x06	; 6
    44e8:	09 f0       	breq	.+2      	; 0x44ec <USB_Device_ProcessControlRequest+0x64>
    44ea:	e0 c0       	rjmp	.+448    	; 0x46ac <USB_Device_ProcessControlRequest+0x224>
    44ec:	72 c0       	rjmp	.+228    	; 0x45d2 <USB_Device_ProcessControlRequest+0x14a>
		{
			case REQ_GetStatus:
				if ((bmRequestType == (REQDIR_DEVICETOHOST | REQTYPE_STANDARD | REQREC_DEVICE)) ||
    44ee:	80 38       	cpi	r24, 0x80	; 128
    44f0:	91 f0       	breq	.+36     	; 0x4516 <USB_Device_ProcessControlRequest+0x8e>
    44f2:	82 38       	cpi	r24, 0x82	; 130
    44f4:	09 f0       	breq	.+2      	; 0x44f8 <USB_Device_ProcessControlRequest+0x70>
    44f6:	da c0       	rjmp	.+436    	; 0x46ac <USB_Device_ProcessControlRequest+0x224>
			  CurrentStatus |= FEATURE_REMOTE_WAKEUP_ENABLED;
			#endif
			break;
		case (REQDIR_DEVICETOHOST | REQTYPE_STANDARD | REQREC_ENDPOINT):
			#if !defined(CONTROL_ONLY_DEVICE)
			Endpoint_SelectEndpoint((uint8_t)USB_ControlRequest.wIndex & ENDPOINT_EPNUM_MASK);
    44f8:	80 91 63 23 	lds	r24, 0x2363	; 0x802363 <USB_ControlRequest+0x4>
    44fc:	8f 70       	andi	r24, 0x0F	; 15
    44fe:	7f d2       	rcall	.+1278   	; 0x49fe <Endpoint_SelectEndpoint>
			 *  \return Boolean \c true if the currently selected endpoint is stalled, \c false otherwise.
			 */
			static inline bool Endpoint_IsStalled(void) ATTR_WARN_UNUSED_RESULT ATTR_ALWAYS_INLINE;
			static inline bool Endpoint_IsStalled(void)
			{
				return ((USB_Endpoint_SelectedHandle->CTRL & USB_EP_STALL_bm) ? true : false);
    4500:	e0 91 69 23 	lds	r30, 0x2369	; 0x802369 <USB_Endpoint_SelectedHandle>
    4504:	f0 91 6a 23 	lds	r31, 0x236A	; 0x80236a <USB_Endpoint_SelectedHandle+0x1>
    4508:	11 81       	ldd	r17, Z+1	; 0x01
    450a:	12 fb       	bst	r17, 2
    450c:	11 27       	eor	r17, r17
    450e:	10 f9       	bld	r17, 0

			CurrentStatus = Endpoint_IsStalled();

			Endpoint_SelectEndpoint(ENDPOINT_CONTROLEP);
    4510:	80 e0       	ldi	r24, 0x00	; 0
    4512:	75 d2       	rcall	.+1258   	; 0x49fe <Endpoint_SelectEndpoint>
    4514:	06 c0       	rjmp	.+12     	; 0x4522 <USB_Device_ProcessControlRequest+0x9a>
	Endpoint_ClearOUT();
}

static void USB_Device_GetStatus(void)
{
	uint8_t CurrentStatus = 0;
    4516:	10 91 5b 23 	lds	r17, 0x235B	; 0x80235b <USB_Device_CurrentlySelfPowered>
			if (USB_Device_CurrentlySelfPowered)
			  CurrentStatus |= FEATURE_SELFPOWERED_ENABLED;
			#endif

			#if !defined(NO_DEVICE_REMOTE_WAKEUP)
			if (USB_Device_RemoteWakeupEnabled)
    451a:	80 91 5c 23 	lds	r24, 0x235C	; 0x80235c <USB_Device_RemoteWakeupEnabled>
    451e:	81 11       	cpse	r24, r1
			  CurrentStatus |= FEATURE_REMOTE_WAKEUP_ENABLED;
    4520:	12 60       	ori	r17, 0x02	; 2
			break;
		default:
			return;
	}

	Endpoint_ClearSETUP();
    4522:	e2 d2       	rcall	.+1476   	; 0x4ae8 <Endpoint_ClearSETUP>
			 *  \param[in] Data  Data to write to the currently selected endpoint's FIFO buffer.
			 */
			static inline void Endpoint_Write_16_LE(const uint16_t Data) ATTR_ALWAYS_INLINE;
			static inline void Endpoint_Write_16_LE(const uint16_t Data)
			{
				Endpoint_Write_8(Data & 0xFF);
    4524:	81 2f       	mov	r24, r17
    4526:	5b d2       	rcall	.+1206   	; 0x49de <Endpoint_Write_8>
				Endpoint_Write_8(Data >> 8);
    4528:	80 e0       	ldi	r24, 0x00	; 0
    452a:	a1 c0       	rjmp	.+322    	; 0x466e <USB_Device_ProcessControlRequest+0x1e6>
				}

				break;
			case REQ_ClearFeature:
			case REQ_SetFeature:
				if ((bmRequestType == (REQDIR_HOSTTODEVICE | REQTYPE_STANDARD | REQREC_DEVICE)) ||
    452c:	28 2f       	mov	r18, r24
    452e:	2d 7f       	andi	r18, 0xFD	; 253
    4530:	09 f0       	breq	.+2      	; 0x4534 <USB_Device_ProcessControlRequest+0xac>
    4532:	bc c0       	rjmp	.+376    	; 0x46ac <USB_Device_ProcessControlRequest+0x224>
	Endpoint_ClearStatusStage();
}

static void USB_Device_ClearSetFeature(void)
{
	switch (USB_ControlRequest.bmRequestType & CONTROL_REQTYPE_RECIPIENT)
    4534:	88 23       	and	r24, r24
    4536:	19 f0       	breq	.+6      	; 0x453e <USB_Device_ProcessControlRequest+0xb6>
    4538:	82 30       	cpi	r24, 0x02	; 2
    453a:	61 f0       	breq	.+24     	; 0x4554 <USB_Device_ProcessControlRequest+0xcc>
    453c:	b7 c0       	rjmp	.+366    	; 0x46ac <USB_Device_ProcessControlRequest+0x224>
	{
		#if !defined(NO_DEVICE_REMOTE_WAKEUP)
		case REQREC_DEVICE:
			if ((uint8_t)USB_ControlRequest.wValue == FEATURE_SEL_DeviceRemoteWakeup)
    453e:	80 91 61 23 	lds	r24, 0x2361	; 0x802361 <USB_ControlRequest+0x2>
    4542:	81 30       	cpi	r24, 0x01	; 1
    4544:	09 f0       	breq	.+2      	; 0x4548 <USB_Device_ProcessControlRequest+0xc0>
    4546:	b2 c0       	rjmp	.+356    	; 0x46ac <USB_Device_ProcessControlRequest+0x224>
			  USB_Device_RemoteWakeupEnabled = (USB_ControlRequest.bRequest == REQ_SetFeature);
    4548:	93 30       	cpi	r25, 0x03	; 3
    454a:	09 f0       	breq	.+2      	; 0x454e <USB_Device_ProcessControlRequest+0xc6>
    454c:	80 e0       	ldi	r24, 0x00	; 0
    454e:	80 93 5c 23 	sts	0x235C, r24	; 0x80235c <USB_Device_RemoteWakeupEnabled>
    4552:	27 c0       	rjmp	.+78     	; 0x45a2 <USB_Device_ProcessControlRequest+0x11a>

			break;
		#endif
		#if !defined(CONTROL_ONLY_DEVICE)
		case REQREC_ENDPOINT:
			if ((uint8_t)USB_ControlRequest.wValue == FEATURE_SEL_EndpointHalt)
    4554:	80 91 61 23 	lds	r24, 0x2361	; 0x802361 <USB_ControlRequest+0x2>
    4558:	81 11       	cpse	r24, r1
    455a:	23 c0       	rjmp	.+70     	; 0x45a2 <USB_Device_ProcessControlRequest+0x11a>
			{
				uint8_t EndpointIndex = ((uint8_t)USB_ControlRequest.wIndex & ENDPOINT_EPNUM_MASK);
    455c:	e0 91 63 23 	lds	r30, 0x2363	; 0x802363 <USB_ControlRequest+0x4>
    4560:	1e 2f       	mov	r17, r30
    4562:	1f 70       	andi	r17, 0x0F	; 15

				if (EndpointIndex == ENDPOINT_CONTROLEP)
    4564:	09 f4       	brne	.+2      	; 0x4568 <USB_Device_ProcessControlRequest+0xe0>
    4566:	a2 c0       	rjmp	.+324    	; 0x46ac <USB_Device_ProcessControlRequest+0x224>
				  return;

				Endpoint_SelectEndpoint(EndpointIndex);
    4568:	81 2f       	mov	r24, r17
    456a:	49 d2       	rcall	.+1170   	; 0x49fe <Endpoint_SelectEndpoint>

				if (Endpoint_IsEnabled())
				{
					if (USB_ControlRequest.bRequest == REQ_SetFeature)
    456c:	80 91 60 23 	lds	r24, 0x2360	; 0x802360 <USB_ControlRequest+0x1>
    4570:	83 30       	cpi	r24, 0x03	; 3
    4572:	11 f4       	brne	.+4      	; 0x4578 <USB_Device_ProcessControlRequest+0xf0>
					{
						Endpoint_StallTransaction();
    4574:	e5 d2       	rcall	.+1482   	; 0x4b40 <Endpoint_StallTransaction>
    4576:	15 c0       	rjmp	.+42     	; 0x45a2 <USB_Device_ProcessControlRequest+0x11a>
			 *  \ingroup Group_EndpointPacketManagement_XMEGA
			 */
			static inline void Endpoint_ClearStall(void) ATTR_ALWAYS_INLINE;
			static inline void Endpoint_ClearStall(void)
			{
				USB_Endpoint_SelectedHandle->CTRL &= ~USB_EP_STALL_bm;
    4578:	e0 91 69 23 	lds	r30, 0x2369	; 0x802369 <USB_Endpoint_SelectedHandle>
    457c:	f0 91 6a 23 	lds	r31, 0x236A	; 0x80236a <USB_Endpoint_SelectedHandle+0x1>
    4580:	81 81       	ldd	r24, Z+1	; 0x01
    4582:	8b 7f       	andi	r24, 0xFB	; 251
    4584:	81 83       	std	Z+1, r24	; 0x01
			static inline void Endpoint_ResetEndpoint(const uint8_t Address)
			{
				if (Address & ENDPOINT_DIR_IN)
				  USB_Endpoint_FIFOs[Address & ENDPOINT_EPNUM_MASK].IN.Position  = 0;
				else
				  USB_Endpoint_FIFOs[Address & ENDPOINT_EPNUM_MASK].OUT.Position = 0;
    4586:	24 e8       	ldi	r18, 0x84	; 132
    4588:	12 9f       	mul	r17, r18
    458a:	f0 01       	movw	r30, r0
    458c:	11 24       	eor	r1, r1
    458e:	e3 55       	subi	r30, 0x53	; 83
    4590:	fc 4d       	sbci	r31, 0xDC	; 220
    4592:	10 82       	st	Z, r1

			/** Resets the data toggle of the currently selected endpoint. */
			static inline void Endpoint_ResetDataToggle(void) ATTR_ALWAYS_INLINE;
			static inline void Endpoint_ResetDataToggle(void)
			{
				USB_Endpoint_SelectedHandle->STATUS &= ~USB_EP_TOGGLE_bm;
    4594:	e0 91 69 23 	lds	r30, 0x2369	; 0x802369 <USB_Endpoint_SelectedHandle>
    4598:	f0 91 6a 23 	lds	r31, 0x236A	; 0x80236a <USB_Endpoint_SelectedHandle+0x1>
    459c:	80 81       	ld	r24, Z
    459e:	8e 7f       	andi	r24, 0xFE	; 254
    45a0:	80 83       	st	Z, r24
		#endif
		default:
			return;
	}

	Endpoint_SelectEndpoint(ENDPOINT_CONTROLEP);
    45a2:	80 e0       	ldi	r24, 0x00	; 0
    45a4:	2c d2       	rcall	.+1112   	; 0x49fe <Endpoint_SelectEndpoint>

	Endpoint_ClearSETUP();
    45a6:	a0 d2       	rcall	.+1344   	; 0x4ae8 <Endpoint_ClearSETUP>
    45a8:	64 c0       	rjmp	.+200    	; 0x4672 <USB_Device_ProcessControlRequest+0x1ea>
					USB_Device_ClearSetFeature();
				}

				break;
			case REQ_SetAddress:
				if (bmRequestType == (REQDIR_HOSTTODEVICE | REQTYPE_STANDARD | REQREC_DEVICE))
    45aa:	81 11       	cpse	r24, r1
    45ac:	7f c0       	rjmp	.+254    	; 0x46ac <USB_Device_ProcessControlRequest+0x224>
	}
}

static void USB_Device_SetAddress(void)
{
	uint8_t DeviceAddress = (USB_ControlRequest.wValue & 0x7F);
    45ae:	10 91 61 23 	lds	r17, 0x2361	; 0x802361 <USB_ControlRequest+0x2>
    45b2:	1f 77       	andi	r17, 0x7F	; 127

	USB_Device_SetDeviceAddress(DeviceAddress);

	Endpoint_ClearSETUP();
    45b4:	99 d2       	rcall	.+1330   	; 0x4ae8 <Endpoint_ClearSETUP>

	Endpoint_ClearStatusStage();
    45b6:	9a d3       	rcall	.+1844   	; 0x4cec <Endpoint_ClearStatusStage>

	while (!(Endpoint_IsINReady()));
    45b8:	57 d2       	rcall	.+1198   	; 0x4a68 <Endpoint_IsINReady>
    45ba:	88 23       	and	r24, r24
    45bc:	e9 f3       	breq	.-6      	; 0x45b8 <USB_Device_ProcessControlRequest+0x130>
			}

			static inline void USB_Device_EnableDeviceAddress(const uint8_t Address) ATTR_ALWAYS_INLINE;
			static inline void USB_Device_EnableDeviceAddress(const uint8_t Address)
			{
				USB.ADDR = Address;
    45be:	10 93 c3 04 	sts	0x04C3, r17	; 0x8004c3 <__TEXT_REGION_LENGTH__+0x7004c3>

	USB_Device_EnableDeviceAddress(DeviceAddress);

	USB_DeviceState = (DeviceAddress) ? DEVICE_STATE_Addressed : DEVICE_STATE_Default;
    45c2:	11 11       	cpse	r17, r1
    45c4:	02 c0       	rjmp	.+4      	; 0x45ca <USB_Device_ProcessControlRequest+0x142>
    45c6:	82 e0       	ldi	r24, 0x02	; 2
    45c8:	01 c0       	rjmp	.+2      	; 0x45cc <USB_Device_ProcessControlRequest+0x144>
    45ca:	83 e0       	ldi	r24, 0x03	; 3
    45cc:	80 93 5e 23 	sts	0x235E, r24	; 0x80235e <USB_DeviceState>
    45d0:	6d c0       	rjmp	.+218    	; 0x46ac <USB_Device_ProcessControlRequest+0x224>
				if (bmRequestType == (REQDIR_HOSTTODEVICE | REQTYPE_STANDARD | REQREC_DEVICE))
				  USB_Device_SetAddress();

				break;
			case REQ_GetDescriptor:
				if ((bmRequestType == (REQDIR_DEVICETOHOST | REQTYPE_STANDARD | REQREC_DEVICE)) ||
    45d2:	80 58       	subi	r24, 0x80	; 128
    45d4:	82 30       	cpi	r24, 0x02	; 2
    45d6:	08 f0       	brcs	.+2      	; 0x45da <USB_Device_ProcessControlRequest+0x152>
    45d8:	69 c0       	rjmp	.+210    	; 0x46ac <USB_Device_ProcessControlRequest+0x224>
	    !(defined(USE_FLASH_DESCRIPTORS) || defined(USE_EEPROM_DESCRIPTORS) || defined(USE_RAM_DESCRIPTORS))
	uint8_t DescriptorAddressSpace;
	#endif

	#if !defined(NO_INTERNAL_SERIAL) && (USE_INTERNAL_SERIAL != NO_DESCRIPTOR)
	if (USB_ControlRequest.wValue == ((DTYPE_String << 8) | USE_INTERNAL_SERIAL))
    45da:	80 91 61 23 	lds	r24, 0x2361	; 0x802361 <USB_ControlRequest+0x2>
    45de:	90 91 62 23 	lds	r25, 0x2362	; 0x802362 <USB_ControlRequest+0x3>
    45e2:	8c 3d       	cpi	r24, 0xDC	; 220
    45e4:	e3 e0       	ldi	r30, 0x03	; 3
    45e6:	9e 07       	cpc	r25, r30
    45e8:	61 f5       	brne	.+88     	; 0x4642 <USB_Device_ProcessControlRequest+0x1ba>
	{
		USB_Descriptor_Header_t Header;
		uint16_t                UnicodeString[INTERNAL_SERIAL_LENGTH_BITS / 4];
	} SignatureDescriptor;

	SignatureDescriptor.Header.Type = DTYPE_String;
    45ea:	83 e0       	ldi	r24, 0x03	; 3
    45ec:	8a 83       	std	Y+2, r24	; 0x02
	SignatureDescriptor.Header.Size = USB_STRING_LEN(INTERNAL_SERIAL_LENGTH_BITS / 4);
    45ee:	8a e3       	ldi	r24, 0x3A	; 58
    45f0:	89 83       	std	Y+1, r24	; 0x01
				#if (ARCH == ARCH_AVR8)
				return SREG;
				#elif (ARCH == ARCH_UC3)
				return __builtin_mfsr(AVR32_SR);
				#elif (ARCH == ARCH_XMEGA)
				return SREG;
    45f2:	4f b7       	in	r20, 0x3f	; 63
				#if (ARCH == ARCH_AVR8)
				cli();
				#elif (ARCH == ARCH_UC3)
				__builtin_ssrf(AVR32_SR_GM_OFFSET);
				#elif (ARCH == ARCH_XMEGA)
				cli();
    45f4:	f8 94       	cli
				#endif

				GCC_MEMORY_BARRIER();
    45f6:	de 01       	movw	r26, r28
    45f8:	13 96       	adiw	r26, 0x03	; 3
				uint_reg_t CurrentGlobalInt = GetGlobalInterruptMask();
				GlobalInterruptDisable();

				uint8_t SigReadAddress = INTERNAL_SERIAL_START_ADDRESS;

				for (uint8_t SerialCharNum = 0; SerialCharNum < (INTERNAL_SERIAL_LENGTH_BITS / 4); SerialCharNum++)
    45fa:	20 e0       	ldi	r18, 0x00	; 0
			static inline void USB_Device_GetSerialString(uint16_t* const UnicodeString)
			{
				uint_reg_t CurrentGlobalInt = GetGlobalInterruptMask();
				GlobalInterruptDisable();

				uint8_t SigReadAddress = INTERNAL_SERIAL_START_ADDRESS;
    45fc:	38 e0       	ldi	r19, 0x08	; 8

				for (uint8_t SerialCharNum = 0; SerialCharNum < (INTERNAL_SERIAL_LENGTH_BITS / 4); SerialCharNum++)
				{
					uint8_t SerialByte;

					NVM.CMD    = NVM_CMD_READ_CALIB_ROW_gc;
    45fe:	52 e0       	ldi	r21, 0x02	; 2
    4600:	50 93 ca 01 	sts	0x01CA, r21	; 0x8001ca <__TEXT_REGION_LENGTH__+0x7001ca>
					SerialByte = pgm_read_byte(SigReadAddress);
    4604:	e3 2f       	mov	r30, r19
    4606:	f0 e0       	ldi	r31, 0x00	; 0
    4608:	e4 91       	lpm	r30, Z
					NVM.CMD    = 0;
    460a:	10 92 ca 01 	sts	0x01CA, r1	; 0x8001ca <__TEXT_REGION_LENGTH__+0x7001ca>

					if (SerialCharNum & 0x01)
    460e:	20 ff       	sbrs	r18, 0
    4610:	03 c0       	rjmp	.+6      	; 0x4618 <USB_Device_ProcessControlRequest+0x190>
					{
						SerialByte >>= 4;
    4612:	e2 95       	swap	r30
    4614:	ef 70       	andi	r30, 0x0F	; 15
						SigReadAddress++;
    4616:	3f 5f       	subi	r19, 0xFF	; 255
					}

					SerialByte &= 0x0F;
    4618:	ef 70       	andi	r30, 0x0F	; 15
    461a:	8e 2f       	mov	r24, r30
    461c:	90 e0       	ldi	r25, 0x00	; 0

					UnicodeString[SerialCharNum] = cpu_to_le16((SerialByte >= 10) ?
    461e:	ea 30       	cpi	r30, 0x0A	; 10
    4620:	10 f0       	brcs	.+4      	; 0x4626 <USB_Device_ProcessControlRequest+0x19e>
    4622:	c7 96       	adiw	r24, 0x37	; 55
    4624:	01 c0       	rjmp	.+2      	; 0x4628 <USB_Device_ProcessControlRequest+0x1a0>
    4626:	c0 96       	adiw	r24, 0x30	; 48
    4628:	8d 93       	st	X+, r24
    462a:	9d 93       	st	X+, r25
				uint_reg_t CurrentGlobalInt = GetGlobalInterruptMask();
				GlobalInterruptDisable();

				uint8_t SigReadAddress = INTERNAL_SERIAL_START_ADDRESS;

				for (uint8_t SerialCharNum = 0; SerialCharNum < (INTERNAL_SERIAL_LENGTH_BITS / 4); SerialCharNum++)
    462c:	2f 5f       	subi	r18, 0xFF	; 255
    462e:	2c 31       	cpi	r18, 0x1C	; 28
    4630:	39 f7       	brne	.-50     	; 0x4600 <USB_Device_ProcessControlRequest+0x178>
				if (GlobalIntState & AVR32_SR_GM)
				  __builtin_ssrf(AVR32_SR_GM_OFFSET);
				else
				  __builtin_csrf(AVR32_SR_GM_OFFSET);
				#elif (ARCH == ARCH_XMEGA)
				SREG = GlobalIntState;
    4632:	4f bf       	out	0x3f, r20	; 63

	USB_Device_GetSerialString(SignatureDescriptor.UnicodeString);

	Endpoint_ClearSETUP();
    4634:	59 d2       	rcall	.+1202   	; 0x4ae8 <Endpoint_ClearSETUP>

	Endpoint_Write_Control_Stream_LE(&SignatureDescriptor, sizeof(SignatureDescriptor));
    4636:	6a e3       	ldi	r22, 0x3A	; 58
    4638:	70 e0       	ldi	r23, 0x00	; 0
    463a:	ce 01       	movw	r24, r28
    463c:	01 96       	adiw	r24, 0x01	; 1
    463e:	a3 d0       	rcall	.+326    	; 0x4786 <Endpoint_Write_Control_Stream_LE>
    4640:	0f c0       	rjmp	.+30     	; 0x4660 <USB_Device_ProcessControlRequest+0x1d8>
		USB_Device_GetInternalSerialDescriptor();
		return;
	}
	#endif

	if ((DescriptorSize = CALLBACK_USB_GetDescriptor(USB_ControlRequest.wValue, USB_ControlRequest.wIndex,
    4642:	ae 01       	movw	r20, r28
    4644:	4f 5f       	subi	r20, 0xFF	; 255
    4646:	5f 4f       	sbci	r21, 0xFF	; 255
    4648:	60 91 63 23 	lds	r22, 0x2363	; 0x802363 <USB_ControlRequest+0x4>
    464c:	0e 94 5b 06 	call	0xcb6	; 0xcb6 <CALLBACK_USB_GetDescriptor>
    4650:	8c 01       	movw	r16, r24
    4652:	89 2b       	or	r24, r25
    4654:	59 f1       	breq	.+86     	; 0x46ac <USB_Device_ProcessControlRequest+0x224>
													 )) == NO_DESCRIPTOR)
	{
		return;
	}

	Endpoint_ClearSETUP();
    4656:	48 d2       	rcall	.+1168   	; 0x4ae8 <Endpoint_ClearSETUP>
	#if defined(USE_RAM_DESCRIPTORS) || !defined(ARCH_HAS_MULTI_ADDRESS_SPACE)
	Endpoint_Write_Control_Stream_LE(DescriptorPointer, DescriptorSize);
	#elif defined(USE_EEPROM_DESCRIPTORS)
	Endpoint_Write_Control_EStream_LE(DescriptorPointer, DescriptorSize);
	#elif defined(USE_FLASH_DESCRIPTORS)
	Endpoint_Write_Control_PStream_LE(DescriptorPointer, DescriptorSize);
    4658:	b8 01       	movw	r22, r16
    465a:	89 81       	ldd	r24, Y+1	; 0x01
    465c:	9a 81       	ldd	r25, Y+2	; 0x02
    465e:	0c d1       	rcall	.+536    	; 0x4878 <Endpoint_Write_Control_PStream_LE>
	  Endpoint_Write_Control_EStream_LE(DescriptorPointer, DescriptorSize);
	else
	  Endpoint_Write_Control_Stream_LE(DescriptorPointer, DescriptorSize);
	#endif

	Endpoint_ClearOUT();
    4660:	9f d1       	rcall	.+830    	; 0x49a0 <Endpoint_ClearOUT>
    4662:	24 c0       	rjmp	.+72     	; 0x46ac <USB_Device_ProcessControlRequest+0x224>
					USB_Device_GetDescriptor();
				}

				break;
			case REQ_GetConfiguration:
				if (bmRequestType == (REQDIR_DEVICETOHOST | REQTYPE_STANDARD | REQREC_DEVICE))
    4664:	80 38       	cpi	r24, 0x80	; 128
    4666:	11 f5       	brne	.+68     	; 0x46ac <USB_Device_ProcessControlRequest+0x224>
	EVENT_USB_Device_ConfigurationChanged();
}

static void USB_Device_GetConfiguration(void)
{
	Endpoint_ClearSETUP();
    4668:	3f d2       	rcall	.+1150   	; 0x4ae8 <Endpoint_ClearSETUP>

	Endpoint_Write_8(USB_Device_ConfigurationNumber);
    466a:	80 91 5a 23 	lds	r24, 0x235A	; 0x80235a <USB_Device_ConfigurationNumber>
    466e:	b7 d1       	rcall	.+878    	; 0x49de <Endpoint_Write_8>
	Endpoint_ClearIN();
    4670:	7e d1       	rcall	.+764    	; 0x496e <Endpoint_ClearIN>

	Endpoint_ClearStatusStage();
    4672:	3c d3       	rcall	.+1656   	; 0x4cec <Endpoint_ClearStatusStage>
    4674:	1b c0       	rjmp	.+54     	; 0x46ac <USB_Device_ProcessControlRequest+0x224>
				if (bmRequestType == (REQDIR_DEVICETOHOST | REQTYPE_STANDARD | REQREC_DEVICE))
				  USB_Device_GetConfiguration();

				break;
			case REQ_SetConfiguration:
				if (bmRequestType == (REQDIR_HOSTTODEVICE | REQTYPE_STANDARD | REQREC_DEVICE))
    4676:	81 11       	cpse	r24, r1
    4678:	19 c0       	rjmp	.+50     	; 0x46ac <USB_Device_ProcessControlRequest+0x224>
}

static void USB_Device_SetConfiguration(void)
{
	#if defined(FIXED_NUM_CONFIGURATIONS)
	if ((uint8_t)USB_ControlRequest.wValue > FIXED_NUM_CONFIGURATIONS)
    467a:	80 91 61 23 	lds	r24, 0x2361	; 0x802361 <USB_ControlRequest+0x2>
    467e:	82 30       	cpi	r24, 0x02	; 2
    4680:	a8 f4       	brcc	.+42     	; 0x46ac <USB_Device_ProcessControlRequest+0x224>
	if ((uint8_t)USB_ControlRequest.wValue > DevDescriptorPtr->NumberOfConfigurations)
	  return;
	#endif
	#endif

	Endpoint_ClearSETUP();
    4682:	32 d2       	rcall	.+1124   	; 0x4ae8 <Endpoint_ClearSETUP>

	USB_Device_ConfigurationNumber = (uint8_t)USB_ControlRequest.wValue;
    4684:	80 91 61 23 	lds	r24, 0x2361	; 0x802361 <USB_ControlRequest+0x2>
    4688:	80 93 5a 23 	sts	0x235A, r24	; 0x80235a <USB_Device_ConfigurationNumber>

	Endpoint_ClearStatusStage();
    468c:	2f d3       	rcall	.+1630   	; 0x4cec <Endpoint_ClearStatusStage>

	if (USB_Device_ConfigurationNumber)
    468e:	80 91 5a 23 	lds	r24, 0x235A	; 0x80235a <USB_Device_ConfigurationNumber>
    4692:	81 11       	cpse	r24, r1
    4694:	06 c0       	rjmp	.+12     	; 0x46a2 <USB_Device_ProcessControlRequest+0x21a>
			}

			static inline bool USB_Device_IsAddressSet(void) ATTR_ALWAYS_INLINE ATTR_WARN_UNUSED_RESULT;
			static inline bool USB_Device_IsAddressSet(void)
			{
				return ((USB.ADDR != 0) ? true : false);
    4696:	80 91 c3 04 	lds	r24, 0x04C3	; 0x8004c3 <__TEXT_REGION_LENGTH__+0x7004c3>
	  USB_DeviceState = DEVICE_STATE_Configured;
	else
	  USB_DeviceState = (USB_Device_IsAddressSet()) ? DEVICE_STATE_Configured : DEVICE_STATE_Powered;
    469a:	81 11       	cpse	r24, r1
    469c:	02 c0       	rjmp	.+4      	; 0x46a2 <USB_Device_ProcessControlRequest+0x21a>
    469e:	81 e0       	ldi	r24, 0x01	; 1
    46a0:	01 c0       	rjmp	.+2      	; 0x46a4 <USB_Device_ProcessControlRequest+0x21c>
    46a2:	84 e0       	ldi	r24, 0x04	; 4
    46a4:	80 93 5e 23 	sts	0x235E, r24	; 0x80235e <USB_DeviceState>

	EVENT_USB_Device_ConfigurationChanged();
    46a8:	0e 94 99 0d 	call	0x1b32	; 0x1b32 <EVENT_USB_Device_ConfigurationChanged>
			default:
				break;
		}
	}

	if (Endpoint_IsSETUPReceived())
    46ac:	03 d2       	rcall	.+1030   	; 0x4ab4 <Endpoint_IsSETUPReceived>
    46ae:	88 23       	and	r24, r24
    46b0:	11 f0       	breq	.+4      	; 0x46b6 <USB_Device_ProcessControlRequest+0x22e>
	{
		Endpoint_ClearSETUP();
    46b2:	1a d2       	rcall	.+1076   	; 0x4ae8 <Endpoint_ClearSETUP>
		Endpoint_StallTransaction();
    46b4:	45 d2       	rcall	.+1162   	; 0x4b40 <Endpoint_StallTransaction>
	}
}
    46b6:	ea 96       	adiw	r28, 0x3a	; 58
    46b8:	cd bf       	out	0x3d, r28	; 61
    46ba:	de bf       	out	0x3e, r29	; 62
    46bc:	df 91       	pop	r29
    46be:	cf 91       	pop	r28
    46c0:	1f 91       	pop	r17
    46c2:	0f 91       	pop	r16
    46c4:	ff 90       	pop	r15
    46c6:	08 95       	ret

000046c8 <USB_Event_Stub>:
#define  __INCLUDE_FROM_EVENTS_C
#define  __INCLUDE_FROM_USB_DRIVER
#include "Events.h"

void USB_Event_Stub(void)
{
    46c8:	08 95       	ret

000046ca <USB_USBTask>:
#if defined(USB_CAN_BE_DEVICE) && !defined(DEVICE_STATE_AS_GPIOR)
volatile uint8_t     USB_DeviceState;
#endif

void USB_USBTask(void)
{
    46ca:	cf 93       	push	r28
}

#if defined(USB_CAN_BE_DEVICE)
static void USB_DeviceTask(void)
{
	if (USB_DeviceState == DEVICE_STATE_Unattached)
    46cc:	80 91 5e 23 	lds	r24, 0x235E	; 0x80235e <USB_DeviceState>
    46d0:	88 23       	and	r24, r24
    46d2:	51 f0       	breq	.+20     	; 0x46e8 <USB_USBTask+0x1e>
			 *  \return Index of the currently selected endpoint.
			 */
			static inline uint8_t Endpoint_GetCurrentEndpoint(void) ATTR_WARN_UNUSED_RESULT ATTR_ALWAYS_INLINE;
			static inline uint8_t Endpoint_GetCurrentEndpoint(void)
			{
				return USB_Endpoint_SelectedEndpoint;
    46d4:	c0 91 6b 23 	lds	r28, 0x236B	; 0x80236b <USB_Endpoint_SelectedEndpoint>
	  return;

	uint8_t PrevEndpoint = Endpoint_GetCurrentEndpoint();

	Endpoint_SelectEndpoint(ENDPOINT_CONTROLEP);
    46d8:	80 e0       	ldi	r24, 0x00	; 0
    46da:	91 d1       	rcall	.+802    	; 0x49fe <Endpoint_SelectEndpoint>

	if (Endpoint_IsSETUPReceived())
    46dc:	eb d1       	rcall	.+982    	; 0x4ab4 <Endpoint_IsSETUPReceived>
    46de:	81 11       	cpse	r24, r1
	  USB_Device_ProcessControlRequest();
    46e0:	d3 de       	rcall	.-602    	; 0x4488 <USB_Device_ProcessControlRequest>

	Endpoint_SelectEndpoint(PrevEndpoint);
    46e2:	8c 2f       	mov	r24, r28
	#elif defined(USB_CAN_BE_HOST)
		USB_HostTask();
	#elif defined(USB_CAN_BE_DEVICE)
		USB_DeviceTask();
	#endif
}
    46e4:	cf 91       	pop	r28
	Endpoint_SelectEndpoint(ENDPOINT_CONTROLEP);

	if (Endpoint_IsSETUPReceived())
	  USB_Device_ProcessControlRequest();

	Endpoint_SelectEndpoint(PrevEndpoint);
    46e6:	8b c1       	rjmp	.+790    	; 0x49fe <Endpoint_SelectEndpoint>
	#elif defined(USB_CAN_BE_HOST)
		USB_HostTask();
	#elif defined(USB_CAN_BE_DEVICE)
		USB_DeviceTask();
	#endif
}
    46e8:	cf 91       	pop	r28
    46ea:	08 95       	ret

000046ec <Endpoint_Write_Stream_LE>:
		else if (USB_DeviceState_LCL == DEVICE_STATE_Suspended)
		  return ENDPOINT_RWCSTREAM_BusSuspended;
	}

	return ENDPOINT_RWCSTREAM_NoError;
}
    46ec:	cf 92       	push	r12
    46ee:	df 92       	push	r13
    46f0:	ef 92       	push	r14
    46f2:	ff 92       	push	r15
    46f4:	0f 93       	push	r16
    46f6:	1f 93       	push	r17
    46f8:	cf 93       	push	r28
    46fa:	df 93       	push	r29
    46fc:	ec 01       	movw	r28, r24
    46fe:	8b 01       	movw	r16, r22
    4700:	7a 01       	movw	r14, r20
    4702:	0a d3       	rcall	.+1556   	; 0x4d18 <Endpoint_WaitUntilReady>
    4704:	81 11       	cpse	r24, r1
    4706:	36 c0       	rjmp	.+108    	; 0x4774 <Endpoint_Write_Stream_LE+0x88>
    4708:	e1 14       	cp	r14, r1
    470a:	f1 04       	cpc	r15, r1
    470c:	39 f0       	breq	.+14     	; 0x471c <Endpoint_Write_Stream_LE+0x30>
    470e:	f7 01       	movw	r30, r14
    4710:	80 81       	ld	r24, Z
    4712:	91 81       	ldd	r25, Z+1	; 0x01
    4714:	08 1b       	sub	r16, r24
    4716:	19 0b       	sbc	r17, r25
    4718:	c8 0f       	add	r28, r24
    471a:	d9 1f       	adc	r29, r25
    471c:	c1 2c       	mov	r12, r1
    471e:	d1 2c       	mov	r13, r1
    4720:	01 15       	cp	r16, r1
    4722:	11 05       	cpc	r17, r1
    4724:	31 f1       	breq	.+76     	; 0x4772 <Endpoint_Write_Stream_LE+0x86>
    4726:	80 91 67 23 	lds	r24, 0x2367	; 0x802367 <USB_Endpoint_SelectedFIFO>
    472a:	90 91 68 23 	lds	r25, 0x2368	; 0x802368 <USB_Endpoint_SelectedFIFO+0x1>
    472e:	fc 01       	movw	r30, r24
    4730:	ef 5b       	subi	r30, 0xBF	; 191
    4732:	ff 4f       	sbci	r31, 0xFF	; 255
    4734:	20 81       	ld	r18, Z
    4736:	31 97       	sbiw	r30, 0x01	; 1
    4738:	80 81       	ld	r24, Z
    473a:	28 17       	cp	r18, r24
    473c:	90 f0       	brcs	.+36     	; 0x4762 <Endpoint_Write_Stream_LE+0x76>
    473e:	17 d1       	rcall	.+558    	; 0x496e <Endpoint_ClearIN>
    4740:	c4 df       	rcall	.-120    	; 0x46ca <USB_USBTask>
    4742:	e1 14       	cp	r14, r1
    4744:	f1 04       	cpc	r15, r1
    4746:	49 f0       	breq	.+18     	; 0x475a <Endpoint_Write_Stream_LE+0x6e>
    4748:	f7 01       	movw	r30, r14
    474a:	80 81       	ld	r24, Z
    474c:	91 81       	ldd	r25, Z+1	; 0x01
    474e:	c8 0e       	add	r12, r24
    4750:	d9 1e       	adc	r13, r25
    4752:	c0 82       	st	Z, r12
    4754:	d1 82       	std	Z+1, r13	; 0x01
    4756:	85 e0       	ldi	r24, 0x05	; 5
    4758:	0d c0       	rjmp	.+26     	; 0x4774 <Endpoint_Write_Stream_LE+0x88>
    475a:	de d2       	rcall	.+1468   	; 0x4d18 <Endpoint_WaitUntilReady>
    475c:	88 23       	and	r24, r24
    475e:	01 f3       	breq	.-64     	; 0x4720 <Endpoint_Write_Stream_LE+0x34>
    4760:	09 c0       	rjmp	.+18     	; 0x4774 <Endpoint_Write_Stream_LE+0x88>
    4762:	89 91       	ld	r24, Y+
    4764:	3c d1       	rcall	.+632    	; 0x49de <Endpoint_Write_8>
    4766:	01 50       	subi	r16, 0x01	; 1
    4768:	11 09       	sbc	r17, r1
    476a:	ff ef       	ldi	r31, 0xFF	; 255
    476c:	cf 1a       	sub	r12, r31
    476e:	df 0a       	sbc	r13, r31
    4770:	d7 cf       	rjmp	.-82     	; 0x4720 <Endpoint_Write_Stream_LE+0x34>
    4772:	80 e0       	ldi	r24, 0x00	; 0
    4774:	df 91       	pop	r29
    4776:	cf 91       	pop	r28
    4778:	1f 91       	pop	r17
    477a:	0f 91       	pop	r16
    477c:	ff 90       	pop	r15
    477e:	ef 90       	pop	r14
    4780:	df 90       	pop	r13
    4782:	cf 90       	pop	r12
    4784:	08 95       	ret

00004786 <Endpoint_Write_Control_Stream_LE>:
    4786:	df 92       	push	r13
    4788:	ef 92       	push	r14
    478a:	ff 92       	push	r15
    478c:	0f 93       	push	r16
    478e:	1f 93       	push	r17
    4790:	cf 93       	push	r28
    4792:	df 93       	push	r29
    4794:	d8 2f       	mov	r29, r24
    4796:	c9 2f       	mov	r28, r25
    4798:	8b 01       	movw	r16, r22
    479a:	80 91 6b 23 	lds	r24, 0x236B	; 0x80236b <USB_Endpoint_SelectedEndpoint>
    479e:	80 68       	ori	r24, 0x80	; 128
    47a0:	2e d1       	rcall	.+604    	; 0x49fe <Endpoint_SelectEndpoint>
    47a2:	20 91 65 23 	lds	r18, 0x2365	; 0x802365 <USB_ControlRequest+0x6>
    47a6:	30 91 66 23 	lds	r19, 0x2366	; 0x802366 <USB_ControlRequest+0x7>
    47aa:	20 17       	cp	r18, r16
    47ac:	31 07       	cpc	r19, r17
    47ae:	28 f0       	brcs	.+10     	; 0x47ba <Endpoint_Write_Control_Stream_LE+0x34>
    47b0:	01 15       	cp	r16, r1
    47b2:	11 05       	cpc	r17, r1
    47b4:	19 f4       	brne	.+6      	; 0x47bc <Endpoint_Write_Control_Stream_LE+0x36>
    47b6:	db d0       	rcall	.+438    	; 0x496e <Endpoint_ClearIN>
    47b8:	01 c0       	rjmp	.+2      	; 0x47bc <Endpoint_Write_Control_Stream_LE+0x36>
    47ba:	89 01       	movw	r16, r18
    47bc:	ed 2e       	mov	r14, r29
    47be:	fc 2e       	mov	r15, r28
    47c0:	d1 2c       	mov	r13, r1
    47c2:	01 15       	cp	r16, r1
    47c4:	11 05       	cpc	r17, r1
    47c6:	09 f4       	brne	.+2      	; 0x47ca <Endpoint_Write_Control_Stream_LE+0x44>
    47c8:	3e c0       	rjmp	.+124    	; 0x4846 <Endpoint_Write_Control_Stream_LE+0xc0>
    47ca:	80 91 5e 23 	lds	r24, 0x235E	; 0x80235e <USB_DeviceState>
    47ce:	81 11       	cpse	r24, r1
    47d0:	02 c0       	rjmp	.+4      	; 0x47d6 <Endpoint_Write_Control_Stream_LE+0x50>
    47d2:	82 e0       	ldi	r24, 0x02	; 2
    47d4:	49 c0       	rjmp	.+146    	; 0x4868 <Endpoint_Write_Control_Stream_LE+0xe2>
    47d6:	85 30       	cpi	r24, 0x05	; 5
    47d8:	11 f4       	brne	.+4      	; 0x47de <Endpoint_Write_Control_Stream_LE+0x58>
    47da:	83 e0       	ldi	r24, 0x03	; 3
    47dc:	45 c0       	rjmp	.+138    	; 0x4868 <Endpoint_Write_Control_Stream_LE+0xe2>
    47de:	6a d1       	rcall	.+724    	; 0x4ab4 <Endpoint_IsSETUPReceived>
    47e0:	81 11       	cpse	r24, r1
    47e2:	41 c0       	rjmp	.+130    	; 0x4866 <Endpoint_Write_Control_Stream_LE+0xe0>
    47e4:	4d d1       	rcall	.+666    	; 0x4a80 <Endpoint_IsOUTReceived>
    47e6:	81 11       	cpse	r24, r1
    47e8:	39 c0       	rjmp	.+114    	; 0x485c <Endpoint_Write_Control_Stream_LE+0xd6>
    47ea:	3e d1       	rcall	.+636    	; 0x4a68 <Endpoint_IsINReady>
    47ec:	88 23       	and	r24, r24
    47ee:	49 f3       	breq	.-46     	; 0x47c2 <Endpoint_Write_Control_Stream_LE+0x3c>
    47f0:	20 91 6b 23 	lds	r18, 0x236B	; 0x80236b <USB_Endpoint_SelectedEndpoint>
    47f4:	80 91 67 23 	lds	r24, 0x2367	; 0x802367 <USB_Endpoint_SelectedFIFO>
    47f8:	90 91 68 23 	lds	r25, 0x2368	; 0x802368 <USB_Endpoint_SelectedFIFO+0x1>
    47fc:	fc 01       	movw	r30, r24
    47fe:	27 ff       	sbrs	r18, 7
    4800:	05 c0       	rjmp	.+10     	; 0x480c <Endpoint_Write_Control_Stream_LE+0x86>
    4802:	ef 5b       	subi	r30, 0xBF	; 191
    4804:	ff 4f       	sbci	r31, 0xFF	; 255
    4806:	c0 81       	ld	r28, Z
    4808:	d0 e0       	ldi	r29, 0x00	; 0
    480a:	13 c0       	rjmp	.+38     	; 0x4832 <Endpoint_Write_Control_Stream_LE+0xac>
    480c:	e0 5c       	subi	r30, 0xC0	; 192
    480e:	ff 4f       	sbci	r31, 0xFF	; 255
    4810:	c0 81       	ld	r28, Z
    4812:	31 96       	adiw	r30, 0x01	; 1
    4814:	80 81       	ld	r24, Z
    4816:	d0 e0       	ldi	r29, 0x00	; 0
    4818:	c8 1b       	sub	r28, r24
    481a:	d1 09       	sbc	r29, r1
    481c:	0a c0       	rjmp	.+20     	; 0x4832 <Endpoint_Write_Control_Stream_LE+0xac>
    481e:	c8 30       	cpi	r28, 0x08	; 8
    4820:	d1 05       	cpc	r29, r1
    4822:	50 f4       	brcc	.+20     	; 0x4838 <Endpoint_Write_Control_Stream_LE+0xb2>
    4824:	f7 01       	movw	r30, r14
    4826:	81 91       	ld	r24, Z+
    4828:	7f 01       	movw	r14, r30
    482a:	d9 d0       	rcall	.+434    	; 0x49de <Endpoint_Write_8>
    482c:	01 50       	subi	r16, 0x01	; 1
    482e:	11 09       	sbc	r17, r1
    4830:	21 96       	adiw	r28, 0x01	; 1
    4832:	01 15       	cp	r16, r1
    4834:	11 05       	cpc	r17, r1
    4836:	99 f7       	brne	.-26     	; 0x481e <Endpoint_Write_Control_Stream_LE+0x98>
    4838:	dd 24       	eor	r13, r13
    483a:	d3 94       	inc	r13
    483c:	28 97       	sbiw	r28, 0x08	; 8
    483e:	09 f0       	breq	.+2      	; 0x4842 <Endpoint_Write_Control_Stream_LE+0xbc>
    4840:	d1 2c       	mov	r13, r1
    4842:	95 d0       	rcall	.+298    	; 0x496e <Endpoint_ClearIN>
    4844:	be cf       	rjmp	.-132    	; 0x47c2 <Endpoint_Write_Control_Stream_LE+0x3c>
    4846:	d1 10       	cpse	r13, r1
    4848:	c0 cf       	rjmp	.-128    	; 0x47ca <Endpoint_Write_Control_Stream_LE+0x44>
    484a:	08 c0       	rjmp	.+16     	; 0x485c <Endpoint_Write_Control_Stream_LE+0xd6>
    484c:	80 91 5e 23 	lds	r24, 0x235E	; 0x80235e <USB_DeviceState>
    4850:	88 23       	and	r24, r24
    4852:	09 f4       	brne	.+2      	; 0x4856 <Endpoint_Write_Control_Stream_LE+0xd0>
    4854:	be cf       	rjmp	.-132    	; 0x47d2 <Endpoint_Write_Control_Stream_LE+0x4c>
    4856:	85 30       	cpi	r24, 0x05	; 5
    4858:	09 f4       	brne	.+2      	; 0x485c <Endpoint_Write_Control_Stream_LE+0xd6>
    485a:	bf cf       	rjmp	.-130    	; 0x47da <Endpoint_Write_Control_Stream_LE+0x54>
    485c:	11 d1       	rcall	.+546    	; 0x4a80 <Endpoint_IsOUTReceived>
    485e:	88 23       	and	r24, r24
    4860:	a9 f3       	breq	.-22     	; 0x484c <Endpoint_Write_Control_Stream_LE+0xc6>
    4862:	80 e0       	ldi	r24, 0x00	; 0
    4864:	01 c0       	rjmp	.+2      	; 0x4868 <Endpoint_Write_Control_Stream_LE+0xe2>
    4866:	81 e0       	ldi	r24, 0x01	; 1
    4868:	df 91       	pop	r29
    486a:	cf 91       	pop	r28
    486c:	1f 91       	pop	r17
    486e:	0f 91       	pop	r16
    4870:	ff 90       	pop	r15
    4872:	ef 90       	pop	r14
    4874:	df 90       	pop	r13
    4876:	08 95       	ret

00004878 <Endpoint_Write_Control_PStream_LE>:

#if defined(TEMPLATE_FUNC_NAME)

uint8_t TEMPLATE_FUNC_NAME (const void* const Buffer,
                            uint16_t Length)
{
    4878:	df 92       	push	r13
    487a:	ef 92       	push	r14
    487c:	ff 92       	push	r15
    487e:	0f 93       	push	r16
    4880:	1f 93       	push	r17
    4882:	cf 93       	push	r28
    4884:	df 93       	push	r29
    4886:	d8 2f       	mov	r29, r24
    4888:	c9 2f       	mov	r28, r25
    488a:	8b 01       	movw	r16, r22
	uint8_t* DataStream     = ((uint8_t*)Buffer + TEMPLATE_BUFFER_OFFSET(Length));
	bool     LastPacketFull = false;

	Endpoint_SelectEndpoint(USB_Endpoint_SelectedEndpoint | ENDPOINT_DIR_IN);
    488c:	80 91 6b 23 	lds	r24, 0x236B	; 0x80236b <USB_Endpoint_SelectedEndpoint>
    4890:	80 68       	ori	r24, 0x80	; 128
    4892:	b5 d0       	rcall	.+362    	; 0x49fe <Endpoint_SelectEndpoint>

	if (Length > USB_ControlRequest.wLength)
    4894:	20 91 65 23 	lds	r18, 0x2365	; 0x802365 <USB_ControlRequest+0x6>
    4898:	30 91 66 23 	lds	r19, 0x2366	; 0x802366 <USB_ControlRequest+0x7>
    489c:	20 17       	cp	r18, r16
    489e:	31 07       	cpc	r19, r17
    48a0:	28 f0       	brcs	.+10     	; 0x48ac <Endpoint_Write_Control_PStream_LE+0x34>
	  Length = USB_ControlRequest.wLength;
	else if (!(Length))
    48a2:	01 15       	cp	r16, r1
    48a4:	11 05       	cpc	r17, r1
    48a6:	19 f4       	brne	.+6      	; 0x48ae <Endpoint_Write_Control_PStream_LE+0x36>
	  Endpoint_ClearIN();
    48a8:	62 d0       	rcall	.+196    	; 0x496e <Endpoint_ClearIN>
    48aa:	01 c0       	rjmp	.+2      	; 0x48ae <Endpoint_Write_Control_PStream_LE+0x36>
    48ac:	89 01       	movw	r16, r18
    48ae:	ed 2e       	mov	r14, r29
    48b0:	fc 2e       	mov	r15, r28
    48b2:	d1 2c       	mov	r13, r1

	while (Length || LastPacketFull)
    48b4:	01 15       	cp	r16, r1
    48b6:	11 05       	cpc	r17, r1
    48b8:	09 f4       	brne	.+2      	; 0x48bc <Endpoint_Write_Control_PStream_LE+0x44>
    48ba:	40 c0       	rjmp	.+128    	; 0x493c <Endpoint_Write_Control_PStream_LE+0xc4>
	{
		uint8_t USB_DeviceState_LCL = USB_DeviceState;
    48bc:	80 91 5e 23 	lds	r24, 0x235E	; 0x80235e <USB_DeviceState>

		if (USB_DeviceState_LCL == DEVICE_STATE_Unattached)
    48c0:	81 11       	cpse	r24, r1
    48c2:	02 c0       	rjmp	.+4      	; 0x48c8 <Endpoint_Write_Control_PStream_LE+0x50>
		  return ENDPOINT_RWCSTREAM_DeviceDisconnected;
    48c4:	82 e0       	ldi	r24, 0x02	; 2
    48c6:	4b c0       	rjmp	.+150    	; 0x495e <Endpoint_Write_Control_PStream_LE+0xe6>
		else if (USB_DeviceState_LCL == DEVICE_STATE_Suspended)
    48c8:	85 30       	cpi	r24, 0x05	; 5
    48ca:	11 f4       	brne	.+4      	; 0x48d0 <Endpoint_Write_Control_PStream_LE+0x58>
		  return ENDPOINT_RWCSTREAM_BusSuspended;
    48cc:	83 e0       	ldi	r24, 0x03	; 3
    48ce:	47 c0       	rjmp	.+142    	; 0x495e <Endpoint_Write_Control_PStream_LE+0xe6>
		else if (Endpoint_IsSETUPReceived())
    48d0:	f1 d0       	rcall	.+482    	; 0x4ab4 <Endpoint_IsSETUPReceived>
    48d2:	81 11       	cpse	r24, r1
    48d4:	43 c0       	rjmp	.+134    	; 0x495c <Endpoint_Write_Control_PStream_LE+0xe4>
		  return ENDPOINT_RWCSTREAM_HostAborted;
		else if (Endpoint_IsOUTReceived())
    48d6:	d4 d0       	rcall	.+424    	; 0x4a80 <Endpoint_IsOUTReceived>
    48d8:	81 11       	cpse	r24, r1
    48da:	3b c0       	rjmp	.+118    	; 0x4952 <Endpoint_Write_Control_PStream_LE+0xda>
		  break;

		if (Endpoint_IsINReady())
    48dc:	c5 d0       	rcall	.+394    	; 0x4a68 <Endpoint_IsINReady>
    48de:	88 23       	and	r24, r24
    48e0:	49 f3       	breq	.-46     	; 0x48b4 <Endpoint_Write_Control_PStream_LE+0x3c>
			 *  \return Total number of bytes in the currently selected Endpoint's FIFO buffer.
			 */
			static inline uint16_t Endpoint_BytesInEndpoint(void) ATTR_WARN_UNUSED_RESULT ATTR_ALWAYS_INLINE;
			static inline uint16_t Endpoint_BytesInEndpoint(void)
			{
				if (USB_Endpoint_SelectedEndpoint & ENDPOINT_DIR_IN)
    48e2:	20 91 6b 23 	lds	r18, 0x236B	; 0x80236b <USB_Endpoint_SelectedEndpoint>
    48e6:	80 91 67 23 	lds	r24, 0x2367	; 0x802367 <USB_Endpoint_SelectedFIFO>
    48ea:	90 91 68 23 	lds	r25, 0x2368	; 0x802368 <USB_Endpoint_SelectedFIFO+0x1>
				  return USB_Endpoint_SelectedFIFO->Position;
    48ee:	fc 01       	movw	r30, r24
			 *  \return Total number of bytes in the currently selected Endpoint's FIFO buffer.
			 */
			static inline uint16_t Endpoint_BytesInEndpoint(void) ATTR_WARN_UNUSED_RESULT ATTR_ALWAYS_INLINE;
			static inline uint16_t Endpoint_BytesInEndpoint(void)
			{
				if (USB_Endpoint_SelectedEndpoint & ENDPOINT_DIR_IN)
    48f0:	27 ff       	sbrs	r18, 7
    48f2:	05 c0       	rjmp	.+10     	; 0x48fe <Endpoint_Write_Control_PStream_LE+0x86>
				  return USB_Endpoint_SelectedFIFO->Position;
    48f4:	ef 5b       	subi	r30, 0xBF	; 191
    48f6:	ff 4f       	sbci	r31, 0xFF	; 255
    48f8:	c0 81       	ld	r28, Z
    48fa:	d0 e0       	ldi	r29, 0x00	; 0
    48fc:	15 c0       	rjmp	.+42     	; 0x4928 <Endpoint_Write_Control_PStream_LE+0xb0>
				else
				  return (USB_Endpoint_SelectedFIFO->Length - USB_Endpoint_SelectedFIFO->Position);
    48fe:	e0 5c       	subi	r30, 0xC0	; 192
    4900:	ff 4f       	sbci	r31, 0xFF	; 255
    4902:	c0 81       	ld	r28, Z
    4904:	31 96       	adiw	r30, 0x01	; 1
    4906:	80 81       	ld	r24, Z
    4908:	d0 e0       	ldi	r29, 0x00	; 0
    490a:	c8 1b       	sub	r28, r24
    490c:	d1 09       	sbc	r29, r1
    490e:	0c c0       	rjmp	.+24     	; 0x4928 <Endpoint_Write_Control_PStream_LE+0xb0>
		{
			uint16_t BytesInEndpoint = Endpoint_BytesInEndpoint();

			while (Length && (BytesInEndpoint < USB_Device_ControlEndpointSize))
    4910:	c8 30       	cpi	r28, 0x08	; 8
    4912:	d1 05       	cpc	r29, r1
    4914:	60 f4       	brcc	.+24     	; 0x492e <Endpoint_Write_Control_PStream_LE+0xb6>
			{
				TEMPLATE_TRANSFER_BYTE(DataStream);
    4916:	f7 01       	movw	r30, r14
    4918:	84 91       	lpm	r24, Z
    491a:	61 d0       	rcall	.+194    	; 0x49de <Endpoint_Write_8>
				TEMPLATE_BUFFER_MOVE(DataStream, 1);
    491c:	ff ef       	ldi	r31, 0xFF	; 255
    491e:	ef 1a       	sub	r14, r31
    4920:	ff 0a       	sbc	r15, r31
				Length--;
    4922:	01 50       	subi	r16, 0x01	; 1
    4924:	11 09       	sbc	r17, r1
				BytesInEndpoint++;
    4926:	21 96       	adiw	r28, 0x01	; 1

		if (Endpoint_IsINReady())
		{
			uint16_t BytesInEndpoint = Endpoint_BytesInEndpoint();

			while (Length && (BytesInEndpoint < USB_Device_ControlEndpointSize))
    4928:	01 15       	cp	r16, r1
    492a:	11 05       	cpc	r17, r1
    492c:	89 f7       	brne	.-30     	; 0x4910 <Endpoint_Write_Control_PStream_LE+0x98>
				TEMPLATE_BUFFER_MOVE(DataStream, 1);
				Length--;
				BytesInEndpoint++;
			}

			LastPacketFull = (BytesInEndpoint == USB_Device_ControlEndpointSize);
    492e:	dd 24       	eor	r13, r13
    4930:	d3 94       	inc	r13
    4932:	28 97       	sbiw	r28, 0x08	; 8
    4934:	09 f0       	breq	.+2      	; 0x4938 <Endpoint_Write_Control_PStream_LE+0xc0>
    4936:	d1 2c       	mov	r13, r1
			Endpoint_ClearIN();
    4938:	1a d0       	rcall	.+52     	; 0x496e <Endpoint_ClearIN>
    493a:	bc cf       	rjmp	.-136    	; 0x48b4 <Endpoint_Write_Control_PStream_LE+0x3c>
	if (Length > USB_ControlRequest.wLength)
	  Length = USB_ControlRequest.wLength;
	else if (!(Length))
	  Endpoint_ClearIN();

	while (Length || LastPacketFull)
    493c:	d1 10       	cpse	r13, r1
    493e:	be cf       	rjmp	.-132    	; 0x48bc <Endpoint_Write_Control_PStream_LE+0x44>
    4940:	08 c0       	rjmp	.+16     	; 0x4952 <Endpoint_Write_Control_PStream_LE+0xda>
		}
	}

	while (!(Endpoint_IsOUTReceived()))
	{
		uint8_t USB_DeviceState_LCL = USB_DeviceState;
    4942:	80 91 5e 23 	lds	r24, 0x235E	; 0x80235e <USB_DeviceState>

		if (USB_DeviceState_LCL == DEVICE_STATE_Unattached)
    4946:	88 23       	and	r24, r24
    4948:	09 f4       	brne	.+2      	; 0x494c <Endpoint_Write_Control_PStream_LE+0xd4>
    494a:	bc cf       	rjmp	.-136    	; 0x48c4 <Endpoint_Write_Control_PStream_LE+0x4c>
		  return ENDPOINT_RWCSTREAM_DeviceDisconnected;
		else if (USB_DeviceState_LCL == DEVICE_STATE_Suspended)
    494c:	85 30       	cpi	r24, 0x05	; 5
    494e:	09 f4       	brne	.+2      	; 0x4952 <Endpoint_Write_Control_PStream_LE+0xda>
    4950:	bd cf       	rjmp	.-134    	; 0x48cc <Endpoint_Write_Control_PStream_LE+0x54>
			LastPacketFull = (BytesInEndpoint == USB_Device_ControlEndpointSize);
			Endpoint_ClearIN();
		}
	}

	while (!(Endpoint_IsOUTReceived()))
    4952:	96 d0       	rcall	.+300    	; 0x4a80 <Endpoint_IsOUTReceived>
    4954:	88 23       	and	r24, r24
    4956:	a9 f3       	breq	.-22     	; 0x4942 <Endpoint_Write_Control_PStream_LE+0xca>
		  return ENDPOINT_RWCSTREAM_DeviceDisconnected;
		else if (USB_DeviceState_LCL == DEVICE_STATE_Suspended)
		  return ENDPOINT_RWCSTREAM_BusSuspended;
	}

	return ENDPOINT_RWCSTREAM_NoError;
    4958:	80 e0       	ldi	r24, 0x00	; 0
    495a:	01 c0       	rjmp	.+2      	; 0x495e <Endpoint_Write_Control_PStream_LE+0xe6>
		if (USB_DeviceState_LCL == DEVICE_STATE_Unattached)
		  return ENDPOINT_RWCSTREAM_DeviceDisconnected;
		else if (USB_DeviceState_LCL == DEVICE_STATE_Suspended)
		  return ENDPOINT_RWCSTREAM_BusSuspended;
		else if (Endpoint_IsSETUPReceived())
		  return ENDPOINT_RWCSTREAM_HostAborted;
    495c:	81 e0       	ldi	r24, 0x01	; 1
		else if (USB_DeviceState_LCL == DEVICE_STATE_Suspended)
		  return ENDPOINT_RWCSTREAM_BusSuspended;
	}

	return ENDPOINT_RWCSTREAM_NoError;
}
    495e:	df 91       	pop	r29
    4960:	cf 91       	pop	r28
    4962:	1f 91       	pop	r17
    4964:	0f 91       	pop	r16
    4966:	ff 90       	pop	r15
    4968:	ef 90       	pop	r14
    496a:	df 90       	pop	r13
    496c:	08 95       	ret

0000496e <Endpoint_ClearIN>:
	USB_Endpoint_SelectedFIFO->Position  = 0;
}

void Endpoint_ClearIN(void)
{
	USB_Endpoint_SelectedHandle->CNT     = USB_Endpoint_SelectedFIFO->Position;
    496e:	e0 91 69 23 	lds	r30, 0x2369	; 0x802369 <USB_Endpoint_SelectedHandle>
    4972:	f0 91 6a 23 	lds	r31, 0x236A	; 0x80236a <USB_Endpoint_SelectedHandle+0x1>
    4976:	a0 91 67 23 	lds	r26, 0x2367	; 0x802367 <USB_Endpoint_SelectedFIFO>
    497a:	b0 91 68 23 	lds	r27, 0x2368	; 0x802368 <USB_Endpoint_SelectedFIFO+0x1>
    497e:	af 5b       	subi	r26, 0xBF	; 191
    4980:	bf 4f       	sbci	r27, 0xFF	; 255
    4982:	8c 91       	ld	r24, X
    4984:	90 e0       	ldi	r25, 0x00	; 0
    4986:	82 83       	std	Z+2, r24	; 0x02
    4988:	93 83       	std	Z+3, r25	; 0x03
	USB_Endpoint_SelectedHandle->STATUS &= ~(USB_EP_TRNCOMPL0_bm | USB_EP_BUSNACK0_bm | USB_EP_OVF_bm);
    498a:	80 81       	ld	r24, Z
    498c:	8d 79       	andi	r24, 0x9D	; 157
    498e:	80 83       	st	Z, r24
	USB_Endpoint_SelectedFIFO->Position  = 0;
    4990:	e0 91 67 23 	lds	r30, 0x2367	; 0x802367 <USB_Endpoint_SelectedFIFO>
    4994:	f0 91 68 23 	lds	r31, 0x2368	; 0x802368 <USB_Endpoint_SelectedFIFO+0x1>
    4998:	ef 5b       	subi	r30, 0xBF	; 191
    499a:	ff 4f       	sbci	r31, 0xFF	; 255
    499c:	10 82       	st	Z, r1
    499e:	08 95       	ret

000049a0 <Endpoint_ClearOUT>:
}

void Endpoint_ClearOUT(void)
{
	USB_Endpoint_SelectedHandle->STATUS &= ~(USB_EP_TRNCOMPL0_bm | USB_EP_BUSNACK0_bm | USB_EP_OVF_bm);
    49a0:	e0 91 69 23 	lds	r30, 0x2369	; 0x802369 <USB_Endpoint_SelectedHandle>
    49a4:	f0 91 6a 23 	lds	r31, 0x236A	; 0x80236a <USB_Endpoint_SelectedHandle+0x1>
    49a8:	80 81       	ld	r24, Z
    49aa:	8d 79       	andi	r24, 0x9D	; 157
    49ac:	80 83       	st	Z, r24
	USB_Endpoint_SelectedFIFO->Position  = 0;
    49ae:	e0 91 67 23 	lds	r30, 0x2367	; 0x802367 <USB_Endpoint_SelectedFIFO>
    49b2:	f0 91 68 23 	lds	r31, 0x2368	; 0x802368 <USB_Endpoint_SelectedFIFO+0x1>
    49b6:	ef 5b       	subi	r30, 0xBF	; 191
    49b8:	ff 4f       	sbci	r31, 0xFF	; 255
    49ba:	10 82       	st	Z, r1
    49bc:	08 95       	ret

000049be <Endpoint_Read_8>:
	}
}

uint8_t Endpoint_Read_8(void)
{
	return USB_Endpoint_SelectedFIFO->Data[USB_Endpoint_SelectedFIFO->Position++];
    49be:	80 91 67 23 	lds	r24, 0x2367	; 0x802367 <USB_Endpoint_SelectedFIFO>
    49c2:	90 91 68 23 	lds	r25, 0x2368	; 0x802368 <USB_Endpoint_SelectedFIFO+0x1>
    49c6:	fc 01       	movw	r30, r24
    49c8:	ef 5b       	subi	r30, 0xBF	; 191
    49ca:	ff 4f       	sbci	r31, 0xFF	; 255
    49cc:	20 81       	ld	r18, Z
    49ce:	31 e0       	ldi	r19, 0x01	; 1
    49d0:	32 0f       	add	r19, r18
    49d2:	30 83       	st	Z, r19
    49d4:	fc 01       	movw	r30, r24
    49d6:	e2 0f       	add	r30, r18
    49d8:	f1 1d       	adc	r31, r1
    49da:	80 81       	ld	r24, Z
}
    49dc:	08 95       	ret

000049de <Endpoint_Write_8>:

void Endpoint_Write_8(const uint8_t Data)
{
	USB_Endpoint_SelectedFIFO->Data[USB_Endpoint_SelectedFIFO->Position++] = Data;
    49de:	20 91 67 23 	lds	r18, 0x2367	; 0x802367 <USB_Endpoint_SelectedFIFO>
    49e2:	30 91 68 23 	lds	r19, 0x2368	; 0x802368 <USB_Endpoint_SelectedFIFO+0x1>
    49e6:	f9 01       	movw	r30, r18
    49e8:	ef 5b       	subi	r30, 0xBF	; 191
    49ea:	ff 4f       	sbci	r31, 0xFF	; 255
    49ec:	90 81       	ld	r25, Z
    49ee:	41 e0       	ldi	r20, 0x01	; 1
    49f0:	49 0f       	add	r20, r25
    49f2:	40 83       	st	Z, r20
    49f4:	f9 01       	movw	r30, r18
    49f6:	e9 0f       	add	r30, r25
    49f8:	f1 1d       	adc	r31, r1
    49fa:	80 83       	st	Z, r24
    49fc:	08 95       	ret

000049fe <Endpoint_SelectEndpoint>:

void Endpoint_SelectEndpoint(const uint8_t Address)
{
	uint8_t EndpointNumber = (Address & ENDPOINT_EPNUM_MASK);

	USB_Endpoint_SelectedEndpoint = Address;
    49fe:	80 93 6b 23 	sts	0x236B, r24	; 0x80236b <USB_Endpoint_SelectedEndpoint>
	USB_Endpoint_SelectedFIFO->Data[USB_Endpoint_SelectedFIFO->Position++] = Data;
}

void Endpoint_SelectEndpoint(const uint8_t Address)
{
	uint8_t EndpointNumber = (Address & ENDPOINT_EPNUM_MASK);
    4a02:	48 2f       	mov	r20, r24
    4a04:	4f 70       	andi	r20, 0x0F	; 15

	USB_Endpoint_SelectedEndpoint = Address;

	Endpoint_FIFOPair_t* EndpointFIFOPair = &USB_Endpoint_FIFOs[EndpointNumber];
    4a06:	50 e0       	ldi	r21, 0x00	; 0
	USB_EndpointTable_t* EndpointTable    = (USB_EndpointTable_t*)USB.EPPTR;
    4a08:	60 91 c6 04 	lds	r22, 0x04C6	; 0x8004c6 <__TEXT_REGION_LENGTH__+0x7004c6>
    4a0c:	70 91 c7 04 	lds	r23, 0x04C7	; 0x8004c7 <__TEXT_REGION_LENGTH__+0x7004c7>
    4a10:	9a 01       	movw	r18, r20
    4a12:	94 e0       	ldi	r25, 0x04	; 4
    4a14:	22 0f       	add	r18, r18
    4a16:	33 1f       	adc	r19, r19
    4a18:	9a 95       	dec	r25
    4a1a:	e1 f7       	brne	.-8      	; 0x4a14 <Endpoint_SelectEndpoint+0x16>

	if (Address & ENDPOINT_DIR_IN)
	{
		USB_Endpoint_SelectedFIFO   = &EndpointFIFOPair->IN;
    4a1c:	e4 e8       	ldi	r30, 0x84	; 132
	USB_Endpoint_SelectedEndpoint = Address;

	Endpoint_FIFOPair_t* EndpointFIFOPair = &USB_Endpoint_FIFOs[EndpointNumber];
	USB_EndpointTable_t* EndpointTable    = (USB_EndpointTable_t*)USB.EPPTR;

	if (Address & ENDPOINT_DIR_IN)
    4a1e:	87 ff       	sbrs	r24, 7
    4a20:	11 c0       	rjmp	.+34     	; 0x4a44 <Endpoint_SelectEndpoint+0x46>
	{
		USB_Endpoint_SelectedFIFO   = &EndpointFIFOPair->IN;
    4a22:	e4 9f       	mul	r30, r20
    4a24:	c0 01       	movw	r24, r0
    4a26:	e5 9f       	mul	r30, r21
    4a28:	90 0d       	add	r25, r0
    4a2a:	11 24       	eor	r1, r1
    4a2c:	82 55       	subi	r24, 0x52	; 82
    4a2e:	9c 4d       	sbci	r25, 0xDC	; 220
    4a30:	80 93 67 23 	sts	0x2367, r24	; 0x802367 <USB_Endpoint_SelectedFIFO>
    4a34:	90 93 68 23 	sts	0x2368, r25	; 0x802368 <USB_Endpoint_SelectedFIFO+0x1>
		USB_Endpoint_SelectedHandle = &EndpointTable->Endpoints[EndpointNumber].IN;
    4a38:	c9 01       	movw	r24, r18
    4a3a:	08 96       	adiw	r24, 0x08	; 8
    4a3c:	9b 01       	movw	r18, r22
    4a3e:	28 0f       	add	r18, r24
    4a40:	39 1f       	adc	r19, r25
    4a42:	0d c0       	rjmp	.+26     	; 0x4a5e <Endpoint_SelectEndpoint+0x60>
	}
	else
	{
		USB_Endpoint_SelectedFIFO   = &EndpointFIFOPair->OUT;
    4a44:	e4 9f       	mul	r30, r20
    4a46:	c0 01       	movw	r24, r0
    4a48:	e5 9f       	mul	r30, r21
    4a4a:	90 0d       	add	r25, r0
    4a4c:	11 24       	eor	r1, r1
    4a4e:	84 59       	subi	r24, 0x94	; 148
    4a50:	9c 4d       	sbci	r25, 0xDC	; 220
    4a52:	80 93 67 23 	sts	0x2367, r24	; 0x802367 <USB_Endpoint_SelectedFIFO>
    4a56:	90 93 68 23 	sts	0x2368, r25	; 0x802368 <USB_Endpoint_SelectedFIFO+0x1>
		USB_Endpoint_SelectedHandle = &EndpointTable->Endpoints[EndpointNumber].OUT;
    4a5a:	26 0f       	add	r18, r22
    4a5c:	37 1f       	adc	r19, r23
    4a5e:	20 93 69 23 	sts	0x2369, r18	; 0x802369 <USB_Endpoint_SelectedHandle>
    4a62:	30 93 6a 23 	sts	0x236A, r19	; 0x80236a <USB_Endpoint_SelectedHandle+0x1>
    4a66:	08 95       	ret

00004a68 <Endpoint_IsINReady>:
volatile USB_EP_t*        USB_Endpoint_SelectedHandle;
volatile Endpoint_FIFO_t* USB_Endpoint_SelectedFIFO;

bool Endpoint_IsINReady(void)
{
	Endpoint_SelectEndpoint(USB_Endpoint_SelectedEndpoint | ENDPOINT_DIR_IN);
    4a68:	80 91 6b 23 	lds	r24, 0x236B	; 0x80236b <USB_Endpoint_SelectedEndpoint>
    4a6c:	80 68       	ori	r24, 0x80	; 128
    4a6e:	c7 df       	rcall	.-114    	; 0x49fe <Endpoint_SelectEndpoint>

	return ((USB_Endpoint_SelectedHandle->STATUS & USB_EP_BUSNACK0_bm) ? true : false);
    4a70:	e0 91 69 23 	lds	r30, 0x2369	; 0x802369 <USB_Endpoint_SelectedHandle>
    4a74:	f0 91 6a 23 	lds	r31, 0x236A	; 0x80236a <USB_Endpoint_SelectedHandle+0x1>
    4a78:	80 81       	ld	r24, Z
}
    4a7a:	86 95       	lsr	r24
    4a7c:	81 70       	andi	r24, 0x01	; 1
    4a7e:	08 95       	ret

00004a80 <Endpoint_IsOUTReceived>:

bool Endpoint_IsOUTReceived(void)
{
	Endpoint_SelectEndpoint(USB_Endpoint_SelectedEndpoint & ~ENDPOINT_DIR_IN);
    4a80:	80 91 6b 23 	lds	r24, 0x236B	; 0x80236b <USB_Endpoint_SelectedEndpoint>
    4a84:	8f 77       	andi	r24, 0x7F	; 127
    4a86:	bb df       	rcall	.-138    	; 0x49fe <Endpoint_SelectEndpoint>

	if (USB_Endpoint_SelectedHandle->STATUS & USB_EP_TRNCOMPL0_bm)
    4a88:	a0 91 69 23 	lds	r26, 0x2369	; 0x802369 <USB_Endpoint_SelectedHandle>
    4a8c:	b0 91 6a 23 	lds	r27, 0x236A	; 0x80236a <USB_Endpoint_SelectedHandle+0x1>
    4a90:	8c 91       	ld	r24, X
    4a92:	85 ff       	sbrs	r24, 5
    4a94:	0d c0       	rjmp	.+26     	; 0x4ab0 <Endpoint_IsOUTReceived+0x30>
	{
		USB_Endpoint_SelectedFIFO->Length = USB_Endpoint_SelectedHandle->CNT;
    4a96:	e0 91 67 23 	lds	r30, 0x2367	; 0x802367 <USB_Endpoint_SelectedFIFO>
    4a9a:	f0 91 68 23 	lds	r31, 0x2368	; 0x802368 <USB_Endpoint_SelectedFIFO+0x1>
    4a9e:	12 96       	adiw	r26, 0x02	; 2
    4aa0:	8d 91       	ld	r24, X+
    4aa2:	9c 91       	ld	r25, X
    4aa4:	13 97       	sbiw	r26, 0x03	; 3
    4aa6:	e0 5c       	subi	r30, 0xC0	; 192
    4aa8:	ff 4f       	sbci	r31, 0xFF	; 255
    4aaa:	80 83       	st	Z, r24
		return true;
    4aac:	81 e0       	ldi	r24, 0x01	; 1
    4aae:	08 95       	ret
	}

	return false;
    4ab0:	80 e0       	ldi	r24, 0x00	; 0
}
    4ab2:	08 95       	ret

00004ab4 <Endpoint_IsSETUPReceived>:

bool Endpoint_IsSETUPReceived(void)
{
	Endpoint_SelectEndpoint(USB_Endpoint_SelectedEndpoint & ~ENDPOINT_DIR_IN);
    4ab4:	80 91 6b 23 	lds	r24, 0x236B	; 0x80236b <USB_Endpoint_SelectedEndpoint>
    4ab8:	8f 77       	andi	r24, 0x7F	; 127
    4aba:	a1 df       	rcall	.-190    	; 0x49fe <Endpoint_SelectEndpoint>

	if (USB_Endpoint_SelectedHandle->STATUS & USB_EP_SETUP_bm)
    4abc:	a0 91 69 23 	lds	r26, 0x2369	; 0x802369 <USB_Endpoint_SelectedHandle>
    4ac0:	b0 91 6a 23 	lds	r27, 0x236A	; 0x80236a <USB_Endpoint_SelectedHandle+0x1>
    4ac4:	8c 91       	ld	r24, X
    4ac6:	84 ff       	sbrs	r24, 4
    4ac8:	0d c0       	rjmp	.+26     	; 0x4ae4 <Endpoint_IsSETUPReceived+0x30>
	{
		USB_Endpoint_SelectedFIFO->Length = USB_Endpoint_SelectedHandle->CNT;
    4aca:	e0 91 67 23 	lds	r30, 0x2367	; 0x802367 <USB_Endpoint_SelectedFIFO>
    4ace:	f0 91 68 23 	lds	r31, 0x2368	; 0x802368 <USB_Endpoint_SelectedFIFO+0x1>
    4ad2:	12 96       	adiw	r26, 0x02	; 2
    4ad4:	8d 91       	ld	r24, X+
    4ad6:	9c 91       	ld	r25, X
    4ad8:	13 97       	sbiw	r26, 0x03	; 3
    4ada:	e0 5c       	subi	r30, 0xC0	; 192
    4adc:	ff 4f       	sbci	r31, 0xFF	; 255
    4ade:	80 83       	st	Z, r24
		return true;
    4ae0:	81 e0       	ldi	r24, 0x01	; 1
    4ae2:	08 95       	ret
	}

	return false;
    4ae4:	80 e0       	ldi	r24, 0x00	; 0
}
    4ae6:	08 95       	ret

00004ae8 <Endpoint_ClearSETUP>:

void Endpoint_ClearSETUP(void)
{
	Endpoint_SelectEndpoint(USB_Endpoint_SelectedEndpoint & ~ENDPOINT_DIR_IN);
    4ae8:	80 91 6b 23 	lds	r24, 0x236B	; 0x80236b <USB_Endpoint_SelectedEndpoint>
    4aec:	8f 77       	andi	r24, 0x7F	; 127
    4aee:	87 df       	rcall	.-242    	; 0x49fe <Endpoint_SelectEndpoint>
	USB_Endpoint_SelectedHandle->STATUS &= ~(USB_EP_SETUP_bm | USB_EP_TRNCOMPL0_bm | USB_EP_BUSNACK0_bm | USB_EP_OVF_bm);
    4af0:	e0 91 69 23 	lds	r30, 0x2369	; 0x802369 <USB_Endpoint_SelectedHandle>
    4af4:	f0 91 6a 23 	lds	r31, 0x236A	; 0x80236a <USB_Endpoint_SelectedHandle+0x1>
    4af8:	80 81       	ld	r24, Z
    4afa:	8d 78       	andi	r24, 0x8D	; 141
    4afc:	80 83       	st	Z, r24
	USB_Endpoint_SelectedHandle->STATUS |= USB_EP_TOGGLE_bm;
    4afe:	e0 91 69 23 	lds	r30, 0x2369	; 0x802369 <USB_Endpoint_SelectedHandle>
    4b02:	f0 91 6a 23 	lds	r31, 0x236A	; 0x80236a <USB_Endpoint_SelectedHandle+0x1>
    4b06:	80 81       	ld	r24, Z
    4b08:	81 60       	ori	r24, 0x01	; 1
    4b0a:	80 83       	st	Z, r24
	USB_Endpoint_SelectedFIFO->Position  = 0;
    4b0c:	e0 91 67 23 	lds	r30, 0x2367	; 0x802367 <USB_Endpoint_SelectedFIFO>
    4b10:	f0 91 68 23 	lds	r31, 0x2368	; 0x802368 <USB_Endpoint_SelectedFIFO+0x1>
    4b14:	ef 5b       	subi	r30, 0xBF	; 191
    4b16:	ff 4f       	sbci	r31, 0xFF	; 255
    4b18:	10 82       	st	Z, r1

	Endpoint_SelectEndpoint(USB_Endpoint_SelectedEndpoint | ENDPOINT_DIR_IN);
    4b1a:	80 91 6b 23 	lds	r24, 0x236B	; 0x80236b <USB_Endpoint_SelectedEndpoint>
    4b1e:	80 68       	ori	r24, 0x80	; 128
    4b20:	6e df       	rcall	.-292    	; 0x49fe <Endpoint_SelectEndpoint>
	USB_Endpoint_SelectedHandle->STATUS |= USB_EP_TOGGLE_bm;
    4b22:	e0 91 69 23 	lds	r30, 0x2369	; 0x802369 <USB_Endpoint_SelectedHandle>
    4b26:	f0 91 6a 23 	lds	r31, 0x236A	; 0x80236a <USB_Endpoint_SelectedHandle+0x1>
    4b2a:	80 81       	ld	r24, Z
    4b2c:	81 60       	ori	r24, 0x01	; 1
    4b2e:	80 83       	st	Z, r24
	USB_Endpoint_SelectedFIFO->Position  = 0;
    4b30:	e0 91 67 23 	lds	r30, 0x2367	; 0x802367 <USB_Endpoint_SelectedFIFO>
    4b34:	f0 91 68 23 	lds	r31, 0x2368	; 0x802368 <USB_Endpoint_SelectedFIFO+0x1>
    4b38:	ef 5b       	subi	r30, 0xBF	; 191
    4b3a:	ff 4f       	sbci	r31, 0xFF	; 255
    4b3c:	10 82       	st	Z, r1
    4b3e:	08 95       	ret

00004b40 <Endpoint_StallTransaction>:
	USB_Endpoint_SelectedFIFO->Position  = 0;
}

void Endpoint_StallTransaction(void)
{
	USB_Endpoint_SelectedHandle->CTRL |= USB_EP_STALL_bm;
    4b40:	e0 91 69 23 	lds	r30, 0x2369	; 0x802369 <USB_Endpoint_SelectedHandle>
    4b44:	f0 91 6a 23 	lds	r31, 0x236A	; 0x80236a <USB_Endpoint_SelectedHandle+0x1>
    4b48:	81 81       	ldd	r24, Z+1	; 0x01
    4b4a:	84 60       	ori	r24, 0x04	; 4
    4b4c:	81 83       	std	Z+1, r24	; 0x01

	if ((USB_Endpoint_SelectedHandle->CTRL & USB_EP_TYPE_gm) == USB_EP_TYPE_CONTROL_gc)
    4b4e:	e0 91 69 23 	lds	r30, 0x2369	; 0x802369 <USB_Endpoint_SelectedHandle>
    4b52:	f0 91 6a 23 	lds	r31, 0x236A	; 0x80236a <USB_Endpoint_SelectedHandle+0x1>
    4b56:	81 81       	ldd	r24, Z+1	; 0x01
    4b58:	80 7c       	andi	r24, 0xC0	; 192
    4b5a:	80 34       	cpi	r24, 0x40	; 64
    4b5c:	59 f4       	brne	.+22     	; 0x4b74 <Endpoint_StallTransaction+0x34>
	{
		Endpoint_SelectEndpoint(USB_Endpoint_SelectedEndpoint ^ ENDPOINT_DIR_IN);
    4b5e:	80 91 6b 23 	lds	r24, 0x236B	; 0x80236b <USB_Endpoint_SelectedEndpoint>
    4b62:	80 58       	subi	r24, 0x80	; 128
    4b64:	4c df       	rcall	.-360    	; 0x49fe <Endpoint_SelectEndpoint>
		USB_Endpoint_SelectedHandle->CTRL |= USB_EP_STALL_bm;
    4b66:	e0 91 69 23 	lds	r30, 0x2369	; 0x802369 <USB_Endpoint_SelectedHandle>
    4b6a:	f0 91 6a 23 	lds	r31, 0x236A	; 0x80236a <USB_Endpoint_SelectedHandle+0x1>
    4b6e:	81 81       	ldd	r24, Z+1	; 0x01
    4b70:	84 60       	ori	r24, 0x04	; 4
    4b72:	81 83       	std	Z+1, r24	; 0x01
    4b74:	08 95       	ret

00004b76 <Endpoint_ConfigureEndpoint_PRV>:
}

bool Endpoint_ConfigureEndpoint_PRV(const uint8_t Address,
                                    const uint8_t Config,
                                    const uint8_t Size)
{
    4b76:	1f 93       	push	r17
    4b78:	cf 93       	push	r28
    4b7a:	df 93       	push	r29
    4b7c:	00 d0       	rcall	.+0      	; 0x4b7e <Endpoint_ConfigureEndpoint_PRV+0x8>
    4b7e:	cd b7       	in	r28, 0x3d	; 61
    4b80:	de b7       	in	r29, 0x3e	; 62
    4b82:	18 2f       	mov	r17, r24
	Endpoint_SelectEndpoint(Address);
    4b84:	4a 83       	std	Y+2, r20	; 0x02
    4b86:	69 83       	std	Y+1, r22	; 0x01
    4b88:	3a df       	rcall	.-396    	; 0x49fe <Endpoint_SelectEndpoint>

	USB_Endpoint_SelectedHandle->CTRL    = 0;
    4b8a:	e0 91 69 23 	lds	r30, 0x2369	; 0x802369 <USB_Endpoint_SelectedHandle>
    4b8e:	f0 91 6a 23 	lds	r31, 0x236A	; 0x80236a <USB_Endpoint_SelectedHandle+0x1>
    4b92:	11 82       	std	Z+1, r1	; 0x01
	USB_Endpoint_SelectedHandle->STATUS  = (Address & ENDPOINT_DIR_IN) ? USB_EP_BUSNACK0_bm : 0;
    4b94:	e0 91 69 23 	lds	r30, 0x2369	; 0x802369 <USB_Endpoint_SelectedHandle>
    4b98:	f0 91 6a 23 	lds	r31, 0x236A	; 0x80236a <USB_Endpoint_SelectedHandle+0x1>
    4b9c:	81 2f       	mov	r24, r17
    4b9e:	88 1f       	adc	r24, r24
    4ba0:	88 27       	eor	r24, r24
    4ba2:	88 1f       	adc	r24, r24
    4ba4:	88 0f       	add	r24, r24
    4ba6:	80 83       	st	Z, r24
	USB_Endpoint_SelectedHandle->CTRL    = Config;
    4ba8:	e0 91 69 23 	lds	r30, 0x2369	; 0x802369 <USB_Endpoint_SelectedHandle>
    4bac:	f0 91 6a 23 	lds	r31, 0x236A	; 0x80236a <USB_Endpoint_SelectedHandle+0x1>
    4bb0:	69 81       	ldd	r22, Y+1	; 0x01
    4bb2:	61 83       	std	Z+1, r22	; 0x01
	USB_Endpoint_SelectedHandle->CNT     = 0;
    4bb4:	e0 91 69 23 	lds	r30, 0x2369	; 0x802369 <USB_Endpoint_SelectedHandle>
    4bb8:	f0 91 6a 23 	lds	r31, 0x236A	; 0x80236a <USB_Endpoint_SelectedHandle+0x1>
    4bbc:	12 82       	std	Z+2, r1	; 0x02
    4bbe:	13 82       	std	Z+3, r1	; 0x03
	USB_Endpoint_SelectedHandle->DATAPTR = (intptr_t)USB_Endpoint_SelectedFIFO->Data;
    4bc0:	20 91 67 23 	lds	r18, 0x2367	; 0x802367 <USB_Endpoint_SelectedFIFO>
    4bc4:	30 91 68 23 	lds	r19, 0x2368	; 0x802368 <USB_Endpoint_SelectedFIFO+0x1>
    4bc8:	24 83       	std	Z+4, r18	; 0x04
    4bca:	35 83       	std	Z+5, r19	; 0x05

	USB_Endpoint_SelectedFIFO->Length    = (Address & ENDPOINT_DIR_IN) ? Size : 0;
    4bcc:	11 0f       	add	r17, r17
    4bce:	11 0b       	sbc	r17, r17
    4bd0:	4a 81       	ldd	r20, Y+2	; 0x02
    4bd2:	41 23       	and	r20, r17
    4bd4:	f9 01       	movw	r30, r18
    4bd6:	e0 5c       	subi	r30, 0xC0	; 192
    4bd8:	ff 4f       	sbci	r31, 0xFF	; 255
    4bda:	40 83       	st	Z, r20
	USB_Endpoint_SelectedFIFO->Position  = 0;
    4bdc:	31 96       	adiw	r30, 0x01	; 1
    4bde:	10 82       	st	Z, r1

	return true;
}
    4be0:	81 e0       	ldi	r24, 0x01	; 1
    4be2:	0f 90       	pop	r0
    4be4:	0f 90       	pop	r0
    4be6:	df 91       	pop	r29
    4be8:	cf 91       	pop	r28
    4bea:	1f 91       	pop	r17
    4bec:	08 95       	ret

00004bee <Endpoint_ConfigureEndpointTable>:
	}
}

bool Endpoint_ConfigureEndpointTable(const USB_Endpoint_Table_t* const Table,
                                     const uint8_t Entries)
{
    4bee:	af 92       	push	r10
    4bf0:	bf 92       	push	r11
    4bf2:	cf 92       	push	r12
    4bf4:	df 92       	push	r13
    4bf6:	ef 92       	push	r14
    4bf8:	ff 92       	push	r15
    4bfa:	0f 93       	push	r16
    4bfc:	1f 93       	push	r17
    4bfe:	cf 93       	push	r28
    4c00:	df 93       	push	r29
    4c02:	a6 2e       	mov	r10, r22
    4c04:	8c 01       	movw	r16, r24
    4c06:	7c 01       	movw	r14, r24
    4c08:	84 e0       	ldi	r24, 0x04	; 4
    4c0a:	e8 0e       	add	r14, r24
    4c0c:	f1 1c       	adc	r15, r1
	for (uint8_t i = 0; i < Entries; i++)
    4c0e:	b1 2c       	mov	r11, r1
    4c10:	ba 14       	cp	r11, r10
    4c12:	09 f4       	brne	.+2      	; 0x4c16 <Endpoint_ConfigureEndpointTable+0x28>
    4c14:	43 c0       	rjmp	.+134    	; 0x4c9c <Endpoint_ConfigureEndpointTable+0xae>
	{
		if (!(Table[i].Address))
    4c16:	f8 01       	movw	r30, r16
    4c18:	d0 81       	ld	r29, Z
    4c1a:	dd 23       	and	r29, r29
    4c1c:	c1 f1       	breq	.+112    	; 0x4c8e <Endpoint_ConfigureEndpointTable+0xa0>
		  continue;

		if (!(Endpoint_ConfigureEndpoint(Table[i].Address, Table[i].Type, Table[i].Size, Table[i].Banks)))
    4c1e:	c1 80       	ldd	r12, Z+1	; 0x01
    4c20:	d2 80       	ldd	r13, Z+2	; 0x02
    4c22:	f7 01       	movw	r30, r14
    4c24:	31 97       	sbiw	r30, 0x01	; 1
    4c26:	80 81       	ld	r24, Z
			static inline bool Endpoint_ConfigureEndpoint(const uint8_t Address,
			                                              const uint8_t Type,
			                                              const uint16_t Size,
			                                              const uint8_t Banks)
			{
				uint8_t EPConfigMask = (USB_EP_INTDSBL_bm | ((Banks > 1) ? USB_EP_PINGPONG_bm : 0) | Endpoint_BytesToEPSizeMask(Size));
    4c28:	f7 01       	movw	r30, r14
    4c2a:	90 81       	ld	r25, Z
    4c2c:	92 30       	cpi	r25, 0x02	; 2
    4c2e:	10 f4       	brcc	.+4      	; 0x4c34 <Endpoint_ConfigureEndpointTable+0x46>
    4c30:	98 e0       	ldi	r25, 0x08	; 8
    4c32:	01 c0       	rjmp	.+2      	; 0x4c36 <Endpoint_ConfigureEndpointTable+0x48>
    4c34:	98 e1       	ldi	r25, 0x18	; 24
			static inline uint8_t Endpoint_BytesToEPSizeMask(const uint16_t Bytes) ATTR_WARN_UNUSED_RESULT ATTR_CONST
			                                                                       ATTR_ALWAYS_INLINE;
			static inline uint8_t Endpoint_BytesToEPSizeMask(const uint16_t Bytes)
			{
				uint8_t  MaskVal    = 0;
				uint16_t CheckBytes = 8;
    4c36:	28 e0       	ldi	r18, 0x08	; 8
    4c38:	30 e0       	ldi	r19, 0x00	; 0
		/* Inline Functions: */
			static inline uint8_t Endpoint_BytesToEPSizeMask(const uint16_t Bytes) ATTR_WARN_UNUSED_RESULT ATTR_CONST
			                                                                       ATTR_ALWAYS_INLINE;
			static inline uint8_t Endpoint_BytesToEPSizeMask(const uint16_t Bytes)
			{
				uint8_t  MaskVal    = 0;
    4c3a:	c0 e0       	ldi	r28, 0x00	; 0
				uint16_t CheckBytes = 8;

				while (CheckBytes < Bytes)
    4c3c:	2c 15       	cp	r18, r12
    4c3e:	3d 05       	cpc	r19, r13
    4c40:	20 f4       	brcc	.+8      	; 0x4c4a <Endpoint_ConfigureEndpointTable+0x5c>
				{
					MaskVal++;
    4c42:	cf 5f       	subi	r28, 0xFF	; 255
					CheckBytes <<= 1;
    4c44:	22 0f       	add	r18, r18
    4c46:	33 1f       	adc	r19, r19
    4c48:	f9 cf       	rjmp	.-14     	; 0x4c3c <Endpoint_ConfigureEndpointTable+0x4e>
			static inline bool Endpoint_ConfigureEndpoint(const uint8_t Address,
			                                              const uint8_t Type,
			                                              const uint16_t Size,
			                                              const uint8_t Banks)
			{
				uint8_t EPConfigMask = (USB_EP_INTDSBL_bm | ((Banks > 1) ? USB_EP_PINGPONG_bm : 0) | Endpoint_BytesToEPSizeMask(Size));
    4c4a:	c9 2b       	or	r28, r25

				if ((Address & ENDPOINT_EPNUM_MASK) >= ENDPOINT_TOTAL_ENDPOINTS)
    4c4c:	9d 2f       	mov	r25, r29
    4c4e:	9f 70       	andi	r25, 0x0F	; 15
    4c50:	96 30       	cpi	r25, 0x06	; 6
    4c52:	10 f0       	brcs	.+4      	; 0x4c58 <Endpoint_ConfigureEndpointTable+0x6a>
		{
			return false;
    4c54:	80 e0       	ldi	r24, 0x00	; 0
    4c56:	23 c0       	rjmp	.+70     	; 0x4c9e <Endpoint_ConfigureEndpointTable+0xb0>
				  return false;

				// TODO - Fix once limitations are lifted
				EPConfigMask &= ~USB_EP_PINGPONG_bm;
    4c58:	cf 7e       	andi	r28, 0xEF	; 239
				if (Size > 64)
    4c5a:	f1 e4       	ldi	r31, 0x41	; 65
    4c5c:	cf 16       	cp	r12, r31
    4c5e:	d1 04       	cpc	r13, r1
    4c60:	c8 f7       	brcc	.-14     	; 0x4c54 <Endpoint_ConfigureEndpointTable+0x66>
				  return false;

				switch (Type)
    4c62:	88 23       	and	r24, r24
    4c64:	21 f0       	breq	.+8      	; 0x4c6e <Endpoint_ConfigureEndpointTable+0x80>
    4c66:	81 30       	cpi	r24, 0x01	; 1
    4c68:	21 f4       	brne	.+8      	; 0x4c72 <Endpoint_ConfigureEndpointTable+0x84>
				{
					case EP_TYPE_CONTROL:
						EPConfigMask |= USB_EP_TYPE_CONTROL_gc;
						break;
					case EP_TYPE_ISOCHRONOUS:
						EPConfigMask |= USB_EP_TYPE_ISOCHRONOUS_gc;
    4c6a:	c0 6c       	ori	r28, 0xC0	; 192
    4c6c:	0a c0       	rjmp	.+20     	; 0x4c82 <Endpoint_ConfigureEndpointTable+0x94>
				  return false;

				switch (Type)
				{
					case EP_TYPE_CONTROL:
						EPConfigMask |= USB_EP_TYPE_CONTROL_gc;
    4c6e:	c0 64       	ori	r28, 0x40	; 64
    4c70:	03 c0       	rjmp	.+6      	; 0x4c78 <Endpoint_ConfigureEndpointTable+0x8a>
						break;
					case EP_TYPE_ISOCHRONOUS:
						EPConfigMask |= USB_EP_TYPE_ISOCHRONOUS_gc;
						break;
					default:
						EPConfigMask |= USB_EP_TYPE_BULK_gc;
    4c72:	c0 68       	ori	r28, 0x80	; 128
						break;
				}

				if (Type == EP_TYPE_CONTROL)
    4c74:	81 11       	cpse	r24, r1
    4c76:	05 c0       	rjmp	.+10     	; 0x4c82 <Endpoint_ConfigureEndpointTable+0x94>
				  Endpoint_ConfigureEndpoint_PRV(Address ^ ENDPOINT_DIR_IN, EPConfigMask, Size);
    4c78:	4c 2d       	mov	r20, r12
    4c7a:	6c 2f       	mov	r22, r28
    4c7c:	80 e8       	ldi	r24, 0x80	; 128
    4c7e:	8d 0f       	add	r24, r29
    4c80:	7a df       	rcall	.-268    	; 0x4b76 <Endpoint_ConfigureEndpoint_PRV>

				return Endpoint_ConfigureEndpoint_PRV(Address, EPConfigMask, Size);
    4c82:	4c 2d       	mov	r20, r12
    4c84:	6c 2f       	mov	r22, r28
    4c86:	8d 2f       	mov	r24, r29
    4c88:	76 df       	rcall	.-276    	; 0x4b76 <Endpoint_ConfigureEndpoint_PRV>
	for (uint8_t i = 0; i < Entries; i++)
	{
		if (!(Table[i].Address))
		  continue;

		if (!(Endpoint_ConfigureEndpoint(Table[i].Address, Table[i].Type, Table[i].Size, Table[i].Banks)))
    4c8a:	88 23       	and	r24, r24
    4c8c:	19 f3       	breq	.-58     	; 0x4c54 <Endpoint_ConfigureEndpointTable+0x66>
}

bool Endpoint_ConfigureEndpointTable(const USB_Endpoint_Table_t* const Table,
                                     const uint8_t Entries)
{
	for (uint8_t i = 0; i < Entries; i++)
    4c8e:	b3 94       	inc	r11
    4c90:	0b 5f       	subi	r16, 0xFB	; 251
    4c92:	1f 4f       	sbci	r17, 0xFF	; 255
    4c94:	85 e0       	ldi	r24, 0x05	; 5
    4c96:	e8 0e       	add	r14, r24
    4c98:	f1 1c       	adc	r15, r1
    4c9a:	ba cf       	rjmp	.-140    	; 0x4c10 <Endpoint_ConfigureEndpointTable+0x22>
		{
			return false;
		}
	}

	return true;
    4c9c:	81 e0       	ldi	r24, 0x01	; 1
}
    4c9e:	df 91       	pop	r29
    4ca0:	cf 91       	pop	r28
    4ca2:	1f 91       	pop	r17
    4ca4:	0f 91       	pop	r16
    4ca6:	ff 90       	pop	r15
    4ca8:	ef 90       	pop	r14
    4caa:	df 90       	pop	r13
    4cac:	cf 90       	pop	r12
    4cae:	bf 90       	pop	r11
    4cb0:	af 90       	pop	r10
    4cb2:	08 95       	ret

00004cb4 <Endpoint_ClearEndpoints>:

	return true;
}

void Endpoint_ClearEndpoints(void)
{
    4cb4:	80 e0       	ldi	r24, 0x00	; 0
    4cb6:	90 e0       	ldi	r25, 0x00	; 0
	for (uint8_t EPNum = 0; EPNum < ENDPOINT_TOTAL_ENDPOINTS; EPNum++)
	{
		((USB_EndpointTable_t*)USB.EPPTR)->Endpoints[EPNum].IN.CTRL  = 0;
    4cb8:	e0 91 c6 04 	lds	r30, 0x04C6	; 0x8004c6 <__TEXT_REGION_LENGTH__+0x7004c6>
    4cbc:	f0 91 c7 04 	lds	r31, 0x04C7	; 0x8004c7 <__TEXT_REGION_LENGTH__+0x7004c7>
    4cc0:	9c 01       	movw	r18, r24
    4cc2:	44 e0       	ldi	r20, 0x04	; 4
    4cc4:	22 0f       	add	r18, r18
    4cc6:	33 1f       	adc	r19, r19
    4cc8:	4a 95       	dec	r20
    4cca:	e1 f7       	brne	.-8      	; 0x4cc4 <Endpoint_ClearEndpoints+0x10>
    4ccc:	e2 0f       	add	r30, r18
    4cce:	f3 1f       	adc	r31, r19
    4cd0:	11 86       	std	Z+9, r1	; 0x09
		((USB_EndpointTable_t*)USB.EPPTR)->Endpoints[EPNum].OUT.CTRL = 0;
    4cd2:	40 91 c6 04 	lds	r20, 0x04C6	; 0x8004c6 <__TEXT_REGION_LENGTH__+0x7004c6>
    4cd6:	50 91 c7 04 	lds	r21, 0x04C7	; 0x8004c7 <__TEXT_REGION_LENGTH__+0x7004c7>
    4cda:	fa 01       	movw	r30, r20
    4cdc:	e2 0f       	add	r30, r18
    4cde:	f3 1f       	adc	r31, r19
    4ce0:	11 82       	std	Z+1, r1	; 0x01
    4ce2:	01 96       	adiw	r24, 0x01	; 1
	return true;
}

void Endpoint_ClearEndpoints(void)
{
	for (uint8_t EPNum = 0; EPNum < ENDPOINT_TOTAL_ENDPOINTS; EPNum++)
    4ce4:	86 30       	cpi	r24, 0x06	; 6
    4ce6:	91 05       	cpc	r25, r1
    4ce8:	39 f7       	brne	.-50     	; 0x4cb8 <Endpoint_ClearEndpoints+0x4>
	{
		((USB_EndpointTable_t*)USB.EPPTR)->Endpoints[EPNum].IN.CTRL  = 0;
		((USB_EndpointTable_t*)USB.EPPTR)->Endpoints[EPNum].OUT.CTRL = 0;
	}
}
    4cea:	08 95       	ret

00004cec <Endpoint_ClearStatusStage>:

void Endpoint_ClearStatusStage(void)
{
	if (USB_ControlRequest.bmRequestType & REQDIR_DEVICETOHOST)
    4cec:	80 91 5f 23 	lds	r24, 0x235F	; 0x80235f <USB_ControlRequest>
    4cf0:	87 ff       	sbrs	r24, 7
    4cf2:	0d c0       	rjmp	.+26     	; 0x4d0e <Endpoint_ClearStatusStage+0x22>
	{
		while (!(Endpoint_IsOUTReceived()))
    4cf4:	c5 de       	rcall	.-630    	; 0x4a80 <Endpoint_IsOUTReceived>
    4cf6:	81 11       	cpse	r24, r1
    4cf8:	05 c0       	rjmp	.+10     	; 0x4d04 <Endpoint_ClearStatusStage+0x18>
		{
			if (USB_DeviceState == DEVICE_STATE_Unattached)
    4cfa:	80 91 5e 23 	lds	r24, 0x235E	; 0x80235e <USB_DeviceState>
    4cfe:	81 11       	cpse	r24, r1
    4d00:	f9 cf       	rjmp	.-14     	; 0x4cf4 <Endpoint_ClearStatusStage+0x8>
    4d02:	09 c0       	rjmp	.+18     	; 0x4d16 <Endpoint_ClearStatusStage+0x2a>
			  return;
		}

		Endpoint_ClearOUT();
    4d04:	4d ce       	rjmp	.-870    	; 0x49a0 <Endpoint_ClearOUT>
	}
	else
	{
		while (!(Endpoint_IsINReady()))
		{
			if (USB_DeviceState == DEVICE_STATE_Unattached)
    4d06:	80 91 5e 23 	lds	r24, 0x235E	; 0x80235e <USB_DeviceState>
    4d0a:	88 23       	and	r24, r24
    4d0c:	21 f0       	breq	.+8      	; 0x4d16 <Endpoint_ClearStatusStage+0x2a>

		Endpoint_ClearOUT();
	}
	else
	{
		while (!(Endpoint_IsINReady()))
    4d0e:	ac de       	rcall	.-680    	; 0x4a68 <Endpoint_IsINReady>
    4d10:	88 23       	and	r24, r24
    4d12:	c9 f3       	breq	.-14     	; 0x4d06 <Endpoint_ClearStatusStage+0x1a>
		{
			if (USB_DeviceState == DEVICE_STATE_Unattached)
			  return;
		}

		Endpoint_ClearIN();
    4d14:	2c ce       	rjmp	.-936    	; 0x496e <Endpoint_ClearIN>
    4d16:	08 95       	ret

00004d18 <Endpoint_WaitUntilReady>:
	}
}

#if !defined(CONTROL_ONLY_DEVICE)
uint8_t Endpoint_WaitUntilReady(void)
{
    4d18:	0f 93       	push	r16
    4d1a:	1f 93       	push	r17
    4d1c:	cf 93       	push	r28
			 *  \return Current USB frame number from the USB controller.
			 */
			static inline uint16_t USB_Device_GetFrameNumber(void) ATTR_ALWAYS_INLINE ATTR_WARN_UNUSED_RESULT;
			static inline uint16_t USB_Device_GetFrameNumber(void)
			{
				return ((USB_EndpointTable_t*)USB.EPPTR)->FrameNum;
    4d1e:	e0 91 c6 04 	lds	r30, 0x04C6	; 0x8004c6 <__TEXT_REGION_LENGTH__+0x7004c6>
    4d22:	f0 91 c7 04 	lds	r31, 0x04C7	; 0x8004c7 <__TEXT_REGION_LENGTH__+0x7004c7>
    4d26:	e0 5a       	subi	r30, 0xA0	; 160
    4d28:	ff 4f       	sbci	r31, 0xFF	; 255
    4d2a:	00 81       	ld	r16, Z
    4d2c:	11 81       	ldd	r17, Z+1	; 0x01
	#if (USB_STREAM_TIMEOUT_MS < 0xFF)
	uint8_t  TimeoutMSRem = USB_STREAM_TIMEOUT_MS;
    4d2e:	c4 e6       	ldi	r28, 0x64	; 100
			 *  \return The currently selected endpoint's direction, as a \c ENDPOINT_DIR_* mask.
			 */
			static inline uint8_t Endpoint_GetEndpointDirection(void) ATTR_WARN_UNUSED_RESULT ATTR_ALWAYS_INLINE;
			static inline uint8_t Endpoint_GetEndpointDirection(void)
			{
				return (USB_Endpoint_SelectedEndpoint & ENDPOINT_DIR_IN);
    4d30:	80 91 6b 23 	lds	r24, 0x236B	; 0x80236b <USB_Endpoint_SelectedEndpoint>

	uint16_t PreviousFrameNumber = USB_Device_GetFrameNumber();

	for (;;)
	{
		if (Endpoint_GetEndpointDirection() == ENDPOINT_DIR_IN)
    4d34:	87 ff       	sbrs	r24, 7
    4d36:	0a c0       	rjmp	.+20     	; 0x4d4c <Endpoint_WaitUntilReady+0x34>
		{
			if (Endpoint_IsINReady())
    4d38:	97 de       	rcall	.-722    	; 0x4a68 <Endpoint_IsINReady>
    4d3a:	81 11       	cpse	r24, r1
    4d3c:	05 c0       	rjmp	.+10     	; 0x4d48 <Endpoint_WaitUntilReady+0x30>
		{
			if (Endpoint_IsOUTReceived())
			  return ENDPOINT_READYWAIT_NoError;
		}

		uint8_t USB_DeviceState_LCL = USB_DeviceState;
    4d3e:	80 91 5e 23 	lds	r24, 0x235E	; 0x80235e <USB_DeviceState>

		if (USB_DeviceState_LCL == DEVICE_STATE_Unattached)
    4d42:	81 11       	cpse	r24, r1
    4d44:	05 c0       	rjmp	.+10     	; 0x4d50 <Endpoint_WaitUntilReady+0x38>
    4d46:	21 c0       	rjmp	.+66     	; 0x4d8a <Endpoint_WaitUntilReady+0x72>
	for (;;)
	{
		if (Endpoint_GetEndpointDirection() == ENDPOINT_DIR_IN)
		{
			if (Endpoint_IsINReady())
			  return ENDPOINT_READYWAIT_NoError;
    4d48:	80 e0       	ldi	r24, 0x00	; 0
    4d4a:	24 c0       	rjmp	.+72     	; 0x4d94 <Endpoint_WaitUntilReady+0x7c>
		}
		else
		{
			if (Endpoint_IsOUTReceived())
    4d4c:	99 de       	rcall	.-718    	; 0x4a80 <Endpoint_IsOUTReceived>
    4d4e:	f5 cf       	rjmp	.-22     	; 0x4d3a <Endpoint_WaitUntilReady+0x22>

		uint8_t USB_DeviceState_LCL = USB_DeviceState;

		if (USB_DeviceState_LCL == DEVICE_STATE_Unattached)
		  return ENDPOINT_READYWAIT_DeviceDisconnected;
		else if (USB_DeviceState_LCL == DEVICE_STATE_Suspended)
    4d50:	85 30       	cpi	r24, 0x05	; 5
    4d52:	e9 f0       	breq	.+58     	; 0x4d8e <Endpoint_WaitUntilReady+0x76>
			 *  \return Boolean \c true if the currently selected endpoint is stalled, \c false otherwise.
			 */
			static inline bool Endpoint_IsStalled(void) ATTR_WARN_UNUSED_RESULT ATTR_ALWAYS_INLINE;
			static inline bool Endpoint_IsStalled(void)
			{
				return ((USB_Endpoint_SelectedHandle->CTRL & USB_EP_STALL_bm) ? true : false);
    4d54:	e0 91 69 23 	lds	r30, 0x2369	; 0x802369 <USB_Endpoint_SelectedHandle>
    4d58:	f0 91 6a 23 	lds	r31, 0x236A	; 0x80236a <USB_Endpoint_SelectedHandle+0x1>
    4d5c:	81 81       	ldd	r24, Z+1	; 0x01
		  return ENDPOINT_READYWAIT_BusSuspended;
		else if (Endpoint_IsStalled())
    4d5e:	82 fd       	sbrc	r24, 2
    4d60:	18 c0       	rjmp	.+48     	; 0x4d92 <Endpoint_WaitUntilReady+0x7a>
    4d62:	e0 91 c6 04 	lds	r30, 0x04C6	; 0x8004c6 <__TEXT_REGION_LENGTH__+0x7004c6>
    4d66:	f0 91 c7 04 	lds	r31, 0x04C7	; 0x8004c7 <__TEXT_REGION_LENGTH__+0x7004c7>
    4d6a:	e0 5a       	subi	r30, 0xA0	; 160
    4d6c:	ff 4f       	sbci	r31, 0xFF	; 255
    4d6e:	80 81       	ld	r24, Z
    4d70:	91 81       	ldd	r25, Z+1	; 0x01
		  return ENDPOINT_READYWAIT_EndpointStalled;

		uint16_t CurrentFrameNumber = USB_Device_GetFrameNumber();

		if (CurrentFrameNumber != PreviousFrameNumber)
    4d72:	80 17       	cp	r24, r16
    4d74:	91 07       	cpc	r25, r17
    4d76:	e1 f2       	breq	.-72     	; 0x4d30 <Endpoint_WaitUntilReady+0x18>
		{
			PreviousFrameNumber = CurrentFrameNumber;

			if (!(TimeoutMSRem--))
    4d78:	2f ef       	ldi	r18, 0xFF	; 255
    4d7a:	2c 0f       	add	r18, r28
    4d7c:	cc 23       	and	r28, r28
    4d7e:	19 f0       	breq	.+6      	; 0x4d86 <Endpoint_WaitUntilReady+0x6e>
    4d80:	8c 01       	movw	r16, r24
    4d82:	c2 2f       	mov	r28, r18
    4d84:	d5 cf       	rjmp	.-86     	; 0x4d30 <Endpoint_WaitUntilReady+0x18>
			  return ENDPOINT_READYWAIT_Timeout;
    4d86:	84 e0       	ldi	r24, 0x04	; 4
    4d88:	05 c0       	rjmp	.+10     	; 0x4d94 <Endpoint_WaitUntilReady+0x7c>
		}

		uint8_t USB_DeviceState_LCL = USB_DeviceState;

		if (USB_DeviceState_LCL == DEVICE_STATE_Unattached)
		  return ENDPOINT_READYWAIT_DeviceDisconnected;
    4d8a:	82 e0       	ldi	r24, 0x02	; 2
    4d8c:	03 c0       	rjmp	.+6      	; 0x4d94 <Endpoint_WaitUntilReady+0x7c>
		else if (USB_DeviceState_LCL == DEVICE_STATE_Suspended)
		  return ENDPOINT_READYWAIT_BusSuspended;
    4d8e:	83 e0       	ldi	r24, 0x03	; 3
    4d90:	01 c0       	rjmp	.+2      	; 0x4d94 <Endpoint_WaitUntilReady+0x7c>
		else if (Endpoint_IsStalled())
		  return ENDPOINT_READYWAIT_EndpointStalled;
    4d92:	81 e0       	ldi	r24, 0x01	; 1

			if (!(TimeoutMSRem--))
			  return ENDPOINT_READYWAIT_Timeout;
		}
	}
}
    4d94:	cf 91       	pop	r28
    4d96:	1f 91       	pop	r17
    4d98:	0f 91       	pop	r16
    4d9a:	08 95       	ret

00004d9c <USB_Disable>:
	USB_ResetInterface();
}

void USB_Disable(void)
{
	USB_INT_DisableAllInterrupts();
    4d9c:	63 d0       	rcall	.+198    	; 0x4e64 <USB_INT_DisableAllInterrupts>
	USB_INT_ClearAllInterrupts();
    4d9e:	69 d0       	rcall	.+210    	; 0x4e72 <USB_INT_ClearAllInterrupts>
			 *  enumerating the device once attached until \ref USB_Attach() is called.
			 */
			static inline void USB_Detach(void) ATTR_ALWAYS_INLINE;
			static inline void USB_Detach(void)
			{
				USB.CTRLB &= ~USB_ATTACH_bm;
    4da0:	e0 ec       	ldi	r30, 0xC0	; 192
    4da2:	f4 e0       	ldi	r31, 0x04	; 4
    4da4:	81 81       	ldd	r24, Z+1	; 0x01
    4da6:	8e 7f       	andi	r24, 0xFE	; 254
    4da8:	81 83       	std	Z+1, r24	; 0x01
			}

			static inline void USB_Controller_Disable(void) ATTR_ALWAYS_INLINE;
			static inline void USB_Controller_Disable(void)
			{
				USB.CTRLA &= ~USB_ENABLE_bm;
    4daa:	80 81       	ld	r24, Z
    4dac:	8f 77       	andi	r24, 0x7F	; 127
    4dae:	80 83       	st	Z, r24

	USB_Detach();
	USB_Controller_Disable();

	USB_IsInitialized = false;
    4db0:	10 92 5d 23 	sts	0x235D, r1	; 0x80235d <USB_IsInitialized>
    4db4:	08 95       	ret

00004db6 <USB_ResetInterface>:
}

void USB_ResetInterface(void)
{
    4db6:	cf 93       	push	r28
    4db8:	df 93       	push	r29
	#if defined(USB_DEVICE_OPT_FULLSPEED)
	if (USB_Options & USB_DEVICE_OPT_LOWSPEED)
	  CLK.USBCTRL = (((F_USB / 6000000) - 1) << CLK_USBPSDIV_gp);
	else
	  CLK.USBCTRL = (((F_USB / 48000000) - 1) << CLK_USBPSDIV_gp);
    4dba:	e0 e4       	ldi	r30, 0x40	; 64
    4dbc:	f0 e0       	ldi	r31, 0x00	; 0
    4dbe:	14 82       	std	Z+4, r1	; 0x04
	#else
	CLK.USBCTRL = (((F_USB / 6000000) - 1) << CLK_USBPSDIV_gp);
	#endif

	if (USB_Options & USB_OPT_PLLCLKSRC)
	  CLK.USBCTRL |= (CLK_USBSRC_PLL_gc   | CLK_USBSEN_bm);
    4dc0:	84 81       	ldd	r24, Z+4	; 0x04
    4dc2:	81 60       	ori	r24, 0x01	; 1
    4dc4:	84 83       	std	Z+4, r24	; 0x04
	else
	  CLK.USBCTRL |= (CLK_USBSRC_RC32M_gc | CLK_USBSEN_bm);

	USB_Device_SetDeviceAddress(0);

	USB_INT_DisableAllInterrupts();
    4dc6:	4e d0       	rcall	.+156    	; 0x4e64 <USB_INT_DisableAllInterrupts>
	USB_INT_ClearAllInterrupts();
    4dc8:	54 d0       	rcall	.+168    	; 0x4e72 <USB_INT_ClearAllInterrupts>
			}

			static inline void USB_Controller_Reset(void) ATTR_ALWAYS_INLINE;
			static inline void USB_Controller_Reset(void)
			{
				USB.CTRLA &= ~USB_ENABLE_bm;
    4dca:	c0 ec       	ldi	r28, 0xC0	; 192
    4dcc:	d4 e0       	ldi	r29, 0x04	; 4
    4dce:	88 81       	ld	r24, Y
    4dd0:	8f 77       	andi	r24, 0x7F	; 127
    4dd2:	88 83       	st	Y, r24
				USB.CTRLA |=  USB_ENABLE_bm;
    4dd4:	88 81       	ld	r24, Y
    4dd6:	80 68       	ori	r24, 0x80	; 128
    4dd8:	88 83       	st	Y, r24
}

#if defined(USB_CAN_BE_DEVICE)
static void USB_Init_Device(void)
{
	USB_DeviceState                 = DEVICE_STATE_Unattached;
    4dda:	10 92 5e 23 	sts	0x235E, r1	; 0x80235e <USB_DeviceState>
	USB_Device_ConfigurationNumber  = 0;
    4dde:	10 92 5a 23 	sts	0x235A, r1	; 0x80235a <USB_Device_ConfigurationNumber>

	#if !defined(NO_DEVICE_REMOTE_WAKEUP)
	USB_Device_RemoteWakeupEnabled  = false;
    4de2:	10 92 5c 23 	sts	0x235C, r1	; 0x80235c <USB_Device_RemoteWakeupEnabled>
	#endif

	#if !defined(NO_DEVICE_SELF_POWER)
	USB_Device_CurrentlySelfPowered = false;
    4de6:	10 92 5b 23 	sts	0x235B, r1	; 0x80235b <USB_Device_CurrentlySelfPowered>
			}

			static inline void USB_Device_SetFullSpeed(void) ATTR_ALWAYS_INLINE;
			static inline void USB_Device_SetFullSpeed(void)
			{
				USB.CTRLA |=  USB_SPEED_bm;
    4dea:	88 81       	ld	r24, Y
    4dec:	80 64       	ori	r24, 0x40	; 64
    4dee:	88 83       	st	Y, r24
						EPConfigMask |= USB_EP_TYPE_BULK_gc;
						break;
				}

				if (Type == EP_TYPE_CONTROL)
				  Endpoint_ConfigureEndpoint_PRV(Address ^ ENDPOINT_DIR_IN, EPConfigMask, Size);
    4df0:	48 e0       	ldi	r20, 0x08	; 8
    4df2:	68 e4       	ldi	r22, 0x48	; 72
    4df4:	80 e8       	ldi	r24, 0x80	; 128
    4df6:	bf de       	rcall	.-642    	; 0x4b76 <Endpoint_ConfigureEndpoint_PRV>

				return Endpoint_ConfigureEndpoint_PRV(Address, EPConfigMask, Size);
    4df8:	48 e0       	ldi	r20, 0x08	; 8
    4dfa:	68 e4       	ldi	r22, 0x48	; 72
    4dfc:	80 e0       	ldi	r24, 0x00	; 0
    4dfe:	bb de       	rcall	.-650    	; 0x4b76 <Endpoint_ConfigureEndpoint_PRV>
			static inline void USB_INT_Enable(const uint8_t Interrupt)
			{
				switch (Interrupt)
				{
					case USB_INT_BUSEVENTI:
						USB.INTCTRLA |= USB_BUSEVIE_bm;
    4e00:	88 85       	ldd	r24, Y+8	; 0x08
    4e02:	80 64       	ori	r24, 0x40	; 64
    4e04:	88 87       	std	Y+8, r24	; 0x08
			 *  register and despite the datasheet making no mention of its requirement in host mode.
			 */
			static inline void USB_Attach(void) ATTR_ALWAYS_INLINE;
			static inline void USB_Attach(void)
			{
				USB.CTRLB |= USB_ATTACH_bm;
    4e06:	89 81       	ldd	r24, Y+1	; 0x01
    4e08:	81 60       	ori	r24, 0x01	; 1
    4e0a:	89 83       	std	Y+1, r24	; 0x01
	USB_INT_DisableAllInterrupts();
	USB_INT_ClearAllInterrupts();

	USB_Controller_Reset();
	USB_Init_Device();
}
    4e0c:	df 91       	pop	r29
    4e0e:	cf 91       	pop	r28
    4e10:	08 95       	ret

00004e12 <USB_Init>:

               #if !defined(USE_STATIC_OPTIONS)
               const uint8_t Options
               #endif
               )
{
    4e12:	cf 93       	push	r28
    4e14:	df 93       	push	r29
				#if (ARCH == ARCH_AVR8)
				return SREG;
				#elif (ARCH == ARCH_UC3)
				return __builtin_mfsr(AVR32_SR);
				#elif (ARCH == ARCH_XMEGA)
				return SREG;
    4e16:	3f b7       	in	r19, 0x3f	; 63
				#if (ARCH == ARCH_AVR8)
				cli();
				#elif (ARCH == ARCH_UC3)
				__builtin_ssrf(AVR32_SR_GM_OFFSET);
				#elif (ARCH == ARCH_XMEGA)
				cli();
    4e18:	f8 94       	cli
	#endif

	uint_reg_t CurrentGlobalInt = GetGlobalInterruptMask();
	GlobalInterruptDisable();

	NVM.CMD  = NVM_CMD_READ_CALIB_ROW_gc;
    4e1a:	c0 ec       	ldi	r28, 0xC0	; 192
    4e1c:	d1 e0       	ldi	r29, 0x01	; 1
    4e1e:	22 e0       	ldi	r18, 0x02	; 2
    4e20:	2a 87       	std	Y+10, r18	; 0x0a
	USB.CAL0 = pgm_read_byte(offsetof(NVM_PROD_SIGNATURES_t, USBCAL0));
    4e22:	ea e1       	ldi	r30, 0x1A	; 26
    4e24:	f0 e0       	ldi	r31, 0x00	; 0
    4e26:	e4 91       	lpm	r30, Z
    4e28:	a0 ec       	ldi	r26, 0xC0	; 192
    4e2a:	b4 e0       	ldi	r27, 0x04	; 4
    4e2c:	da 96       	adiw	r26, 0x3a	; 58
    4e2e:	ec 93       	st	X, r30
    4e30:	da 97       	sbiw	r26, 0x3a	; 58
	USB.CAL1 = pgm_read_byte(offsetof(NVM_PROD_SIGNATURES_t, USBCAL1));
    4e32:	eb e1       	ldi	r30, 0x1B	; 27
    4e34:	f0 e0       	ldi	r31, 0x00	; 0
    4e36:	e4 91       	lpm	r30, Z
    4e38:	db 96       	adiw	r26, 0x3b	; 59
    4e3a:	ec 93       	st	X, r30
    4e3c:	db 97       	sbiw	r26, 0x3b	; 59
	NVM.CMD  = NVM_CMD_NO_OPERATION_gc;
    4e3e:	1a 86       	std	Y+10, r1	; 0x0a

	/* Ugly workaround to ensure an aligned table, since __BIGGEST_ALIGNMENT__ == 1 for the 8-bit AVR-GCC toolchain */
	USB.EPPTR = ((intptr_t)&USB_EndpointTable[1] & ~(1 << 0));
    4e40:	85 e8       	ldi	r24, 0x85	; 133
    4e42:	96 e2       	ldi	r25, 0x26	; 38
    4e44:	8e 7f       	andi	r24, 0xFE	; 254
    4e46:	16 96       	adiw	r26, 0x06	; 6
    4e48:	8d 93       	st	X+, r24
    4e4a:	9c 93       	st	X, r25
    4e4c:	17 97       	sbiw	r26, 0x07	; 7
	USB.CTRLA = (USB_STFRNUM_bm | ((ENDPOINT_TOTAL_ENDPOINTS - 1) << USB_MAXEP_gp));
    4e4e:	85 e1       	ldi	r24, 0x15	; 21
    4e50:	8c 93       	st	X, r24

	if ((USB_Options & USB_OPT_BUSEVENT_PRIHIGH) == USB_OPT_BUSEVENT_PRIHIGH)
	  USB.INTCTRLA = (3 << USB_INTLVL_gp);
	else if ((USB_Options & USB_OPT_BUSEVENT_PRIMED) == USB_OPT_BUSEVENT_PRIMED)
	  USB.INTCTRLA = (2 << USB_INTLVL_gp);
    4e52:	18 96       	adiw	r26, 0x08	; 8
    4e54:	2c 93       	st	X, r18
				if (GlobalIntState & AVR32_SR_GM)
				  __builtin_ssrf(AVR32_SR_GM_OFFSET);
				else
				  __builtin_csrf(AVR32_SR_GM_OFFSET);
				#elif (ARCH == ARCH_XMEGA)
				SREG = GlobalIntState;
    4e56:	3f bf       	out	0x3f, r19	; 63

	#if defined(USB_CAN_BE_BOTH)
	USB_CurrentMode = Mode;
	#endif

	USB_IsInitialized = true;
    4e58:	81 e0       	ldi	r24, 0x01	; 1
    4e5a:	80 93 5d 23 	sts	0x235D, r24	; 0x80235d <USB_IsInitialized>

	USB_ResetInterface();
}
    4e5e:	df 91       	pop	r29
    4e60:	cf 91       	pop	r28
	USB_CurrentMode = Mode;
	#endif

	USB_IsInitialized = true;

	USB_ResetInterface();
    4e62:	a9 cf       	rjmp	.-174    	; 0x4db6 <USB_ResetInterface>

00004e64 <USB_INT_DisableAllInterrupts>:
#define  __INCLUDE_FROM_USB_DRIVER
#include "../USBInterrupt.h"

void USB_INT_DisableAllInterrupts(void)
{
	USB.INTCTRLA    &= USB_INTLVL_gm;
    4e64:	e0 ec       	ldi	r30, 0xC0	; 192
    4e66:	f4 e0       	ldi	r31, 0x04	; 4
    4e68:	80 85       	ldd	r24, Z+8	; 0x08
    4e6a:	83 70       	andi	r24, 0x03	; 3
    4e6c:	80 87       	std	Z+8, r24	; 0x08
	USB.INTCTRLB     = 0;
    4e6e:	11 86       	std	Z+9, r1	; 0x09
    4e70:	08 95       	ret

00004e72 <USB_INT_ClearAllInterrupts>:
}

void USB_INT_ClearAllInterrupts(void)
{
	USB.INTFLAGSACLR = 0xFF;
    4e72:	e0 ec       	ldi	r30, 0xC0	; 192
    4e74:	f4 e0       	ldi	r31, 0x04	; 4
    4e76:	8f ef       	ldi	r24, 0xFF	; 255
    4e78:	82 87       	std	Z+10, r24	; 0x0a
	USB.INTFLAGSBCLR = 0xFF;
    4e7a:	84 87       	std	Z+12, r24	; 0x0c
    4e7c:	08 95       	ret

00004e7e <__vector_125>:
}

ISR(USB_BUSEVENT_vect)
{
    4e7e:	1f 92       	push	r1
    4e80:	0f 92       	push	r0
    4e82:	0f b6       	in	r0, 0x3f	; 63
    4e84:	0f 92       	push	r0
    4e86:	11 24       	eor	r1, r1
    4e88:	2f 93       	push	r18
    4e8a:	3f 93       	push	r19
    4e8c:	4f 93       	push	r20
    4e8e:	5f 93       	push	r21
    4e90:	6f 93       	push	r22
    4e92:	7f 93       	push	r23
    4e94:	8f 93       	push	r24
    4e96:	9f 93       	push	r25
    4e98:	af 93       	push	r26
    4e9a:	bf 93       	push	r27
    4e9c:	ef 93       	push	r30
    4e9e:	ff 93       	push	r31
					case USB_INT_BUSEVENTI_Resume:
						return ((USB.INTFLAGSACLR & USB_RESUMEIF_bm) ? true : false);
					case USB_INT_BUSEVENTI_Reset:
						return ((USB.INTFLAGSACLR & USB_RSTIF_bm) ? true : false);
					case USB_INT_SOFI:
						return ((USB.INTFLAGSACLR & USB_SOFIF_bm) ? true : false);
    4ea0:	80 91 ca 04 	lds	r24, 0x04CA	; 0x8004ca <__TEXT_REGION_LENGTH__+0x7004ca>
	#if !defined(NO_SOF_EVENTS)
	if (USB_INT_HasOccurred(USB_INT_SOFI) && USB_INT_IsEnabled(USB_INT_SOFI))
    4ea4:	87 ff       	sbrs	r24, 7
    4ea6:	08 c0       	rjmp	.+16     	; 0x4eb8 <__vector_125+0x3a>
				switch (Interrupt)
				{
					case USB_INT_BUSEVENTI:
						return ((USB.INTCTRLA & USB_BUSEVIE_bm) ? true : false);
					case USB_INT_SOFI:
						return ((USB.INTCTRLA & USB_SOFIE_bm) ? true : false);
    4ea8:	80 91 c8 04 	lds	r24, 0x04C8	; 0x8004c8 <__TEXT_REGION_LENGTH__+0x7004c8>
    4eac:	87 ff       	sbrs	r24, 7
    4eae:	04 c0       	rjmp	.+8      	; 0x4eb8 <__vector_125+0x3a>
						break;
					case USB_INT_BUSEVENTI_Reset:
						USB.INTFLAGSACLR = USB_RSTIF_bm;
						break;
					case USB_INT_SOFI:
						USB.INTFLAGSACLR = USB_SOFIF_bm;
    4eb0:	80 e8       	ldi	r24, 0x80	; 128
    4eb2:	80 93 ca 04 	sts	0x04CA, r24	; 0x8004ca <__TEXT_REGION_LENGTH__+0x7004ca>
	{
		USB_INT_Clear(USB_INT_SOFI);

		EVENT_USB_Device_StartOfFrame();
    4eb6:	08 dc       	rcall	.-2032   	; 0x46c8 <USB_Event_Stub>
			static inline bool USB_INT_HasOccurred(const uint8_t Interrupt)
			{
				switch (Interrupt)
				{
					case USB_INT_BUSEVENTI_Suspend:
						return ((USB.INTFLAGSACLR & USB_SUSPENDIF_bm) ? true : false);
    4eb8:	80 91 ca 04 	lds	r24, 0x04CA	; 0x8004ca <__TEXT_REGION_LENGTH__+0x7004ca>
	}
	#endif

	if (USB_INT_HasOccurred(USB_INT_BUSEVENTI_Suspend))
    4ebc:	86 ff       	sbrs	r24, 6
    4ebe:	07 c0       	rjmp	.+14     	; 0x4ece <__vector_125+0x50>
			static inline void USB_INT_Clear(const uint8_t Interrupt)
			{
				switch (Interrupt)
				{
					case USB_INT_BUSEVENTI_Suspend:
						USB.INTFLAGSACLR = USB_SUSPENDIF_bm;
    4ec0:	80 e4       	ldi	r24, 0x40	; 64
    4ec2:	80 93 ca 04 	sts	0x04CA, r24	; 0x8004ca <__TEXT_REGION_LENGTH__+0x7004ca>
	{
		USB_INT_Clear(USB_INT_BUSEVENTI_Suspend);

		#if !defined(NO_LIMITED_CONTROLLER_CONNECT)
		USB_DeviceState = DEVICE_STATE_Unattached;
    4ec6:	10 92 5e 23 	sts	0x235E, r1	; 0x80235e <USB_DeviceState>
		EVENT_USB_Device_Disconnect();
    4eca:	0e 94 98 0d 	call	0x1b30	; 0x1b30 <EVENT_USB_Device_Disconnect>
				switch (Interrupt)
				{
					case USB_INT_BUSEVENTI_Suspend:
						return ((USB.INTFLAGSACLR & USB_SUSPENDIF_bm) ? true : false);
					case USB_INT_BUSEVENTI_Resume:
						return ((USB.INTFLAGSACLR & USB_RESUMEIF_bm) ? true : false);
    4ece:	80 91 ca 04 	lds	r24, 0x04CA	; 0x8004ca <__TEXT_REGION_LENGTH__+0x7004ca>
		USB_DeviceState = DEVICE_STATE_Suspended;
		EVENT_USB_Device_Suspend();
		#endif
	}

	if (USB_INT_HasOccurred(USB_INT_BUSEVENTI_Resume))
    4ed2:	85 ff       	sbrs	r24, 5
    4ed4:	14 c0       	rjmp	.+40     	; 0x4efe <__vector_125+0x80>
				{
					case USB_INT_BUSEVENTI_Suspend:
						USB.INTFLAGSACLR = USB_SUSPENDIF_bm;
						break;
					case USB_INT_BUSEVENTI_Resume:
						USB.INTFLAGSACLR = USB_RESUMEIF_bm;
    4ed6:	80 e2       	ldi	r24, 0x20	; 32
    4ed8:	80 93 ca 04 	sts	0x04CA, r24	; 0x8004ca <__TEXT_REGION_LENGTH__+0x7004ca>
	{
		USB_INT_Clear(USB_INT_BUSEVENTI_Resume);

		if (USB_Device_ConfigurationNumber)
    4edc:	80 91 5a 23 	lds	r24, 0x235A	; 0x80235a <USB_Device_ConfigurationNumber>
    4ee0:	88 23       	and	r24, r24
    4ee2:	11 f0       	breq	.+4      	; 0x4ee8 <__vector_125+0x6a>
		  USB_DeviceState = DEVICE_STATE_Configured;
    4ee4:	84 e0       	ldi	r24, 0x04	; 4
    4ee6:	07 c0       	rjmp	.+14     	; 0x4ef6 <__vector_125+0x78>
			}

			static inline bool USB_Device_IsAddressSet(void) ATTR_ALWAYS_INLINE ATTR_WARN_UNUSED_RESULT;
			static inline bool USB_Device_IsAddressSet(void)
			{
				return ((USB.ADDR != 0) ? true : false);
    4ee8:	80 91 c3 04 	lds	r24, 0x04C3	; 0x8004c3 <__TEXT_REGION_LENGTH__+0x7004c3>
		else
		  USB_DeviceState = (USB_Device_IsAddressSet()) ? DEVICE_STATE_Addressed : DEVICE_STATE_Powered;
    4eec:	81 11       	cpse	r24, r1
    4eee:	02 c0       	rjmp	.+4      	; 0x4ef4 <__vector_125+0x76>
    4ef0:	81 e0       	ldi	r24, 0x01	; 1
    4ef2:	01 c0       	rjmp	.+2      	; 0x4ef6 <__vector_125+0x78>
    4ef4:	83 e0       	ldi	r24, 0x03	; 3
    4ef6:	80 93 5e 23 	sts	0x235E, r24	; 0x80235e <USB_DeviceState>

		#if !defined(NO_LIMITED_CONTROLLER_CONNECT)
		EVENT_USB_Device_Connect();
    4efa:	0e 94 97 0d 	call	0x1b2e	; 0x1b2e <EVENT_USB_Device_Connect>
					case USB_INT_BUSEVENTI_Suspend:
						return ((USB.INTFLAGSACLR & USB_SUSPENDIF_bm) ? true : false);
					case USB_INT_BUSEVENTI_Resume:
						return ((USB.INTFLAGSACLR & USB_RESUMEIF_bm) ? true : false);
					case USB_INT_BUSEVENTI_Reset:
						return ((USB.INTFLAGSACLR & USB_RSTIF_bm) ? true : false);
    4efe:	80 91 ca 04 	lds	r24, 0x04CA	; 0x8004ca <__TEXT_REGION_LENGTH__+0x7004ca>
		#else
		EVENT_USB_Device_WakeUp();
		#endif
	}

	if (USB_INT_HasOccurred(USB_INT_BUSEVENTI_Reset))
    4f02:	84 ff       	sbrs	r24, 4
    4f04:	14 c0       	rjmp	.+40     	; 0x4f2e <__vector_125+0xb0>
						break;
					case USB_INT_BUSEVENTI_Resume:
						USB.INTFLAGSACLR = USB_RESUMEIF_bm;
						break;
					case USB_INT_BUSEVENTI_Reset:
						USB.INTFLAGSACLR = USB_RSTIF_bm;
    4f06:	80 e1       	ldi	r24, 0x10	; 16
    4f08:	80 93 ca 04 	sts	0x04CA, r24	; 0x8004ca <__TEXT_REGION_LENGTH__+0x7004ca>
	{
		USB_INT_Clear(USB_INT_BUSEVENTI_Reset);

		USB_DeviceState                = DEVICE_STATE_Default;
    4f0c:	82 e0       	ldi	r24, 0x02	; 2
    4f0e:	80 93 5e 23 	sts	0x235E, r24	; 0x80235e <USB_DeviceState>
		USB_Device_ConfigurationNumber = 0;
    4f12:	10 92 5a 23 	sts	0x235A, r1	; 0x80235a <USB_Device_ConfigurationNumber>
			}

			static inline void USB_Device_EnableDeviceAddress(const uint8_t Address) ATTR_ALWAYS_INLINE;
			static inline void USB_Device_EnableDeviceAddress(const uint8_t Address)
			{
				USB.ADDR = Address;
    4f16:	10 92 c3 04 	sts	0x04C3, r1	; 0x8004c3 <__TEXT_REGION_LENGTH__+0x7004c3>

		USB_Device_EnableDeviceAddress(0);

		Endpoint_ClearEndpoints();
    4f1a:	cc de       	rcall	.-616    	; 0x4cb4 <Endpoint_ClearEndpoints>
						EPConfigMask |= USB_EP_TYPE_BULK_gc;
						break;
				}

				if (Type == EP_TYPE_CONTROL)
				  Endpoint_ConfigureEndpoint_PRV(Address ^ ENDPOINT_DIR_IN, EPConfigMask, Size);
    4f1c:	48 e0       	ldi	r20, 0x08	; 8
    4f1e:	68 e4       	ldi	r22, 0x48	; 72
    4f20:	80 e8       	ldi	r24, 0x80	; 128
    4f22:	29 de       	rcall	.-942    	; 0x4b76 <Endpoint_ConfigureEndpoint_PRV>

				return Endpoint_ConfigureEndpoint_PRV(Address, EPConfigMask, Size);
    4f24:	48 e0       	ldi	r20, 0x08	; 8
    4f26:	68 e4       	ldi	r22, 0x48	; 72
    4f28:	80 e0       	ldi	r24, 0x00	; 0
    4f2a:	25 de       	rcall	.-950    	; 0x4b76 <Endpoint_ConfigureEndpoint_PRV>
		Endpoint_ConfigureEndpoint(ENDPOINT_CONTROLEP, EP_TYPE_CONTROL,
		                           USB_Device_ControlEndpointSize, 1);

		EVENT_USB_Device_Reset();
    4f2c:	cd db       	rcall	.-2150   	; 0x46c8 <USB_Event_Stub>
	}
}
    4f2e:	ff 91       	pop	r31
    4f30:	ef 91       	pop	r30
    4f32:	bf 91       	pop	r27
    4f34:	af 91       	pop	r26
    4f36:	9f 91       	pop	r25
    4f38:	8f 91       	pop	r24
    4f3a:	7f 91       	pop	r23
    4f3c:	6f 91       	pop	r22
    4f3e:	5f 91       	pop	r21
    4f40:	4f 91       	pop	r20
    4f42:	3f 91       	pop	r19
    4f44:	2f 91       	pop	r18
    4f46:	0f 90       	pop	r0
    4f48:	0f be       	out	0x3f, r0	; 63
    4f4a:	0f 90       	pop	r0
    4f4c:	1f 90       	pop	r1
    4f4e:	18 95       	reti

00004f50 <CDC_Device_ConfigureEndpoints>:

void CDC_Device_CreateBlockingStream(USB_ClassInfo_CDC_Device_t* const CDCInterfaceInfo,
                                     FILE* const Stream)
{
	*Stream = (FILE)FDEV_SETUP_STREAM(CDC_Device_putchar, CDC_Device_getchar_Blocking, _FDEV_SETUP_RW);
	fdev_set_udata(Stream, CDCInterfaceInfo);
    4f50:	cf 93       	push	r28
    4f52:	df 93       	push	r29
    4f54:	ec 01       	movw	r28, r24
    4f56:	fc 01       	movw	r30, r24
    4f58:	70 96       	adiw	r30, 0x10	; 16
    4f5a:	8b e0       	ldi	r24, 0x0B	; 11
    4f5c:	df 01       	movw	r26, r30
    4f5e:	1d 92       	st	X+, r1
    4f60:	8a 95       	dec	r24
    4f62:	e9 f7       	brne	.-6      	; 0x4f5e <CDC_Device_ConfigureEndpoints+0xe>
    4f64:	82 e0       	ldi	r24, 0x02	; 2
    4f66:	8c 83       	std	Y+4, r24	; 0x04
    4f68:	89 87       	std	Y+9, r24	; 0x09
    4f6a:	83 e0       	ldi	r24, 0x03	; 3
    4f6c:	8e 87       	std	Y+14, r24	; 0x0e
    4f6e:	61 e0       	ldi	r22, 0x01	; 1
    4f70:	ce 01       	movw	r24, r28
    4f72:	01 96       	adiw	r24, 0x01	; 1
    4f74:	3c de       	rcall	.-904    	; 0x4bee <Endpoint_ConfigureEndpointTable>
    4f76:	88 23       	and	r24, r24
    4f78:	61 f0       	breq	.+24     	; 0x4f92 <CDC_Device_ConfigureEndpoints+0x42>
    4f7a:	61 e0       	ldi	r22, 0x01	; 1
    4f7c:	ce 01       	movw	r24, r28
    4f7e:	06 96       	adiw	r24, 0x06	; 6
    4f80:	36 de       	rcall	.-916    	; 0x4bee <Endpoint_ConfigureEndpointTable>
    4f82:	88 23       	and	r24, r24
    4f84:	31 f0       	breq	.+12     	; 0x4f92 <CDC_Device_ConfigureEndpoints+0x42>
    4f86:	61 e0       	ldi	r22, 0x01	; 1
    4f88:	ce 01       	movw	r24, r28
    4f8a:	0b 96       	adiw	r24, 0x0b	; 11
    4f8c:	df 91       	pop	r29
    4f8e:	cf 91       	pop	r28
    4f90:	2e ce       	rjmp	.-932    	; 0x4bee <Endpoint_ConfigureEndpointTable>
    4f92:	80 e0       	ldi	r24, 0x00	; 0
    4f94:	df 91       	pop	r29
    4f96:	cf 91       	pop	r28
    4f98:	08 95       	ret

00004f9a <CDC_Device_SendString>:
    4f9a:	0f 93       	push	r16
    4f9c:	1f 93       	push	r17
    4f9e:	cf 93       	push	r28
    4fa0:	df 93       	push	r29
    4fa2:	20 91 5e 23 	lds	r18, 0x235E	; 0x80235e <USB_DeviceState>
    4fa6:	24 30       	cpi	r18, 0x04	; 4
    4fa8:	e1 f4       	brne	.+56     	; 0x4fe2 <CDC_Device_SendString+0x48>
    4faa:	fc 01       	movw	r30, r24
    4fac:	04 89       	ldd	r16, Z+20	; 0x14
    4fae:	15 89       	ldd	r17, Z+21	; 0x15
    4fb0:	26 89       	ldd	r18, Z+22	; 0x16
    4fb2:	37 89       	ldd	r19, Z+23	; 0x17
    4fb4:	01 2b       	or	r16, r17
    4fb6:	02 2b       	or	r16, r18
    4fb8:	03 2b       	or	r16, r19
    4fba:	99 f0       	breq	.+38     	; 0x4fe2 <CDC_Device_SendString+0x48>
    4fbc:	eb 01       	movw	r28, r22
    4fbe:	81 81       	ldd	r24, Z+1	; 0x01
    4fc0:	1e dd       	rcall	.-1476   	; 0x49fe <Endpoint_SelectEndpoint>
    4fc2:	fe 01       	movw	r30, r28
    4fc4:	01 90       	ld	r0, Z+
    4fc6:	00 20       	and	r0, r0
    4fc8:	e9 f7       	brne	.-6      	; 0x4fc4 <CDC_Device_SendString+0x2a>
    4fca:	31 97       	sbiw	r30, 0x01	; 1
    4fcc:	bf 01       	movw	r22, r30
    4fce:	6c 1b       	sub	r22, r28
    4fd0:	7d 0b       	sbc	r23, r29
    4fd2:	40 e0       	ldi	r20, 0x00	; 0
    4fd4:	50 e0       	ldi	r21, 0x00	; 0
    4fd6:	ce 01       	movw	r24, r28
    4fd8:	df 91       	pop	r29
    4fda:	cf 91       	pop	r28
    4fdc:	1f 91       	pop	r17
    4fde:	0f 91       	pop	r16
    4fe0:	85 cb       	rjmp	.-2294   	; 0x46ec <Endpoint_Write_Stream_LE>
    4fe2:	82 e0       	ldi	r24, 0x02	; 2
    4fe4:	df 91       	pop	r29
    4fe6:	cf 91       	pop	r28
    4fe8:	1f 91       	pop	r17
    4fea:	0f 91       	pop	r16
    4fec:	08 95       	ret

00004fee <CDC_Device_SendData>:
    4fee:	0f 93       	push	r16
    4ff0:	1f 93       	push	r17
    4ff2:	cf 93       	push	r28
    4ff4:	df 93       	push	r29
    4ff6:	fc 01       	movw	r30, r24
    4ff8:	80 91 5e 23 	lds	r24, 0x235E	; 0x80235e <USB_DeviceState>
    4ffc:	84 30       	cpi	r24, 0x04	; 4
    4ffe:	a9 f4       	brne	.+42     	; 0x502a <CDC_Device_SendData+0x3c>
    5000:	84 89       	ldd	r24, Z+20	; 0x14
    5002:	95 89       	ldd	r25, Z+21	; 0x15
    5004:	a6 89       	ldd	r26, Z+22	; 0x16
    5006:	b7 89       	ldd	r27, Z+23	; 0x17
    5008:	89 2b       	or	r24, r25
    500a:	8a 2b       	or	r24, r26
    500c:	8b 2b       	or	r24, r27
    500e:	69 f0       	breq	.+26     	; 0x502a <CDC_Device_SendData+0x3c>
    5010:	8a 01       	movw	r16, r20
    5012:	eb 01       	movw	r28, r22
    5014:	81 81       	ldd	r24, Z+1	; 0x01
    5016:	f3 dc       	rcall	.-1562   	; 0x49fe <Endpoint_SelectEndpoint>
    5018:	40 e0       	ldi	r20, 0x00	; 0
    501a:	50 e0       	ldi	r21, 0x00	; 0
    501c:	b8 01       	movw	r22, r16
    501e:	ce 01       	movw	r24, r28
    5020:	df 91       	pop	r29
    5022:	cf 91       	pop	r28
    5024:	1f 91       	pop	r17
    5026:	0f 91       	pop	r16
    5028:	61 cb       	rjmp	.-2366   	; 0x46ec <Endpoint_Write_Stream_LE>
    502a:	82 e0       	ldi	r24, 0x02	; 2
    502c:	df 91       	pop	r29
    502e:	cf 91       	pop	r28
    5030:	1f 91       	pop	r17
    5032:	0f 91       	pop	r16
    5034:	08 95       	ret

00005036 <CDC_Device_SendByte>:
    5036:	cf 93       	push	r28
    5038:	fc 01       	movw	r30, r24
    503a:	80 91 5e 23 	lds	r24, 0x235E	; 0x80235e <USB_DeviceState>
    503e:	84 30       	cpi	r24, 0x04	; 4
    5040:	01 f5       	brne	.+64     	; 0x5082 <CDC_Device_SendByte+0x4c>
    5042:	84 89       	ldd	r24, Z+20	; 0x14
    5044:	95 89       	ldd	r25, Z+21	; 0x15
    5046:	a6 89       	ldd	r26, Z+22	; 0x16
    5048:	b7 89       	ldd	r27, Z+23	; 0x17
    504a:	89 2b       	or	r24, r25
    504c:	8a 2b       	or	r24, r26
    504e:	8b 2b       	or	r24, r27
    5050:	c1 f0       	breq	.+48     	; 0x5082 <CDC_Device_SendByte+0x4c>
    5052:	c6 2f       	mov	r28, r22
    5054:	81 81       	ldd	r24, Z+1	; 0x01
    5056:	d3 dc       	rcall	.-1626   	; 0x49fe <Endpoint_SelectEndpoint>
    5058:	20 91 67 23 	lds	r18, 0x2367	; 0x802367 <USB_Endpoint_SelectedFIFO>
    505c:	30 91 68 23 	lds	r19, 0x2368	; 0x802368 <USB_Endpoint_SelectedFIFO+0x1>
    5060:	f9 01       	movw	r30, r18
    5062:	ef 5b       	subi	r30, 0xBF	; 191
    5064:	ff 4f       	sbci	r31, 0xFF	; 255
    5066:	90 81       	ld	r25, Z
    5068:	31 97       	sbiw	r30, 0x01	; 1
    506a:	80 81       	ld	r24, Z
    506c:	98 17       	cp	r25, r24
    506e:	20 f4       	brcc	.+8      	; 0x5078 <CDC_Device_SendByte+0x42>
    5070:	8c 2f       	mov	r24, r28
    5072:	b5 dc       	rcall	.-1686   	; 0x49de <Endpoint_Write_8>
    5074:	80 e0       	ldi	r24, 0x00	; 0
    5076:	06 c0       	rjmp	.+12     	; 0x5084 <CDC_Device_SendByte+0x4e>
    5078:	7a dc       	rcall	.-1804   	; 0x496e <Endpoint_ClearIN>
    507a:	4e de       	rcall	.-868    	; 0x4d18 <Endpoint_WaitUntilReady>
    507c:	88 23       	and	r24, r24
    507e:	c1 f3       	breq	.-16     	; 0x5070 <CDC_Device_SendByte+0x3a>
    5080:	01 c0       	rjmp	.+2      	; 0x5084 <CDC_Device_SendByte+0x4e>
    5082:	82 e0       	ldi	r24, 0x02	; 2
    5084:	cf 91       	pop	r28
    5086:	08 95       	ret

00005088 <CDC_Device_Flush>:
    5088:	cf 93       	push	r28
    508a:	df 93       	push	r29
    508c:	20 91 5e 23 	lds	r18, 0x235E	; 0x80235e <USB_DeviceState>
    5090:	24 30       	cpi	r18, 0x04	; 4
    5092:	91 f5       	brne	.+100    	; 0x50f8 <CDC_Device_Flush+0x70>
    5094:	fc 01       	movw	r30, r24
    5096:	44 89       	ldd	r20, Z+20	; 0x14
    5098:	55 89       	ldd	r21, Z+21	; 0x15
    509a:	66 89       	ldd	r22, Z+22	; 0x16
    509c:	77 89       	ldd	r23, Z+23	; 0x17
    509e:	45 2b       	or	r20, r21
    50a0:	46 2b       	or	r20, r22
    50a2:	47 2b       	or	r20, r23
    50a4:	49 f1       	breq	.+82     	; 0x50f8 <CDC_Device_Flush+0x70>
    50a6:	81 81       	ldd	r24, Z+1	; 0x01
    50a8:	aa dc       	rcall	.-1708   	; 0x49fe <Endpoint_SelectEndpoint>
    50aa:	80 91 6b 23 	lds	r24, 0x236B	; 0x80236b <USB_Endpoint_SelectedEndpoint>
    50ae:	20 91 67 23 	lds	r18, 0x2367	; 0x802367 <USB_Endpoint_SelectedFIFO>
    50b2:	30 91 68 23 	lds	r19, 0x2368	; 0x802368 <USB_Endpoint_SelectedFIFO+0x1>
    50b6:	f9 01       	movw	r30, r18
    50b8:	87 ff       	sbrs	r24, 7
    50ba:	05 c0       	rjmp	.+10     	; 0x50c6 <CDC_Device_Flush+0x3e>
    50bc:	ef 5b       	subi	r30, 0xBF	; 191
    50be:	ff 4f       	sbci	r31, 0xFF	; 255
    50c0:	80 81       	ld	r24, Z
    50c2:	90 e0       	ldi	r25, 0x00	; 0
    50c4:	08 c0       	rjmp	.+16     	; 0x50d6 <CDC_Device_Flush+0x4e>
    50c6:	e0 5c       	subi	r30, 0xC0	; 192
    50c8:	ff 4f       	sbci	r31, 0xFF	; 255
    50ca:	80 81       	ld	r24, Z
    50cc:	31 96       	adiw	r30, 0x01	; 1
    50ce:	40 81       	ld	r20, Z
    50d0:	90 e0       	ldi	r25, 0x00	; 0
    50d2:	84 1b       	sub	r24, r20
    50d4:	91 09       	sbc	r25, r1
    50d6:	89 2b       	or	r24, r25
    50d8:	69 f0       	breq	.+26     	; 0x50f4 <CDC_Device_Flush+0x6c>
    50da:	f9 01       	movw	r30, r18
    50dc:	ef 5b       	subi	r30, 0xBF	; 191
    50de:	ff 4f       	sbci	r31, 0xFF	; 255
    50e0:	d0 81       	ld	r29, Z
    50e2:	31 97       	sbiw	r30, 0x01	; 1
    50e4:	c0 81       	ld	r28, Z
    50e6:	43 dc       	rcall	.-1914   	; 0x496e <Endpoint_ClearIN>
    50e8:	dc 17       	cp	r29, r28
    50ea:	20 f0       	brcs	.+8      	; 0x50f4 <CDC_Device_Flush+0x6c>
    50ec:	15 de       	rcall	.-982    	; 0x4d18 <Endpoint_WaitUntilReady>
    50ee:	81 11       	cpse	r24, r1
    50f0:	04 c0       	rjmp	.+8      	; 0x50fa <CDC_Device_Flush+0x72>
    50f2:	3d dc       	rcall	.-1926   	; 0x496e <Endpoint_ClearIN>
    50f4:	80 e0       	ldi	r24, 0x00	; 0
    50f6:	01 c0       	rjmp	.+2      	; 0x50fa <CDC_Device_Flush+0x72>
    50f8:	82 e0       	ldi	r24, 0x02	; 2
    50fa:	df 91       	pop	r29
    50fc:	cf 91       	pop	r28
    50fe:	08 95       	ret

00005100 <CDC_Device_USBTask>:
    5100:	cf 93       	push	r28
    5102:	df 93       	push	r29
    5104:	20 91 5e 23 	lds	r18, 0x235E	; 0x80235e <USB_DeviceState>
    5108:	24 30       	cpi	r18, 0x04	; 4
    510a:	99 f4       	brne	.+38     	; 0x5132 <CDC_Device_USBTask+0x32>
    510c:	fc 01       	movw	r30, r24
    510e:	44 89       	ldd	r20, Z+20	; 0x14
    5110:	55 89       	ldd	r21, Z+21	; 0x15
    5112:	66 89       	ldd	r22, Z+22	; 0x16
    5114:	77 89       	ldd	r23, Z+23	; 0x17
    5116:	45 2b       	or	r20, r21
    5118:	46 2b       	or	r20, r22
    511a:	47 2b       	or	r20, r23
    511c:	51 f0       	breq	.+20     	; 0x5132 <CDC_Device_USBTask+0x32>
    511e:	ec 01       	movw	r28, r24
    5120:	81 81       	ldd	r24, Z+1	; 0x01
    5122:	6d dc       	rcall	.-1830   	; 0x49fe <Endpoint_SelectEndpoint>
    5124:	a1 dc       	rcall	.-1726   	; 0x4a68 <Endpoint_IsINReady>
    5126:	88 23       	and	r24, r24
    5128:	21 f0       	breq	.+8      	; 0x5132 <CDC_Device_USBTask+0x32>
    512a:	ce 01       	movw	r24, r28
    512c:	df 91       	pop	r29
    512e:	cf 91       	pop	r28
    5130:	ab cf       	rjmp	.-170    	; 0x5088 <CDC_Device_Flush>
    5132:	df 91       	pop	r29
    5134:	cf 91       	pop	r28
    5136:	08 95       	ret

00005138 <CDC_Device_ReceiveByte>:
    5138:	cf 93       	push	r28
    513a:	df 93       	push	r29
    513c:	20 91 5e 23 	lds	r18, 0x235E	; 0x80235e <USB_DeviceState>
    5140:	24 30       	cpi	r18, 0x04	; 4
    5142:	19 f0       	breq	.+6      	; 0x514a <CDC_Device_ReceiveByte+0x12>
    5144:	8f ef       	ldi	r24, 0xFF	; 255
    5146:	9f ef       	ldi	r25, 0xFF	; 255
    5148:	46 c0       	rjmp	.+140    	; 0x51d6 <CDC_Device_ReceiveByte+0x9e>
    514a:	fc 01       	movw	r30, r24
    514c:	44 89       	ldd	r20, Z+20	; 0x14
    514e:	55 89       	ldd	r21, Z+21	; 0x15
    5150:	66 89       	ldd	r22, Z+22	; 0x16
    5152:	77 89       	ldd	r23, Z+23	; 0x17
    5154:	45 2b       	or	r20, r21
    5156:	46 2b       	or	r20, r22
    5158:	47 2b       	or	r20, r23
    515a:	a1 f3       	breq	.-24     	; 0x5144 <CDC_Device_ReceiveByte+0xc>
    515c:	86 81       	ldd	r24, Z+6	; 0x06
    515e:	4f dc       	rcall	.-1890   	; 0x49fe <Endpoint_SelectEndpoint>
    5160:	8f dc       	rcall	.-1762   	; 0x4a80 <Endpoint_IsOUTReceived>
    5162:	88 23       	and	r24, r24
    5164:	79 f3       	breq	.-34     	; 0x5144 <CDC_Device_ReceiveByte+0xc>
    5166:	80 91 6b 23 	lds	r24, 0x236B	; 0x80236b <USB_Endpoint_SelectedEndpoint>
    516a:	20 91 67 23 	lds	r18, 0x2367	; 0x802367 <USB_Endpoint_SelectedFIFO>
    516e:	30 91 68 23 	lds	r19, 0x2368	; 0x802368 <USB_Endpoint_SelectedFIFO+0x1>
    5172:	f9 01       	movw	r30, r18
    5174:	87 ff       	sbrs	r24, 7
    5176:	05 c0       	rjmp	.+10     	; 0x5182 <CDC_Device_ReceiveByte+0x4a>
    5178:	ef 5b       	subi	r30, 0xBF	; 191
    517a:	ff 4f       	sbci	r31, 0xFF	; 255
    517c:	80 81       	ld	r24, Z
    517e:	90 e0       	ldi	r25, 0x00	; 0
    5180:	08 c0       	rjmp	.+16     	; 0x5192 <CDC_Device_ReceiveByte+0x5a>
    5182:	e0 5c       	subi	r30, 0xC0	; 192
    5184:	ff 4f       	sbci	r31, 0xFF	; 255
    5186:	80 81       	ld	r24, Z
    5188:	31 96       	adiw	r30, 0x01	; 1
    518a:	20 81       	ld	r18, Z
    518c:	90 e0       	ldi	r25, 0x00	; 0
    518e:	82 1b       	sub	r24, r18
    5190:	91 09       	sbc	r25, r1
    5192:	89 2b       	or	r24, r25
    5194:	21 f0       	breq	.+8      	; 0x519e <CDC_Device_ReceiveByte+0x66>
    5196:	13 dc       	rcall	.-2010   	; 0x49be <Endpoint_Read_8>
    5198:	c8 2f       	mov	r28, r24
    519a:	d0 e0       	ldi	r29, 0x00	; 0
    519c:	02 c0       	rjmp	.+4      	; 0x51a2 <CDC_Device_ReceiveByte+0x6a>
    519e:	cf ef       	ldi	r28, 0xFF	; 255
    51a0:	df ef       	ldi	r29, 0xFF	; 255
    51a2:	20 91 6b 23 	lds	r18, 0x236B	; 0x80236b <USB_Endpoint_SelectedEndpoint>
    51a6:	80 91 67 23 	lds	r24, 0x2367	; 0x802367 <USB_Endpoint_SelectedFIFO>
    51aa:	90 91 68 23 	lds	r25, 0x2368	; 0x802368 <USB_Endpoint_SelectedFIFO+0x1>
    51ae:	fc 01       	movw	r30, r24
    51b0:	27 ff       	sbrs	r18, 7
    51b2:	05 c0       	rjmp	.+10     	; 0x51be <CDC_Device_ReceiveByte+0x86>
    51b4:	ef 5b       	subi	r30, 0xBF	; 191
    51b6:	ff 4f       	sbci	r31, 0xFF	; 255
    51b8:	20 81       	ld	r18, Z
    51ba:	30 e0       	ldi	r19, 0x00	; 0
    51bc:	08 c0       	rjmp	.+16     	; 0x51ce <CDC_Device_ReceiveByte+0x96>
    51be:	e0 5c       	subi	r30, 0xC0	; 192
    51c0:	ff 4f       	sbci	r31, 0xFF	; 255
    51c2:	20 81       	ld	r18, Z
    51c4:	31 96       	adiw	r30, 0x01	; 1
    51c6:	80 81       	ld	r24, Z
    51c8:	30 e0       	ldi	r19, 0x00	; 0
    51ca:	28 1b       	sub	r18, r24
    51cc:	31 09       	sbc	r19, r1
    51ce:	23 2b       	or	r18, r19
    51d0:	09 f4       	brne	.+2      	; 0x51d4 <CDC_Device_ReceiveByte+0x9c>
    51d2:	e6 db       	rcall	.-2100   	; 0x49a0 <Endpoint_ClearOUT>
    51d4:	ce 01       	movw	r24, r28
    51d6:	df 91       	pop	r29
    51d8:	cf 91       	pop	r28
    51da:	08 95       	ret

000051dc <CDC_Device_Event_Stub>:
	return ReceivedByte;
}
#endif

void CDC_Device_Event_Stub(void)
{
    51dc:	08 95       	ret

000051de <CDC_Device_ProcessControlRequest>:
#define  __INCLUDE_FROM_CDC_DRIVER
#define  __INCLUDE_FROM_CDC_DEVICE_C
#include "CDCClassDevice.h"

void CDC_Device_ProcessControlRequest(USB_ClassInfo_CDC_Device_t* const CDCInterfaceInfo)
{
    51de:	ff 92       	push	r15
    51e0:	0f 93       	push	r16
    51e2:	1f 93       	push	r17
    51e4:	cf 93       	push	r28
    51e6:	df 93       	push	r29
    51e8:	ec 01       	movw	r28, r24
	if (!(Endpoint_IsSETUPReceived()))
    51ea:	64 dc       	rcall	.-1848   	; 0x4ab4 <Endpoint_IsSETUPReceived>
    51ec:	88 23       	and	r24, r24
    51ee:	09 f4       	brne	.+2      	; 0x51f2 <CDC_Device_ProcessControlRequest+0x14>
    51f0:	8e c0       	rjmp	.+284    	; 0x530e <CDC_Device_ProcessControlRequest+0x130>
	  return;

	if (USB_ControlRequest.wIndex != CDCInterfaceInfo->Config.ControlInterfaceNumber)
    51f2:	88 81       	ld	r24, Y
    51f4:	90 e0       	ldi	r25, 0x00	; 0
    51f6:	20 91 63 23 	lds	r18, 0x2363	; 0x802363 <USB_ControlRequest+0x4>
    51fa:	30 91 64 23 	lds	r19, 0x2364	; 0x802364 <USB_ControlRequest+0x5>
    51fe:	28 17       	cp	r18, r24
    5200:	39 07       	cpc	r19, r25
    5202:	09 f0       	breq	.+2      	; 0x5206 <CDC_Device_ProcessControlRequest+0x28>
    5204:	84 c0       	rjmp	.+264    	; 0x530e <CDC_Device_ProcessControlRequest+0x130>
	  return;

	switch (USB_ControlRequest.bRequest)
    5206:	80 91 60 23 	lds	r24, 0x2360	; 0x802360 <USB_ControlRequest+0x1>
    520a:	81 32       	cpi	r24, 0x21	; 33
    520c:	59 f0       	breq	.+22     	; 0x5224 <CDC_Device_ProcessControlRequest+0x46>
    520e:	18 f4       	brcc	.+6      	; 0x5216 <CDC_Device_ProcessControlRequest+0x38>
    5210:	80 32       	cpi	r24, 0x20	; 32
    5212:	49 f1       	breq	.+82     	; 0x5266 <CDC_Device_ProcessControlRequest+0x88>
    5214:	7c c0       	rjmp	.+248    	; 0x530e <CDC_Device_ProcessControlRequest+0x130>
    5216:	82 32       	cpi	r24, 0x22	; 34
    5218:	09 f4       	brne	.+2      	; 0x521c <CDC_Device_ProcessControlRequest+0x3e>
    521a:	57 c0       	rjmp	.+174    	; 0x52ca <CDC_Device_ProcessControlRequest+0xec>
    521c:	83 32       	cpi	r24, 0x23	; 35
    521e:	09 f4       	brne	.+2      	; 0x5222 <CDC_Device_ProcessControlRequest+0x44>
    5220:	67 c0       	rjmp	.+206    	; 0x52f0 <CDC_Device_ProcessControlRequest+0x112>
    5222:	75 c0       	rjmp	.+234    	; 0x530e <CDC_Device_ProcessControlRequest+0x130>
	{
		case CDC_REQ_GetLineEncoding:
			if (USB_ControlRequest.bmRequestType == (REQDIR_DEVICETOHOST | REQTYPE_CLASS | REQREC_INTERFACE))
    5224:	80 91 5f 23 	lds	r24, 0x235F	; 0x80235f <USB_ControlRequest>
    5228:	81 3a       	cpi	r24, 0xA1	; 161
    522a:	09 f0       	breq	.+2      	; 0x522e <CDC_Device_ProcessControlRequest+0x50>
    522c:	70 c0       	rjmp	.+224    	; 0x530e <CDC_Device_ProcessControlRequest+0x130>
			{
				Endpoint_ClearSETUP();
    522e:	5c dc       	rcall	.-1864   	; 0x4ae8 <Endpoint_ClearSETUP>

				while (!(Endpoint_IsINReady()));
    5230:	1b dc       	rcall	.-1994   	; 0x4a68 <Endpoint_IsINReady>
    5232:	88 23       	and	r24, r24
    5234:	e9 f3       	breq	.-6      	; 0x5230 <CDC_Device_ProcessControlRequest+0x52>

				Endpoint_Write_32_LE(CDCInterfaceInfo->State.LineEncoding.BaudRateBPS);
    5236:	8c 89       	ldd	r24, Y+20	; 0x14
    5238:	fd 88       	ldd	r15, Y+21	; 0x15
    523a:	0e 89       	ldd	r16, Y+22	; 0x16
    523c:	1f 89       	ldd	r17, Y+23	; 0x17
			 *  \param[in] Data  Data to write to the currently selected endpoint's FIFO buffer.
			 */
			static inline void Endpoint_Write_32_LE(const uint32_t Data) ATTR_ALWAYS_INLINE;
			static inline void Endpoint_Write_32_LE(const uint32_t Data)
			{
				Endpoint_Write_8(Data & 0xFF);
    523e:	cf db       	rcall	.-2146   	; 0x49de <Endpoint_Write_8>
				Endpoint_Write_8(Data >> 8);
    5240:	8f 2d       	mov	r24, r15
    5242:	cd db       	rcall	.-2150   	; 0x49de <Endpoint_Write_8>
				Endpoint_Write_8(Data >> 16);
    5244:	80 2f       	mov	r24, r16
    5246:	cb db       	rcall	.-2154   	; 0x49de <Endpoint_Write_8>
				Endpoint_Write_8(Data >> 24);
    5248:	81 2f       	mov	r24, r17
    524a:	c9 db       	rcall	.-2158   	; 0x49de <Endpoint_Write_8>
				Endpoint_Write_8(CDCInterfaceInfo->State.LineEncoding.CharFormat);
    524c:	88 8d       	ldd	r24, Y+24	; 0x18
    524e:	c7 db       	rcall	.-2162   	; 0x49de <Endpoint_Write_8>
				Endpoint_Write_8(CDCInterfaceInfo->State.LineEncoding.ParityType);
    5250:	89 8d       	ldd	r24, Y+25	; 0x19
    5252:	c5 db       	rcall	.-2166   	; 0x49de <Endpoint_Write_8>
				Endpoint_Write_8(CDCInterfaceInfo->State.LineEncoding.DataBits);
    5254:	8a 8d       	ldd	r24, Y+26	; 0x1a
    5256:	c3 db       	rcall	.-2170   	; 0x49de <Endpoint_Write_8>

				Endpoint_ClearIN();
    5258:	8a db       	rcall	.-2284   	; 0x496e <Endpoint_ClearIN>
				EVENT_CDC_Device_BreakSent(CDCInterfaceInfo, (uint8_t)USB_ControlRequest.wValue);
			}

			break;
	}
}
    525a:	df 91       	pop	r29
    525c:	cf 91       	pop	r28
    525e:	1f 91       	pop	r17
    5260:	0f 91       	pop	r16
    5262:	ff 90       	pop	r15
				Endpoint_Write_8(CDCInterfaceInfo->State.LineEncoding.CharFormat);
				Endpoint_Write_8(CDCInterfaceInfo->State.LineEncoding.ParityType);
				Endpoint_Write_8(CDCInterfaceInfo->State.LineEncoding.DataBits);

				Endpoint_ClearIN();
				Endpoint_ClearStatusStage();
    5264:	43 cd       	rjmp	.-1402   	; 0x4cec <Endpoint_ClearStatusStage>
			}

			break;
		case CDC_REQ_SetLineEncoding:
			if (USB_ControlRequest.bmRequestType == (REQDIR_HOSTTODEVICE | REQTYPE_CLASS | REQREC_INTERFACE))
    5266:	80 91 5f 23 	lds	r24, 0x235F	; 0x80235f <USB_ControlRequest>
    526a:	81 32       	cpi	r24, 0x21	; 33
    526c:	09 f0       	breq	.+2      	; 0x5270 <CDC_Device_ProcessControlRequest+0x92>
    526e:	4f c0       	rjmp	.+158    	; 0x530e <CDC_Device_ProcessControlRequest+0x130>
			{
				Endpoint_ClearSETUP();
    5270:	3b dc       	rcall	.-1930   	; 0x4ae8 <Endpoint_ClearSETUP>

				while (!(Endpoint_IsOUTReceived()))
    5272:	06 dc       	rcall	.-2036   	; 0x4a80 <Endpoint_IsOUTReceived>
    5274:	81 11       	cpse	r24, r1
    5276:	05 c0       	rjmp	.+10     	; 0x5282 <CDC_Device_ProcessControlRequest+0xa4>
				{
					if (USB_DeviceState == DEVICE_STATE_Unattached)
    5278:	80 91 5e 23 	lds	r24, 0x235E	; 0x80235e <USB_DeviceState>
    527c:	81 11       	cpse	r24, r1
    527e:	f9 cf       	rjmp	.-14     	; 0x5272 <CDC_Device_ProcessControlRequest+0x94>
    5280:	46 c0       	rjmp	.+140    	; 0x530e <CDC_Device_ProcessControlRequest+0x130>
			 *  \return Next four bytes in the currently selected endpoint's FIFO buffer.
			 */
			static inline uint32_t Endpoint_Read_32_LE(void) ATTR_WARN_UNUSED_RESULT ATTR_ALWAYS_INLINE;
			static inline uint32_t Endpoint_Read_32_LE(void)
			{
				uint32_t Byte0 = Endpoint_Read_8();
    5282:	9d db       	rcall	.-2246   	; 0x49be <Endpoint_Read_8>
    5284:	08 2f       	mov	r16, r24
				uint32_t Byte1 = Endpoint_Read_8();
    5286:	9b db       	rcall	.-2250   	; 0x49be <Endpoint_Read_8>
    5288:	18 2f       	mov	r17, r24
				uint32_t Byte2 = Endpoint_Read_8();
    528a:	99 db       	rcall	.-2254   	; 0x49be <Endpoint_Read_8>
    528c:	f8 2e       	mov	r15, r24
				uint32_t Byte3 = Endpoint_Read_8();
    528e:	97 db       	rcall	.-2258   	; 0x49be <Endpoint_Read_8>
			static inline uint32_t Endpoint_Read_32_LE(void) ATTR_WARN_UNUSED_RESULT ATTR_ALWAYS_INLINE;
			static inline uint32_t Endpoint_Read_32_LE(void)
			{
				uint32_t Byte0 = Endpoint_Read_8();
				uint32_t Byte1 = Endpoint_Read_8();
				uint32_t Byte2 = Endpoint_Read_8();
    5290:	4f 2d       	mov	r20, r15
    5292:	50 e0       	ldi	r21, 0x00	; 0
    5294:	60 e0       	ldi	r22, 0x00	; 0
    5296:	70 e0       	ldi	r23, 0x00	; 0
				uint32_t Byte3 = Endpoint_Read_8();

				return ((Byte3 << 24) | (Byte2 << 16) | (Byte1 << 8) | Byte0);
    5298:	ba 01       	movw	r22, r20
    529a:	55 27       	eor	r21, r21
    529c:	44 27       	eor	r20, r20
    529e:	78 2b       	or	r23, r24
    52a0:	40 2b       	or	r20, r16
    52a2:	51 2b       	or	r21, r17
					  return;
				}

				CDCInterfaceInfo->State.LineEncoding.BaudRateBPS = Endpoint_Read_32_LE();
    52a4:	4c 8b       	std	Y+20, r20	; 0x14
    52a6:	5d 8b       	std	Y+21, r21	; 0x15
    52a8:	6e 8b       	std	Y+22, r22	; 0x16
    52aa:	7f 8b       	std	Y+23, r23	; 0x17
				CDCInterfaceInfo->State.LineEncoding.CharFormat  = Endpoint_Read_8();
    52ac:	88 db       	rcall	.-2288   	; 0x49be <Endpoint_Read_8>
    52ae:	88 8f       	std	Y+24, r24	; 0x18
				CDCInterfaceInfo->State.LineEncoding.ParityType  = Endpoint_Read_8();
    52b0:	86 db       	rcall	.-2292   	; 0x49be <Endpoint_Read_8>
    52b2:	89 8f       	std	Y+25, r24	; 0x19
				CDCInterfaceInfo->State.LineEncoding.DataBits    = Endpoint_Read_8();
    52b4:	84 db       	rcall	.-2296   	; 0x49be <Endpoint_Read_8>
    52b6:	8a 8f       	std	Y+26, r24	; 0x1a

				Endpoint_ClearOUT();
    52b8:	73 db       	rcall	.-2330   	; 0x49a0 <Endpoint_ClearOUT>
				Endpoint_ClearStatusStage();
    52ba:	18 dd       	rcall	.-1488   	; 0x4cec <Endpoint_ClearStatusStage>

				EVENT_CDC_Device_LineEncodingChanged(CDCInterfaceInfo);
    52bc:	ce 01       	movw	r24, r28
				EVENT_CDC_Device_BreakSent(CDCInterfaceInfo, (uint8_t)USB_ControlRequest.wValue);
			}

			break;
	}
}
    52be:	df 91       	pop	r29
    52c0:	cf 91       	pop	r28
    52c2:	1f 91       	pop	r17
    52c4:	0f 91       	pop	r16
    52c6:	ff 90       	pop	r15
				CDCInterfaceInfo->State.LineEncoding.DataBits    = Endpoint_Read_8();

				Endpoint_ClearOUT();
				Endpoint_ClearStatusStage();

				EVENT_CDC_Device_LineEncodingChanged(CDCInterfaceInfo);
    52c8:	89 cf       	rjmp	.-238    	; 0x51dc <CDC_Device_Event_Stub>
			}

			break;
		case CDC_REQ_SetControlLineState:
			if (USB_ControlRequest.bmRequestType == (REQDIR_HOSTTODEVICE | REQTYPE_CLASS | REQREC_INTERFACE))
    52ca:	80 91 5f 23 	lds	r24, 0x235F	; 0x80235f <USB_ControlRequest>
    52ce:	81 32       	cpi	r24, 0x21	; 33
    52d0:	f1 f4       	brne	.+60     	; 0x530e <CDC_Device_ProcessControlRequest+0x130>
			{
				Endpoint_ClearSETUP();
    52d2:	0a dc       	rcall	.-2028   	; 0x4ae8 <Endpoint_ClearSETUP>
				Endpoint_ClearStatusStage();
    52d4:	0b dd       	rcall	.-1514   	; 0x4cec <Endpoint_ClearStatusStage>

				CDCInterfaceInfo->State.ControlLineStates.HostToDevice = USB_ControlRequest.wValue;
    52d6:	80 91 61 23 	lds	r24, 0x2361	; 0x802361 <USB_ControlRequest+0x2>
    52da:	90 91 62 23 	lds	r25, 0x2362	; 0x802362 <USB_ControlRequest+0x3>
    52de:	88 8b       	std	Y+16, r24	; 0x10
    52e0:	99 8b       	std	Y+17, r25	; 0x11

				EVENT_CDC_Device_ControLineStateChanged(CDCInterfaceInfo);
    52e2:	ce 01       	movw	r24, r28
				EVENT_CDC_Device_BreakSent(CDCInterfaceInfo, (uint8_t)USB_ControlRequest.wValue);
			}

			break;
	}
}
    52e4:	df 91       	pop	r29
    52e6:	cf 91       	pop	r28
    52e8:	1f 91       	pop	r17
    52ea:	0f 91       	pop	r16
    52ec:	ff 90       	pop	r15
				Endpoint_ClearSETUP();
				Endpoint_ClearStatusStage();

				CDCInterfaceInfo->State.ControlLineStates.HostToDevice = USB_ControlRequest.wValue;

				EVENT_CDC_Device_ControLineStateChanged(CDCInterfaceInfo);
    52ee:	76 cf       	rjmp	.-276    	; 0x51dc <CDC_Device_Event_Stub>
			}

			break;
		case CDC_REQ_SendBreak:
			if (USB_ControlRequest.bmRequestType == (REQDIR_HOSTTODEVICE | REQTYPE_CLASS | REQREC_INTERFACE))
    52f0:	80 91 5f 23 	lds	r24, 0x235F	; 0x80235f <USB_ControlRequest>
    52f4:	81 32       	cpi	r24, 0x21	; 33
    52f6:	59 f4       	brne	.+22     	; 0x530e <CDC_Device_ProcessControlRequest+0x130>
			{
				Endpoint_ClearSETUP();
    52f8:	f7 db       	rcall	.-2066   	; 0x4ae8 <Endpoint_ClearSETUP>
				Endpoint_ClearStatusStage();
    52fa:	f8 dc       	rcall	.-1552   	; 0x4cec <Endpoint_ClearStatusStage>

				EVENT_CDC_Device_BreakSent(CDCInterfaceInfo, (uint8_t)USB_ControlRequest.wValue);
    52fc:	60 91 61 23 	lds	r22, 0x2361	; 0x802361 <USB_ControlRequest+0x2>
    5300:	ce 01       	movw	r24, r28
			}

			break;
	}
}
    5302:	df 91       	pop	r29
    5304:	cf 91       	pop	r28
    5306:	1f 91       	pop	r17
    5308:	0f 91       	pop	r16
    530a:	ff 90       	pop	r15
			if (USB_ControlRequest.bmRequestType == (REQDIR_HOSTTODEVICE | REQTYPE_CLASS | REQREC_INTERFACE))
			{
				Endpoint_ClearSETUP();
				Endpoint_ClearStatusStage();

				EVENT_CDC_Device_BreakSent(CDCInterfaceInfo, (uint8_t)USB_ControlRequest.wValue);
    530c:	67 cf       	rjmp	.-306    	; 0x51dc <CDC_Device_Event_Stub>
			}

			break;
	}
}
    530e:	df 91       	pop	r29
    5310:	cf 91       	pop	r28
    5312:	1f 91       	pop	r17
    5314:	0f 91       	pop	r16
    5316:	ff 90       	pop	r15
    5318:	08 95       	ret

0000531a <__udivmodqi4>:
    531a:	99 1b       	sub	r25, r25
    531c:	79 e0       	ldi	r23, 0x09	; 9
    531e:	04 c0       	rjmp	.+8      	; 0x5328 <__udivmodqi4_ep>

00005320 <__udivmodqi4_loop>:
    5320:	99 1f       	adc	r25, r25
    5322:	96 17       	cp	r25, r22
    5324:	08 f0       	brcs	.+2      	; 0x5328 <__udivmodqi4_ep>
    5326:	96 1b       	sub	r25, r22

00005328 <__udivmodqi4_ep>:
    5328:	88 1f       	adc	r24, r24
    532a:	7a 95       	dec	r23
    532c:	c9 f7       	brne	.-14     	; 0x5320 <__udivmodqi4_loop>
    532e:	80 95       	com	r24
    5330:	08 95       	ret

00005332 <__udivmodhi4>:
    5332:	aa 1b       	sub	r26, r26
    5334:	bb 1b       	sub	r27, r27
    5336:	51 e1       	ldi	r21, 0x11	; 17
    5338:	07 c0       	rjmp	.+14     	; 0x5348 <__udivmodhi4_ep>

0000533a <__udivmodhi4_loop>:
    533a:	aa 1f       	adc	r26, r26
    533c:	bb 1f       	adc	r27, r27
    533e:	a6 17       	cp	r26, r22
    5340:	b7 07       	cpc	r27, r23
    5342:	10 f0       	brcs	.+4      	; 0x5348 <__udivmodhi4_ep>
    5344:	a6 1b       	sub	r26, r22
    5346:	b7 0b       	sbc	r27, r23

00005348 <__udivmodhi4_ep>:
    5348:	88 1f       	adc	r24, r24
    534a:	99 1f       	adc	r25, r25
    534c:	5a 95       	dec	r21
    534e:	a9 f7       	brne	.-22     	; 0x533a <__udivmodhi4_loop>
    5350:	80 95       	com	r24
    5352:	90 95       	com	r25
    5354:	bc 01       	movw	r22, r24
    5356:	cd 01       	movw	r24, r26
    5358:	08 95       	ret

0000535a <__divmodhi4>:
    535a:	97 fb       	bst	r25, 7
    535c:	07 2e       	mov	r0, r23
    535e:	16 f4       	brtc	.+4      	; 0x5364 <__divmodhi4+0xa>
    5360:	00 94       	com	r0
    5362:	06 d0       	rcall	.+12     	; 0x5370 <__divmodhi4_neg1>
    5364:	77 fd       	sbrc	r23, 7
    5366:	08 d0       	rcall	.+16     	; 0x5378 <__divmodhi4_neg2>
    5368:	e4 df       	rcall	.-56     	; 0x5332 <__udivmodhi4>
    536a:	07 fc       	sbrc	r0, 7
    536c:	05 d0       	rcall	.+10     	; 0x5378 <__divmodhi4_neg2>
    536e:	3e f4       	brtc	.+14     	; 0x537e <__divmodhi4_exit>

00005370 <__divmodhi4_neg1>:
    5370:	90 95       	com	r25
    5372:	81 95       	neg	r24
    5374:	9f 4f       	sbci	r25, 0xFF	; 255
    5376:	08 95       	ret

00005378 <__divmodhi4_neg2>:
    5378:	70 95       	com	r23
    537a:	61 95       	neg	r22
    537c:	7f 4f       	sbci	r23, 0xFF	; 255

0000537e <__divmodhi4_exit>:
    537e:	08 95       	ret

00005380 <__udivmodsi4>:
    5380:	a1 e2       	ldi	r26, 0x21	; 33
    5382:	1a 2e       	mov	r1, r26
    5384:	aa 1b       	sub	r26, r26
    5386:	bb 1b       	sub	r27, r27
    5388:	fd 01       	movw	r30, r26
    538a:	0d c0       	rjmp	.+26     	; 0x53a6 <__udivmodsi4_ep>

0000538c <__udivmodsi4_loop>:
    538c:	aa 1f       	adc	r26, r26
    538e:	bb 1f       	adc	r27, r27
    5390:	ee 1f       	adc	r30, r30
    5392:	ff 1f       	adc	r31, r31
    5394:	a2 17       	cp	r26, r18
    5396:	b3 07       	cpc	r27, r19
    5398:	e4 07       	cpc	r30, r20
    539a:	f5 07       	cpc	r31, r21
    539c:	20 f0       	brcs	.+8      	; 0x53a6 <__udivmodsi4_ep>
    539e:	a2 1b       	sub	r26, r18
    53a0:	b3 0b       	sbc	r27, r19
    53a2:	e4 0b       	sbc	r30, r20
    53a4:	f5 0b       	sbc	r31, r21

000053a6 <__udivmodsi4_ep>:
    53a6:	66 1f       	adc	r22, r22
    53a8:	77 1f       	adc	r23, r23
    53aa:	88 1f       	adc	r24, r24
    53ac:	99 1f       	adc	r25, r25
    53ae:	1a 94       	dec	r1
    53b0:	69 f7       	brne	.-38     	; 0x538c <__udivmodsi4_loop>
    53b2:	60 95       	com	r22
    53b4:	70 95       	com	r23
    53b6:	80 95       	com	r24
    53b8:	90 95       	com	r25
    53ba:	9b 01       	movw	r18, r22
    53bc:	ac 01       	movw	r20, r24
    53be:	bd 01       	movw	r22, r26
    53c0:	cf 01       	movw	r24, r30
    53c2:	08 95       	ret

000053c4 <__muluhisi3>:
    53c4:	0f d0       	rcall	.+30     	; 0x53e4 <__umulhisi3>
    53c6:	a5 9f       	mul	r26, r21
    53c8:	90 0d       	add	r25, r0
    53ca:	b4 9f       	mul	r27, r20
    53cc:	90 0d       	add	r25, r0
    53ce:	a4 9f       	mul	r26, r20
    53d0:	80 0d       	add	r24, r0
    53d2:	91 1d       	adc	r25, r1
    53d4:	11 24       	eor	r1, r1
    53d6:	08 95       	ret

000053d8 <__mulshisi3>:
    53d8:	b7 ff       	sbrs	r27, 7
    53da:	f4 cf       	rjmp	.-24     	; 0x53c4 <__muluhisi3>

000053dc <__mulohisi3>:
    53dc:	f3 df       	rcall	.-26     	; 0x53c4 <__muluhisi3>
    53de:	82 1b       	sub	r24, r18
    53e0:	93 0b       	sbc	r25, r19
    53e2:	08 95       	ret

000053e4 <__umulhisi3>:
    53e4:	a2 9f       	mul	r26, r18
    53e6:	b0 01       	movw	r22, r0
    53e8:	b3 9f       	mul	r27, r19
    53ea:	c0 01       	movw	r24, r0
    53ec:	a3 9f       	mul	r26, r19
    53ee:	70 0d       	add	r23, r0
    53f0:	81 1d       	adc	r24, r1
    53f2:	11 24       	eor	r1, r1
    53f4:	91 1d       	adc	r25, r1
    53f6:	b2 9f       	mul	r27, r18
    53f8:	70 0d       	add	r23, r0
    53fa:	81 1d       	adc	r24, r1
    53fc:	11 24       	eor	r1, r1
    53fe:	91 1d       	adc	r25, r1
    5400:	08 95       	ret

00005402 <do_rand>:
    5402:	8f 92       	push	r8
    5404:	9f 92       	push	r9
    5406:	af 92       	push	r10
    5408:	bf 92       	push	r11
    540a:	cf 92       	push	r12
    540c:	df 92       	push	r13
    540e:	ef 92       	push	r14
    5410:	ff 92       	push	r15
    5412:	cf 93       	push	r28
    5414:	df 93       	push	r29
    5416:	ec 01       	movw	r28, r24
    5418:	68 81       	ld	r22, Y
    541a:	79 81       	ldd	r23, Y+1	; 0x01
    541c:	8a 81       	ldd	r24, Y+2	; 0x02
    541e:	9b 81       	ldd	r25, Y+3	; 0x03
    5420:	61 15       	cp	r22, r1
    5422:	71 05       	cpc	r23, r1
    5424:	81 05       	cpc	r24, r1
    5426:	91 05       	cpc	r25, r1
    5428:	21 f4       	brne	.+8      	; 0x5432 <do_rand+0x30>
    542a:	64 e2       	ldi	r22, 0x24	; 36
    542c:	79 ed       	ldi	r23, 0xD9	; 217
    542e:	8b e5       	ldi	r24, 0x5B	; 91
    5430:	97 e0       	ldi	r25, 0x07	; 7
    5432:	2d e1       	ldi	r18, 0x1D	; 29
    5434:	33 ef       	ldi	r19, 0xF3	; 243
    5436:	41 e0       	ldi	r20, 0x01	; 1
    5438:	50 e0       	ldi	r21, 0x00	; 0
    543a:	49 d3       	rcall	.+1682   	; 0x5ace <__divmodsi4>
    543c:	49 01       	movw	r8, r18
    543e:	5a 01       	movw	r10, r20
    5440:	9b 01       	movw	r18, r22
    5442:	ac 01       	movw	r20, r24
    5444:	a7 ea       	ldi	r26, 0xA7	; 167
    5446:	b1 e4       	ldi	r27, 0x41	; 65
    5448:	bd df       	rcall	.-134    	; 0x53c4 <__muluhisi3>
    544a:	6b 01       	movw	r12, r22
    544c:	7c 01       	movw	r14, r24
    544e:	ac ee       	ldi	r26, 0xEC	; 236
    5450:	b4 ef       	ldi	r27, 0xF4	; 244
    5452:	a5 01       	movw	r20, r10
    5454:	94 01       	movw	r18, r8
    5456:	c2 df       	rcall	.-124    	; 0x53dc <__mulohisi3>
    5458:	dc 01       	movw	r26, r24
    545a:	cb 01       	movw	r24, r22
    545c:	8c 0d       	add	r24, r12
    545e:	9d 1d       	adc	r25, r13
    5460:	ae 1d       	adc	r26, r14
    5462:	bf 1d       	adc	r27, r15
    5464:	b7 ff       	sbrs	r27, 7
    5466:	03 c0       	rjmp	.+6      	; 0x546e <do_rand+0x6c>
    5468:	01 97       	sbiw	r24, 0x01	; 1
    546a:	a1 09       	sbc	r26, r1
    546c:	b0 48       	sbci	r27, 0x80	; 128
    546e:	88 83       	st	Y, r24
    5470:	99 83       	std	Y+1, r25	; 0x01
    5472:	aa 83       	std	Y+2, r26	; 0x02
    5474:	bb 83       	std	Y+3, r27	; 0x03
    5476:	9f 77       	andi	r25, 0x7F	; 127
    5478:	df 91       	pop	r29
    547a:	cf 91       	pop	r28
    547c:	ff 90       	pop	r15
    547e:	ef 90       	pop	r14
    5480:	df 90       	pop	r13
    5482:	cf 90       	pop	r12
    5484:	bf 90       	pop	r11
    5486:	af 90       	pop	r10
    5488:	9f 90       	pop	r9
    548a:	8f 90       	pop	r8
    548c:	08 95       	ret

0000548e <rand_r>:
    548e:	b9 cf       	rjmp	.-142    	; 0x5402 <do_rand>

00005490 <rand>:
    5490:	87 e4       	ldi	r24, 0x47	; 71
    5492:	90 e2       	ldi	r25, 0x20	; 32
    5494:	b6 cf       	rjmp	.-148    	; 0x5402 <do_rand>

00005496 <srand>:
    5496:	a0 e0       	ldi	r26, 0x00	; 0
    5498:	b0 e0       	ldi	r27, 0x00	; 0
    549a:	80 93 47 20 	sts	0x2047, r24	; 0x802047 <next>
    549e:	90 93 48 20 	sts	0x2048, r25	; 0x802048 <next+0x1>
    54a2:	a0 93 49 20 	sts	0x2049, r26	; 0x802049 <next+0x2>
    54a6:	b0 93 4a 20 	sts	0x204A, r27	; 0x80204a <next+0x3>
    54aa:	08 95       	ret

000054ac <memcpy_P>:
    54ac:	fb 01       	movw	r30, r22
    54ae:	dc 01       	movw	r26, r24
    54b0:	02 c0       	rjmp	.+4      	; 0x54b6 <memcpy_P+0xa>
    54b2:	05 90       	lpm	r0, Z+
    54b4:	0d 92       	st	X+, r0
    54b6:	41 50       	subi	r20, 0x01	; 1
    54b8:	50 40       	sbci	r21, 0x00	; 0
    54ba:	d8 f7       	brcc	.-10     	; 0x54b2 <memcpy_P+0x6>
    54bc:	08 95       	ret

000054be <strcmp_P>:
    54be:	fb 01       	movw	r30, r22
    54c0:	dc 01       	movw	r26, r24
    54c2:	8d 91       	ld	r24, X+
    54c4:	05 90       	lpm	r0, Z+
    54c6:	80 19       	sub	r24, r0
    54c8:	01 10       	cpse	r0, r1
    54ca:	d9 f3       	breq	.-10     	; 0x54c2 <strcmp_P+0x4>
    54cc:	99 0b       	sbc	r25, r25
    54ce:	08 95       	ret

000054d0 <strncpy_P>:
    54d0:	fb 01       	movw	r30, r22
    54d2:	dc 01       	movw	r26, r24
    54d4:	41 50       	subi	r20, 0x01	; 1
    54d6:	50 40       	sbci	r21, 0x00	; 0
    54d8:	48 f0       	brcs	.+18     	; 0x54ec <strncpy_P+0x1c>
    54da:	05 90       	lpm	r0, Z+
    54dc:	0d 92       	st	X+, r0
    54de:	00 20       	and	r0, r0
    54e0:	c9 f7       	brne	.-14     	; 0x54d4 <strncpy_P+0x4>
    54e2:	01 c0       	rjmp	.+2      	; 0x54e6 <strncpy_P+0x16>
    54e4:	1d 92       	st	X+, r1
    54e6:	41 50       	subi	r20, 0x01	; 1
    54e8:	50 40       	sbci	r21, 0x00	; 0
    54ea:	e0 f7       	brcc	.-8      	; 0x54e4 <strncpy_P+0x14>
    54ec:	08 95       	ret

000054ee <memcmp>:
    54ee:	fb 01       	movw	r30, r22
    54f0:	dc 01       	movw	r26, r24
    54f2:	04 c0       	rjmp	.+8      	; 0x54fc <memcmp+0xe>
    54f4:	8d 91       	ld	r24, X+
    54f6:	01 90       	ld	r0, Z+
    54f8:	80 19       	sub	r24, r0
    54fa:	21 f4       	brne	.+8      	; 0x5504 <memcmp+0x16>
    54fc:	41 50       	subi	r20, 0x01	; 1
    54fe:	50 40       	sbci	r21, 0x00	; 0
    5500:	c8 f7       	brcc	.-14     	; 0x54f4 <memcmp+0x6>
    5502:	88 1b       	sub	r24, r24
    5504:	99 0b       	sbc	r25, r25
    5506:	08 95       	ret

00005508 <memcpy>:
    5508:	fb 01       	movw	r30, r22
    550a:	dc 01       	movw	r26, r24
    550c:	02 c0       	rjmp	.+4      	; 0x5512 <memcpy+0xa>
    550e:	01 90       	ld	r0, Z+
    5510:	0d 92       	st	X+, r0
    5512:	41 50       	subi	r20, 0x01	; 1
    5514:	50 40       	sbci	r21, 0x00	; 0
    5516:	d8 f7       	brcc	.-10     	; 0x550e <memcpy+0x6>
    5518:	08 95       	ret

0000551a <memset>:
    551a:	dc 01       	movw	r26, r24
    551c:	01 c0       	rjmp	.+2      	; 0x5520 <memset+0x6>
    551e:	6d 93       	st	X+, r22
    5520:	41 50       	subi	r20, 0x01	; 1
    5522:	50 40       	sbci	r21, 0x00	; 0
    5524:	e0 f7       	brcc	.-8      	; 0x551e <memset+0x4>
    5526:	08 95       	ret

00005528 <snprintf_P>:
    5528:	ae e0       	ldi	r26, 0x0E	; 14
    552a:	b0 e0       	ldi	r27, 0x00	; 0
    552c:	e9 e9       	ldi	r30, 0x99	; 153
    552e:	fa e2       	ldi	r31, 0x2A	; 42
    5530:	f8 c2       	rjmp	.+1520   	; 0x5b22 <__prologue_saves__+0x1c>
    5532:	0d 89       	ldd	r16, Y+21	; 0x15
    5534:	1e 89       	ldd	r17, Y+22	; 0x16
    5536:	8f 89       	ldd	r24, Y+23	; 0x17
    5538:	98 8d       	ldd	r25, Y+24	; 0x18
    553a:	2e e0       	ldi	r18, 0x0E	; 14
    553c:	2c 83       	std	Y+4, r18	; 0x04
    553e:	09 83       	std	Y+1, r16	; 0x01
    5540:	1a 83       	std	Y+2, r17	; 0x02
    5542:	97 ff       	sbrs	r25, 7
    5544:	02 c0       	rjmp	.+4      	; 0x554a <snprintf_P+0x22>
    5546:	80 e0       	ldi	r24, 0x00	; 0
    5548:	90 e8       	ldi	r25, 0x80	; 128
    554a:	01 97       	sbiw	r24, 0x01	; 1
    554c:	8d 83       	std	Y+5, r24	; 0x05
    554e:	9e 83       	std	Y+6, r25	; 0x06
    5550:	ae 01       	movw	r20, r28
    5552:	45 5e       	subi	r20, 0xE5	; 229
    5554:	5f 4f       	sbci	r21, 0xFF	; 255
    5556:	69 8d       	ldd	r22, Y+25	; 0x19
    5558:	7a 8d       	ldd	r23, Y+26	; 0x1a
    555a:	ce 01       	movw	r24, r28
    555c:	01 96       	adiw	r24, 0x01	; 1
    555e:	11 d0       	rcall	.+34     	; 0x5582 <vfprintf>
    5560:	4d 81       	ldd	r20, Y+5	; 0x05
    5562:	5e 81       	ldd	r21, Y+6	; 0x06
    5564:	57 fd       	sbrc	r21, 7
    5566:	0a c0       	rjmp	.+20     	; 0x557c <snprintf_P+0x54>
    5568:	2f 81       	ldd	r18, Y+7	; 0x07
    556a:	38 85       	ldd	r19, Y+8	; 0x08
    556c:	42 17       	cp	r20, r18
    556e:	53 07       	cpc	r21, r19
    5570:	0c f4       	brge	.+2      	; 0x5574 <snprintf_P+0x4c>
    5572:	9a 01       	movw	r18, r20
    5574:	f8 01       	movw	r30, r16
    5576:	e2 0f       	add	r30, r18
    5578:	f3 1f       	adc	r31, r19
    557a:	10 82       	st	Z, r1
    557c:	2e 96       	adiw	r28, 0x0e	; 14
    557e:	e4 e0       	ldi	r30, 0x04	; 4
    5580:	e9 c2       	rjmp	.+1490   	; 0x5b54 <__epilogue_restores__+0x1c>

00005582 <vfprintf>:
    5582:	ac e0       	ldi	r26, 0x0C	; 12
    5584:	b0 e0       	ldi	r27, 0x00	; 0
    5586:	e6 ec       	ldi	r30, 0xC6	; 198
    5588:	fa e2       	ldi	r31, 0x2A	; 42
    558a:	bd c2       	rjmp	.+1402   	; 0x5b06 <__prologue_saves__>
    558c:	7c 01       	movw	r14, r24
    558e:	6b 01       	movw	r12, r22
    5590:	8a 01       	movw	r16, r20
    5592:	fc 01       	movw	r30, r24
    5594:	16 82       	std	Z+6, r1	; 0x06
    5596:	17 82       	std	Z+7, r1	; 0x07
    5598:	83 81       	ldd	r24, Z+3	; 0x03
    559a:	81 ff       	sbrs	r24, 1
    559c:	b0 c1       	rjmp	.+864    	; 0x58fe <vfprintf+0x37c>
    559e:	ce 01       	movw	r24, r28
    55a0:	01 96       	adiw	r24, 0x01	; 1
    55a2:	4c 01       	movw	r8, r24
    55a4:	f7 01       	movw	r30, r14
    55a6:	93 81       	ldd	r25, Z+3	; 0x03
    55a8:	f6 01       	movw	r30, r12
    55aa:	93 fd       	sbrc	r25, 3
    55ac:	85 91       	lpm	r24, Z+
    55ae:	93 ff       	sbrs	r25, 3
    55b0:	81 91       	ld	r24, Z+
    55b2:	6f 01       	movw	r12, r30
    55b4:	88 23       	and	r24, r24
    55b6:	09 f4       	brne	.+2      	; 0x55ba <vfprintf+0x38>
    55b8:	9e c1       	rjmp	.+828    	; 0x58f6 <vfprintf+0x374>
    55ba:	85 32       	cpi	r24, 0x25	; 37
    55bc:	39 f4       	brne	.+14     	; 0x55cc <vfprintf+0x4a>
    55be:	93 fd       	sbrc	r25, 3
    55c0:	85 91       	lpm	r24, Z+
    55c2:	93 ff       	sbrs	r25, 3
    55c4:	81 91       	ld	r24, Z+
    55c6:	6f 01       	movw	r12, r30
    55c8:	85 32       	cpi	r24, 0x25	; 37
    55ca:	21 f4       	brne	.+8      	; 0x55d4 <vfprintf+0x52>
    55cc:	b7 01       	movw	r22, r14
    55ce:	90 e0       	ldi	r25, 0x00	; 0
    55d0:	b1 d1       	rcall	.+866    	; 0x5934 <fputc>
    55d2:	e8 cf       	rjmp	.-48     	; 0x55a4 <vfprintf+0x22>
    55d4:	51 2c       	mov	r5, r1
    55d6:	31 2c       	mov	r3, r1
    55d8:	20 e0       	ldi	r18, 0x00	; 0
    55da:	20 32       	cpi	r18, 0x20	; 32
    55dc:	a0 f4       	brcc	.+40     	; 0x5606 <vfprintf+0x84>
    55de:	8b 32       	cpi	r24, 0x2B	; 43
    55e0:	69 f0       	breq	.+26     	; 0x55fc <vfprintf+0x7a>
    55e2:	30 f4       	brcc	.+12     	; 0x55f0 <vfprintf+0x6e>
    55e4:	80 32       	cpi	r24, 0x20	; 32
    55e6:	59 f0       	breq	.+22     	; 0x55fe <vfprintf+0x7c>
    55e8:	83 32       	cpi	r24, 0x23	; 35
    55ea:	69 f4       	brne	.+26     	; 0x5606 <vfprintf+0x84>
    55ec:	20 61       	ori	r18, 0x10	; 16
    55ee:	2c c0       	rjmp	.+88     	; 0x5648 <vfprintf+0xc6>
    55f0:	8d 32       	cpi	r24, 0x2D	; 45
    55f2:	39 f0       	breq	.+14     	; 0x5602 <vfprintf+0x80>
    55f4:	80 33       	cpi	r24, 0x30	; 48
    55f6:	39 f4       	brne	.+14     	; 0x5606 <vfprintf+0x84>
    55f8:	21 60       	ori	r18, 0x01	; 1
    55fa:	26 c0       	rjmp	.+76     	; 0x5648 <vfprintf+0xc6>
    55fc:	22 60       	ori	r18, 0x02	; 2
    55fe:	24 60       	ori	r18, 0x04	; 4
    5600:	23 c0       	rjmp	.+70     	; 0x5648 <vfprintf+0xc6>
    5602:	28 60       	ori	r18, 0x08	; 8
    5604:	21 c0       	rjmp	.+66     	; 0x5648 <vfprintf+0xc6>
    5606:	27 fd       	sbrc	r18, 7
    5608:	27 c0       	rjmp	.+78     	; 0x5658 <vfprintf+0xd6>
    560a:	30 ed       	ldi	r19, 0xD0	; 208
    560c:	38 0f       	add	r19, r24
    560e:	3a 30       	cpi	r19, 0x0A	; 10
    5610:	78 f4       	brcc	.+30     	; 0x5630 <vfprintf+0xae>
    5612:	26 ff       	sbrs	r18, 6
    5614:	06 c0       	rjmp	.+12     	; 0x5622 <vfprintf+0xa0>
    5616:	fa e0       	ldi	r31, 0x0A	; 10
    5618:	5f 9e       	mul	r5, r31
    561a:	30 0d       	add	r19, r0
    561c:	11 24       	eor	r1, r1
    561e:	53 2e       	mov	r5, r19
    5620:	13 c0       	rjmp	.+38     	; 0x5648 <vfprintf+0xc6>
    5622:	8a e0       	ldi	r24, 0x0A	; 10
    5624:	38 9e       	mul	r3, r24
    5626:	30 0d       	add	r19, r0
    5628:	11 24       	eor	r1, r1
    562a:	33 2e       	mov	r3, r19
    562c:	20 62       	ori	r18, 0x20	; 32
    562e:	0c c0       	rjmp	.+24     	; 0x5648 <vfprintf+0xc6>
    5630:	8e 32       	cpi	r24, 0x2E	; 46
    5632:	21 f4       	brne	.+8      	; 0x563c <vfprintf+0xba>
    5634:	26 fd       	sbrc	r18, 6
    5636:	5f c1       	rjmp	.+702    	; 0x58f6 <vfprintf+0x374>
    5638:	20 64       	ori	r18, 0x40	; 64
    563a:	06 c0       	rjmp	.+12     	; 0x5648 <vfprintf+0xc6>
    563c:	8c 36       	cpi	r24, 0x6C	; 108
    563e:	11 f4       	brne	.+4      	; 0x5644 <vfprintf+0xc2>
    5640:	20 68       	ori	r18, 0x80	; 128
    5642:	02 c0       	rjmp	.+4      	; 0x5648 <vfprintf+0xc6>
    5644:	88 36       	cpi	r24, 0x68	; 104
    5646:	41 f4       	brne	.+16     	; 0x5658 <vfprintf+0xd6>
    5648:	f6 01       	movw	r30, r12
    564a:	93 fd       	sbrc	r25, 3
    564c:	85 91       	lpm	r24, Z+
    564e:	93 ff       	sbrs	r25, 3
    5650:	81 91       	ld	r24, Z+
    5652:	6f 01       	movw	r12, r30
    5654:	81 11       	cpse	r24, r1
    5656:	c1 cf       	rjmp	.-126    	; 0x55da <vfprintf+0x58>
    5658:	98 2f       	mov	r25, r24
    565a:	9f 7d       	andi	r25, 0xDF	; 223
    565c:	95 54       	subi	r25, 0x45	; 69
    565e:	93 30       	cpi	r25, 0x03	; 3
    5660:	28 f4       	brcc	.+10     	; 0x566c <vfprintf+0xea>
    5662:	0c 5f       	subi	r16, 0xFC	; 252
    5664:	1f 4f       	sbci	r17, 0xFF	; 255
    5666:	ff e3       	ldi	r31, 0x3F	; 63
    5668:	f9 83       	std	Y+1, r31	; 0x01
    566a:	0d c0       	rjmp	.+26     	; 0x5686 <vfprintf+0x104>
    566c:	83 36       	cpi	r24, 0x63	; 99
    566e:	31 f0       	breq	.+12     	; 0x567c <vfprintf+0xfa>
    5670:	83 37       	cpi	r24, 0x73	; 115
    5672:	71 f0       	breq	.+28     	; 0x5690 <vfprintf+0x10e>
    5674:	83 35       	cpi	r24, 0x53	; 83
    5676:	09 f0       	breq	.+2      	; 0x567a <vfprintf+0xf8>
    5678:	57 c0       	rjmp	.+174    	; 0x5728 <vfprintf+0x1a6>
    567a:	21 c0       	rjmp	.+66     	; 0x56be <vfprintf+0x13c>
    567c:	f8 01       	movw	r30, r16
    567e:	80 81       	ld	r24, Z
    5680:	89 83       	std	Y+1, r24	; 0x01
    5682:	0e 5f       	subi	r16, 0xFE	; 254
    5684:	1f 4f       	sbci	r17, 0xFF	; 255
    5686:	44 24       	eor	r4, r4
    5688:	43 94       	inc	r4
    568a:	51 2c       	mov	r5, r1
    568c:	54 01       	movw	r10, r8
    568e:	14 c0       	rjmp	.+40     	; 0x56b8 <vfprintf+0x136>
    5690:	38 01       	movw	r6, r16
    5692:	f2 e0       	ldi	r31, 0x02	; 2
    5694:	6f 0e       	add	r6, r31
    5696:	71 1c       	adc	r7, r1
    5698:	f8 01       	movw	r30, r16
    569a:	a0 80       	ld	r10, Z
    569c:	b1 80       	ldd	r11, Z+1	; 0x01
    569e:	26 ff       	sbrs	r18, 6
    56a0:	03 c0       	rjmp	.+6      	; 0x56a8 <vfprintf+0x126>
    56a2:	65 2d       	mov	r22, r5
    56a4:	70 e0       	ldi	r23, 0x00	; 0
    56a6:	02 c0       	rjmp	.+4      	; 0x56ac <vfprintf+0x12a>
    56a8:	6f ef       	ldi	r22, 0xFF	; 255
    56aa:	7f ef       	ldi	r23, 0xFF	; 255
    56ac:	c5 01       	movw	r24, r10
    56ae:	2c 87       	std	Y+12, r18	; 0x0c
    56b0:	36 d1       	rcall	.+620    	; 0x591e <strnlen>
    56b2:	2c 01       	movw	r4, r24
    56b4:	83 01       	movw	r16, r6
    56b6:	2c 85       	ldd	r18, Y+12	; 0x0c
    56b8:	2f 77       	andi	r18, 0x7F	; 127
    56ba:	22 2e       	mov	r2, r18
    56bc:	16 c0       	rjmp	.+44     	; 0x56ea <vfprintf+0x168>
    56be:	38 01       	movw	r6, r16
    56c0:	f2 e0       	ldi	r31, 0x02	; 2
    56c2:	6f 0e       	add	r6, r31
    56c4:	71 1c       	adc	r7, r1
    56c6:	f8 01       	movw	r30, r16
    56c8:	a0 80       	ld	r10, Z
    56ca:	b1 80       	ldd	r11, Z+1	; 0x01
    56cc:	26 ff       	sbrs	r18, 6
    56ce:	03 c0       	rjmp	.+6      	; 0x56d6 <vfprintf+0x154>
    56d0:	65 2d       	mov	r22, r5
    56d2:	70 e0       	ldi	r23, 0x00	; 0
    56d4:	02 c0       	rjmp	.+4      	; 0x56da <vfprintf+0x158>
    56d6:	6f ef       	ldi	r22, 0xFF	; 255
    56d8:	7f ef       	ldi	r23, 0xFF	; 255
    56da:	c5 01       	movw	r24, r10
    56dc:	2c 87       	std	Y+12, r18	; 0x0c
    56de:	14 d1       	rcall	.+552    	; 0x5908 <strnlen_P>
    56e0:	2c 01       	movw	r4, r24
    56e2:	2c 85       	ldd	r18, Y+12	; 0x0c
    56e4:	20 68       	ori	r18, 0x80	; 128
    56e6:	22 2e       	mov	r2, r18
    56e8:	83 01       	movw	r16, r6
    56ea:	23 fc       	sbrc	r2, 3
    56ec:	19 c0       	rjmp	.+50     	; 0x5720 <vfprintf+0x19e>
    56ee:	83 2d       	mov	r24, r3
    56f0:	90 e0       	ldi	r25, 0x00	; 0
    56f2:	48 16       	cp	r4, r24
    56f4:	59 06       	cpc	r5, r25
    56f6:	a0 f4       	brcc	.+40     	; 0x5720 <vfprintf+0x19e>
    56f8:	b7 01       	movw	r22, r14
    56fa:	80 e2       	ldi	r24, 0x20	; 32
    56fc:	90 e0       	ldi	r25, 0x00	; 0
    56fe:	1a d1       	rcall	.+564    	; 0x5934 <fputc>
    5700:	3a 94       	dec	r3
    5702:	f5 cf       	rjmp	.-22     	; 0x56ee <vfprintf+0x16c>
    5704:	f5 01       	movw	r30, r10
    5706:	27 fc       	sbrc	r2, 7
    5708:	85 91       	lpm	r24, Z+
    570a:	27 fe       	sbrs	r2, 7
    570c:	81 91       	ld	r24, Z+
    570e:	5f 01       	movw	r10, r30
    5710:	b7 01       	movw	r22, r14
    5712:	90 e0       	ldi	r25, 0x00	; 0
    5714:	0f d1       	rcall	.+542    	; 0x5934 <fputc>
    5716:	31 10       	cpse	r3, r1
    5718:	3a 94       	dec	r3
    571a:	f1 e0       	ldi	r31, 0x01	; 1
    571c:	4f 1a       	sub	r4, r31
    571e:	51 08       	sbc	r5, r1
    5720:	41 14       	cp	r4, r1
    5722:	51 04       	cpc	r5, r1
    5724:	79 f7       	brne	.-34     	; 0x5704 <vfprintf+0x182>
    5726:	de c0       	rjmp	.+444    	; 0x58e4 <vfprintf+0x362>
    5728:	84 36       	cpi	r24, 0x64	; 100
    572a:	11 f0       	breq	.+4      	; 0x5730 <vfprintf+0x1ae>
    572c:	89 36       	cpi	r24, 0x69	; 105
    572e:	31 f5       	brne	.+76     	; 0x577c <vfprintf+0x1fa>
    5730:	f8 01       	movw	r30, r16
    5732:	27 ff       	sbrs	r18, 7
    5734:	07 c0       	rjmp	.+14     	; 0x5744 <vfprintf+0x1c2>
    5736:	60 81       	ld	r22, Z
    5738:	71 81       	ldd	r23, Z+1	; 0x01
    573a:	82 81       	ldd	r24, Z+2	; 0x02
    573c:	93 81       	ldd	r25, Z+3	; 0x03
    573e:	0c 5f       	subi	r16, 0xFC	; 252
    5740:	1f 4f       	sbci	r17, 0xFF	; 255
    5742:	08 c0       	rjmp	.+16     	; 0x5754 <vfprintf+0x1d2>
    5744:	60 81       	ld	r22, Z
    5746:	71 81       	ldd	r23, Z+1	; 0x01
    5748:	07 2e       	mov	r0, r23
    574a:	00 0c       	add	r0, r0
    574c:	88 0b       	sbc	r24, r24
    574e:	99 0b       	sbc	r25, r25
    5750:	0e 5f       	subi	r16, 0xFE	; 254
    5752:	1f 4f       	sbci	r17, 0xFF	; 255
    5754:	2f 76       	andi	r18, 0x6F	; 111
    5756:	72 2e       	mov	r7, r18
    5758:	97 ff       	sbrs	r25, 7
    575a:	09 c0       	rjmp	.+18     	; 0x576e <vfprintf+0x1ec>
    575c:	90 95       	com	r25
    575e:	80 95       	com	r24
    5760:	70 95       	com	r23
    5762:	61 95       	neg	r22
    5764:	7f 4f       	sbci	r23, 0xFF	; 255
    5766:	8f 4f       	sbci	r24, 0xFF	; 255
    5768:	9f 4f       	sbci	r25, 0xFF	; 255
    576a:	20 68       	ori	r18, 0x80	; 128
    576c:	72 2e       	mov	r7, r18
    576e:	2a e0       	ldi	r18, 0x0A	; 10
    5770:	30 e0       	ldi	r19, 0x00	; 0
    5772:	a4 01       	movw	r20, r8
    5774:	17 d1       	rcall	.+558    	; 0x59a4 <__ultoa_invert>
    5776:	a8 2e       	mov	r10, r24
    5778:	a8 18       	sub	r10, r8
    577a:	43 c0       	rjmp	.+134    	; 0x5802 <vfprintf+0x280>
    577c:	85 37       	cpi	r24, 0x75	; 117
    577e:	29 f4       	brne	.+10     	; 0x578a <vfprintf+0x208>
    5780:	2f 7e       	andi	r18, 0xEF	; 239
    5782:	b2 2e       	mov	r11, r18
    5784:	2a e0       	ldi	r18, 0x0A	; 10
    5786:	30 e0       	ldi	r19, 0x00	; 0
    5788:	25 c0       	rjmp	.+74     	; 0x57d4 <vfprintf+0x252>
    578a:	f2 2f       	mov	r31, r18
    578c:	f9 7f       	andi	r31, 0xF9	; 249
    578e:	bf 2e       	mov	r11, r31
    5790:	8f 36       	cpi	r24, 0x6F	; 111
    5792:	c1 f0       	breq	.+48     	; 0x57c4 <vfprintf+0x242>
    5794:	18 f4       	brcc	.+6      	; 0x579c <vfprintf+0x21a>
    5796:	88 35       	cpi	r24, 0x58	; 88
    5798:	79 f0       	breq	.+30     	; 0x57b8 <vfprintf+0x236>
    579a:	ad c0       	rjmp	.+346    	; 0x58f6 <vfprintf+0x374>
    579c:	80 37       	cpi	r24, 0x70	; 112
    579e:	19 f0       	breq	.+6      	; 0x57a6 <vfprintf+0x224>
    57a0:	88 37       	cpi	r24, 0x78	; 120
    57a2:	21 f0       	breq	.+8      	; 0x57ac <vfprintf+0x22a>
    57a4:	a8 c0       	rjmp	.+336    	; 0x58f6 <vfprintf+0x374>
    57a6:	2f 2f       	mov	r18, r31
    57a8:	20 61       	ori	r18, 0x10	; 16
    57aa:	b2 2e       	mov	r11, r18
    57ac:	b4 fe       	sbrs	r11, 4
    57ae:	0d c0       	rjmp	.+26     	; 0x57ca <vfprintf+0x248>
    57b0:	8b 2d       	mov	r24, r11
    57b2:	84 60       	ori	r24, 0x04	; 4
    57b4:	b8 2e       	mov	r11, r24
    57b6:	09 c0       	rjmp	.+18     	; 0x57ca <vfprintf+0x248>
    57b8:	24 ff       	sbrs	r18, 4
    57ba:	0a c0       	rjmp	.+20     	; 0x57d0 <vfprintf+0x24e>
    57bc:	9f 2f       	mov	r25, r31
    57be:	96 60       	ori	r25, 0x06	; 6
    57c0:	b9 2e       	mov	r11, r25
    57c2:	06 c0       	rjmp	.+12     	; 0x57d0 <vfprintf+0x24e>
    57c4:	28 e0       	ldi	r18, 0x08	; 8
    57c6:	30 e0       	ldi	r19, 0x00	; 0
    57c8:	05 c0       	rjmp	.+10     	; 0x57d4 <vfprintf+0x252>
    57ca:	20 e1       	ldi	r18, 0x10	; 16
    57cc:	30 e0       	ldi	r19, 0x00	; 0
    57ce:	02 c0       	rjmp	.+4      	; 0x57d4 <vfprintf+0x252>
    57d0:	20 e1       	ldi	r18, 0x10	; 16
    57d2:	32 e0       	ldi	r19, 0x02	; 2
    57d4:	f8 01       	movw	r30, r16
    57d6:	b7 fe       	sbrs	r11, 7
    57d8:	07 c0       	rjmp	.+14     	; 0x57e8 <vfprintf+0x266>
    57da:	60 81       	ld	r22, Z
    57dc:	71 81       	ldd	r23, Z+1	; 0x01
    57de:	82 81       	ldd	r24, Z+2	; 0x02
    57e0:	93 81       	ldd	r25, Z+3	; 0x03
    57e2:	0c 5f       	subi	r16, 0xFC	; 252
    57e4:	1f 4f       	sbci	r17, 0xFF	; 255
    57e6:	06 c0       	rjmp	.+12     	; 0x57f4 <vfprintf+0x272>
    57e8:	60 81       	ld	r22, Z
    57ea:	71 81       	ldd	r23, Z+1	; 0x01
    57ec:	80 e0       	ldi	r24, 0x00	; 0
    57ee:	90 e0       	ldi	r25, 0x00	; 0
    57f0:	0e 5f       	subi	r16, 0xFE	; 254
    57f2:	1f 4f       	sbci	r17, 0xFF	; 255
    57f4:	a4 01       	movw	r20, r8
    57f6:	d6 d0       	rcall	.+428    	; 0x59a4 <__ultoa_invert>
    57f8:	a8 2e       	mov	r10, r24
    57fa:	a8 18       	sub	r10, r8
    57fc:	fb 2d       	mov	r31, r11
    57fe:	ff 77       	andi	r31, 0x7F	; 127
    5800:	7f 2e       	mov	r7, r31
    5802:	76 fe       	sbrs	r7, 6
    5804:	0b c0       	rjmp	.+22     	; 0x581c <vfprintf+0x29a>
    5806:	37 2d       	mov	r19, r7
    5808:	3e 7f       	andi	r19, 0xFE	; 254
    580a:	a5 14       	cp	r10, r5
    580c:	50 f4       	brcc	.+20     	; 0x5822 <vfprintf+0x2a0>
    580e:	74 fe       	sbrs	r7, 4
    5810:	0a c0       	rjmp	.+20     	; 0x5826 <vfprintf+0x2a4>
    5812:	72 fc       	sbrc	r7, 2
    5814:	08 c0       	rjmp	.+16     	; 0x5826 <vfprintf+0x2a4>
    5816:	37 2d       	mov	r19, r7
    5818:	3e 7e       	andi	r19, 0xEE	; 238
    581a:	05 c0       	rjmp	.+10     	; 0x5826 <vfprintf+0x2a4>
    581c:	ba 2c       	mov	r11, r10
    581e:	37 2d       	mov	r19, r7
    5820:	03 c0       	rjmp	.+6      	; 0x5828 <vfprintf+0x2a6>
    5822:	ba 2c       	mov	r11, r10
    5824:	01 c0       	rjmp	.+2      	; 0x5828 <vfprintf+0x2a6>
    5826:	b5 2c       	mov	r11, r5
    5828:	34 ff       	sbrs	r19, 4
    582a:	0d c0       	rjmp	.+26     	; 0x5846 <vfprintf+0x2c4>
    582c:	fe 01       	movw	r30, r28
    582e:	ea 0d       	add	r30, r10
    5830:	f1 1d       	adc	r31, r1
    5832:	80 81       	ld	r24, Z
    5834:	80 33       	cpi	r24, 0x30	; 48
    5836:	11 f4       	brne	.+4      	; 0x583c <vfprintf+0x2ba>
    5838:	39 7e       	andi	r19, 0xE9	; 233
    583a:	09 c0       	rjmp	.+18     	; 0x584e <vfprintf+0x2cc>
    583c:	32 ff       	sbrs	r19, 2
    583e:	06 c0       	rjmp	.+12     	; 0x584c <vfprintf+0x2ca>
    5840:	b3 94       	inc	r11
    5842:	b3 94       	inc	r11
    5844:	04 c0       	rjmp	.+8      	; 0x584e <vfprintf+0x2cc>
    5846:	83 2f       	mov	r24, r19
    5848:	86 78       	andi	r24, 0x86	; 134
    584a:	09 f0       	breq	.+2      	; 0x584e <vfprintf+0x2cc>
    584c:	b3 94       	inc	r11
    584e:	33 fd       	sbrc	r19, 3
    5850:	12 c0       	rjmp	.+36     	; 0x5876 <vfprintf+0x2f4>
    5852:	30 ff       	sbrs	r19, 0
    5854:	06 c0       	rjmp	.+12     	; 0x5862 <vfprintf+0x2e0>
    5856:	5a 2c       	mov	r5, r10
    5858:	b3 14       	cp	r11, r3
    585a:	18 f4       	brcc	.+6      	; 0x5862 <vfprintf+0x2e0>
    585c:	53 0c       	add	r5, r3
    585e:	5b 18       	sub	r5, r11
    5860:	b3 2c       	mov	r11, r3
    5862:	b3 14       	cp	r11, r3
    5864:	60 f4       	brcc	.+24     	; 0x587e <vfprintf+0x2fc>
    5866:	b7 01       	movw	r22, r14
    5868:	80 e2       	ldi	r24, 0x20	; 32
    586a:	90 e0       	ldi	r25, 0x00	; 0
    586c:	3c 87       	std	Y+12, r19	; 0x0c
    586e:	62 d0       	rcall	.+196    	; 0x5934 <fputc>
    5870:	b3 94       	inc	r11
    5872:	3c 85       	ldd	r19, Y+12	; 0x0c
    5874:	f6 cf       	rjmp	.-20     	; 0x5862 <vfprintf+0x2e0>
    5876:	b3 14       	cp	r11, r3
    5878:	10 f4       	brcc	.+4      	; 0x587e <vfprintf+0x2fc>
    587a:	3b 18       	sub	r3, r11
    587c:	01 c0       	rjmp	.+2      	; 0x5880 <vfprintf+0x2fe>
    587e:	31 2c       	mov	r3, r1
    5880:	34 ff       	sbrs	r19, 4
    5882:	11 c0       	rjmp	.+34     	; 0x58a6 <vfprintf+0x324>
    5884:	b7 01       	movw	r22, r14
    5886:	80 e3       	ldi	r24, 0x30	; 48
    5888:	90 e0       	ldi	r25, 0x00	; 0
    588a:	3c 87       	std	Y+12, r19	; 0x0c
    588c:	53 d0       	rcall	.+166    	; 0x5934 <fputc>
    588e:	3c 85       	ldd	r19, Y+12	; 0x0c
    5890:	32 ff       	sbrs	r19, 2
    5892:	16 c0       	rjmp	.+44     	; 0x58c0 <vfprintf+0x33e>
    5894:	31 fd       	sbrc	r19, 1
    5896:	03 c0       	rjmp	.+6      	; 0x589e <vfprintf+0x31c>
    5898:	88 e7       	ldi	r24, 0x78	; 120
    589a:	90 e0       	ldi	r25, 0x00	; 0
    589c:	02 c0       	rjmp	.+4      	; 0x58a2 <vfprintf+0x320>
    589e:	88 e5       	ldi	r24, 0x58	; 88
    58a0:	90 e0       	ldi	r25, 0x00	; 0
    58a2:	b7 01       	movw	r22, r14
    58a4:	0c c0       	rjmp	.+24     	; 0x58be <vfprintf+0x33c>
    58a6:	83 2f       	mov	r24, r19
    58a8:	86 78       	andi	r24, 0x86	; 134
    58aa:	51 f0       	breq	.+20     	; 0x58c0 <vfprintf+0x33e>
    58ac:	31 ff       	sbrs	r19, 1
    58ae:	02 c0       	rjmp	.+4      	; 0x58b4 <vfprintf+0x332>
    58b0:	8b e2       	ldi	r24, 0x2B	; 43
    58b2:	01 c0       	rjmp	.+2      	; 0x58b6 <vfprintf+0x334>
    58b4:	80 e2       	ldi	r24, 0x20	; 32
    58b6:	37 fd       	sbrc	r19, 7
    58b8:	8d e2       	ldi	r24, 0x2D	; 45
    58ba:	b7 01       	movw	r22, r14
    58bc:	90 e0       	ldi	r25, 0x00	; 0
    58be:	3a d0       	rcall	.+116    	; 0x5934 <fputc>
    58c0:	a5 14       	cp	r10, r5
    58c2:	30 f4       	brcc	.+12     	; 0x58d0 <vfprintf+0x34e>
    58c4:	b7 01       	movw	r22, r14
    58c6:	80 e3       	ldi	r24, 0x30	; 48
    58c8:	90 e0       	ldi	r25, 0x00	; 0
    58ca:	34 d0       	rcall	.+104    	; 0x5934 <fputc>
    58cc:	5a 94       	dec	r5
    58ce:	f8 cf       	rjmp	.-16     	; 0x58c0 <vfprintf+0x33e>
    58d0:	aa 94       	dec	r10
    58d2:	f4 01       	movw	r30, r8
    58d4:	ea 0d       	add	r30, r10
    58d6:	f1 1d       	adc	r31, r1
    58d8:	80 81       	ld	r24, Z
    58da:	b7 01       	movw	r22, r14
    58dc:	90 e0       	ldi	r25, 0x00	; 0
    58de:	2a d0       	rcall	.+84     	; 0x5934 <fputc>
    58e0:	a1 10       	cpse	r10, r1
    58e2:	f6 cf       	rjmp	.-20     	; 0x58d0 <vfprintf+0x34e>
    58e4:	33 20       	and	r3, r3
    58e6:	09 f4       	brne	.+2      	; 0x58ea <vfprintf+0x368>
    58e8:	5d ce       	rjmp	.-838    	; 0x55a4 <vfprintf+0x22>
    58ea:	b7 01       	movw	r22, r14
    58ec:	80 e2       	ldi	r24, 0x20	; 32
    58ee:	90 e0       	ldi	r25, 0x00	; 0
    58f0:	21 d0       	rcall	.+66     	; 0x5934 <fputc>
    58f2:	3a 94       	dec	r3
    58f4:	f7 cf       	rjmp	.-18     	; 0x58e4 <vfprintf+0x362>
    58f6:	f7 01       	movw	r30, r14
    58f8:	86 81       	ldd	r24, Z+6	; 0x06
    58fa:	97 81       	ldd	r25, Z+7	; 0x07
    58fc:	02 c0       	rjmp	.+4      	; 0x5902 <vfprintf+0x380>
    58fe:	8f ef       	ldi	r24, 0xFF	; 255
    5900:	9f ef       	ldi	r25, 0xFF	; 255
    5902:	2c 96       	adiw	r28, 0x0c	; 12
    5904:	e2 e1       	ldi	r30, 0x12	; 18
    5906:	18 c1       	rjmp	.+560    	; 0x5b38 <__epilogue_restores__>

00005908 <strnlen_P>:
    5908:	fc 01       	movw	r30, r24
    590a:	05 90       	lpm	r0, Z+
    590c:	61 50       	subi	r22, 0x01	; 1
    590e:	70 40       	sbci	r23, 0x00	; 0
    5910:	01 10       	cpse	r0, r1
    5912:	d8 f7       	brcc	.-10     	; 0x590a <strnlen_P+0x2>
    5914:	80 95       	com	r24
    5916:	90 95       	com	r25
    5918:	8e 0f       	add	r24, r30
    591a:	9f 1f       	adc	r25, r31
    591c:	08 95       	ret

0000591e <strnlen>:
    591e:	fc 01       	movw	r30, r24
    5920:	61 50       	subi	r22, 0x01	; 1
    5922:	70 40       	sbci	r23, 0x00	; 0
    5924:	01 90       	ld	r0, Z+
    5926:	01 10       	cpse	r0, r1
    5928:	d8 f7       	brcc	.-10     	; 0x5920 <strnlen+0x2>
    592a:	80 95       	com	r24
    592c:	90 95       	com	r25
    592e:	8e 0f       	add	r24, r30
    5930:	9f 1f       	adc	r25, r31
    5932:	08 95       	ret

00005934 <fputc>:
    5934:	0f 93       	push	r16
    5936:	1f 93       	push	r17
    5938:	cf 93       	push	r28
    593a:	df 93       	push	r29
    593c:	fb 01       	movw	r30, r22
    593e:	23 81       	ldd	r18, Z+3	; 0x03
    5940:	21 fd       	sbrc	r18, 1
    5942:	03 c0       	rjmp	.+6      	; 0x594a <fputc+0x16>
    5944:	8f ef       	ldi	r24, 0xFF	; 255
    5946:	9f ef       	ldi	r25, 0xFF	; 255
    5948:	28 c0       	rjmp	.+80     	; 0x599a <fputc+0x66>
    594a:	22 ff       	sbrs	r18, 2
    594c:	16 c0       	rjmp	.+44     	; 0x597a <fputc+0x46>
    594e:	46 81       	ldd	r20, Z+6	; 0x06
    5950:	57 81       	ldd	r21, Z+7	; 0x07
    5952:	24 81       	ldd	r18, Z+4	; 0x04
    5954:	35 81       	ldd	r19, Z+5	; 0x05
    5956:	42 17       	cp	r20, r18
    5958:	53 07       	cpc	r21, r19
    595a:	44 f4       	brge	.+16     	; 0x596c <fputc+0x38>
    595c:	a0 81       	ld	r26, Z
    595e:	b1 81       	ldd	r27, Z+1	; 0x01
    5960:	9d 01       	movw	r18, r26
    5962:	2f 5f       	subi	r18, 0xFF	; 255
    5964:	3f 4f       	sbci	r19, 0xFF	; 255
    5966:	20 83       	st	Z, r18
    5968:	31 83       	std	Z+1, r19	; 0x01
    596a:	8c 93       	st	X, r24
    596c:	26 81       	ldd	r18, Z+6	; 0x06
    596e:	37 81       	ldd	r19, Z+7	; 0x07
    5970:	2f 5f       	subi	r18, 0xFF	; 255
    5972:	3f 4f       	sbci	r19, 0xFF	; 255
    5974:	26 83       	std	Z+6, r18	; 0x06
    5976:	37 83       	std	Z+7, r19	; 0x07
    5978:	10 c0       	rjmp	.+32     	; 0x599a <fputc+0x66>
    597a:	eb 01       	movw	r28, r22
    597c:	09 2f       	mov	r16, r25
    597e:	18 2f       	mov	r17, r24
    5980:	00 84       	ldd	r0, Z+8	; 0x08
    5982:	f1 85       	ldd	r31, Z+9	; 0x09
    5984:	e0 2d       	mov	r30, r0
    5986:	09 95       	icall
    5988:	89 2b       	or	r24, r25
    598a:	e1 f6       	brne	.-72     	; 0x5944 <fputc+0x10>
    598c:	8e 81       	ldd	r24, Y+6	; 0x06
    598e:	9f 81       	ldd	r25, Y+7	; 0x07
    5990:	01 96       	adiw	r24, 0x01	; 1
    5992:	8e 83       	std	Y+6, r24	; 0x06
    5994:	9f 83       	std	Y+7, r25	; 0x07
    5996:	81 2f       	mov	r24, r17
    5998:	90 2f       	mov	r25, r16
    599a:	df 91       	pop	r29
    599c:	cf 91       	pop	r28
    599e:	1f 91       	pop	r17
    59a0:	0f 91       	pop	r16
    59a2:	08 95       	ret

000059a4 <__ultoa_invert>:
    59a4:	fa 01       	movw	r30, r20
    59a6:	aa 27       	eor	r26, r26
    59a8:	28 30       	cpi	r18, 0x08	; 8
    59aa:	51 f1       	breq	.+84     	; 0x5a00 <__ultoa_invert+0x5c>
    59ac:	20 31       	cpi	r18, 0x10	; 16
    59ae:	81 f1       	breq	.+96     	; 0x5a10 <__ultoa_invert+0x6c>
    59b0:	e8 94       	clt
    59b2:	6f 93       	push	r22
    59b4:	6e 7f       	andi	r22, 0xFE	; 254
    59b6:	6e 5f       	subi	r22, 0xFE	; 254
    59b8:	7f 4f       	sbci	r23, 0xFF	; 255
    59ba:	8f 4f       	sbci	r24, 0xFF	; 255
    59bc:	9f 4f       	sbci	r25, 0xFF	; 255
    59be:	af 4f       	sbci	r26, 0xFF	; 255
    59c0:	b1 e0       	ldi	r27, 0x01	; 1
    59c2:	3e d0       	rcall	.+124    	; 0x5a40 <__ultoa_invert+0x9c>
    59c4:	b4 e0       	ldi	r27, 0x04	; 4
    59c6:	3c d0       	rcall	.+120    	; 0x5a40 <__ultoa_invert+0x9c>
    59c8:	67 0f       	add	r22, r23
    59ca:	78 1f       	adc	r23, r24
    59cc:	89 1f       	adc	r24, r25
    59ce:	9a 1f       	adc	r25, r26
    59d0:	a1 1d       	adc	r26, r1
    59d2:	68 0f       	add	r22, r24
    59d4:	79 1f       	adc	r23, r25
    59d6:	8a 1f       	adc	r24, r26
    59d8:	91 1d       	adc	r25, r1
    59da:	a1 1d       	adc	r26, r1
    59dc:	6a 0f       	add	r22, r26
    59de:	71 1d       	adc	r23, r1
    59e0:	81 1d       	adc	r24, r1
    59e2:	91 1d       	adc	r25, r1
    59e4:	a1 1d       	adc	r26, r1
    59e6:	20 d0       	rcall	.+64     	; 0x5a28 <__ultoa_invert+0x84>
    59e8:	09 f4       	brne	.+2      	; 0x59ec <__ultoa_invert+0x48>
    59ea:	68 94       	set
    59ec:	3f 91       	pop	r19
    59ee:	2a e0       	ldi	r18, 0x0A	; 10
    59f0:	26 9f       	mul	r18, r22
    59f2:	11 24       	eor	r1, r1
    59f4:	30 19       	sub	r19, r0
    59f6:	30 5d       	subi	r19, 0xD0	; 208
    59f8:	31 93       	st	Z+, r19
    59fa:	de f6       	brtc	.-74     	; 0x59b2 <__ultoa_invert+0xe>
    59fc:	cf 01       	movw	r24, r30
    59fe:	08 95       	ret
    5a00:	46 2f       	mov	r20, r22
    5a02:	47 70       	andi	r20, 0x07	; 7
    5a04:	40 5d       	subi	r20, 0xD0	; 208
    5a06:	41 93       	st	Z+, r20
    5a08:	b3 e0       	ldi	r27, 0x03	; 3
    5a0a:	0f d0       	rcall	.+30     	; 0x5a2a <__ultoa_invert+0x86>
    5a0c:	c9 f7       	brne	.-14     	; 0x5a00 <__ultoa_invert+0x5c>
    5a0e:	f6 cf       	rjmp	.-20     	; 0x59fc <__ultoa_invert+0x58>
    5a10:	46 2f       	mov	r20, r22
    5a12:	4f 70       	andi	r20, 0x0F	; 15
    5a14:	40 5d       	subi	r20, 0xD0	; 208
    5a16:	4a 33       	cpi	r20, 0x3A	; 58
    5a18:	18 f0       	brcs	.+6      	; 0x5a20 <__ultoa_invert+0x7c>
    5a1a:	49 5d       	subi	r20, 0xD9	; 217
    5a1c:	31 fd       	sbrc	r19, 1
    5a1e:	40 52       	subi	r20, 0x20	; 32
    5a20:	41 93       	st	Z+, r20
    5a22:	02 d0       	rcall	.+4      	; 0x5a28 <__ultoa_invert+0x84>
    5a24:	a9 f7       	brne	.-22     	; 0x5a10 <__ultoa_invert+0x6c>
    5a26:	ea cf       	rjmp	.-44     	; 0x59fc <__ultoa_invert+0x58>
    5a28:	b4 e0       	ldi	r27, 0x04	; 4
    5a2a:	a6 95       	lsr	r26
    5a2c:	97 95       	ror	r25
    5a2e:	87 95       	ror	r24
    5a30:	77 95       	ror	r23
    5a32:	67 95       	ror	r22
    5a34:	ba 95       	dec	r27
    5a36:	c9 f7       	brne	.-14     	; 0x5a2a <__ultoa_invert+0x86>
    5a38:	00 97       	sbiw	r24, 0x00	; 0
    5a3a:	61 05       	cpc	r22, r1
    5a3c:	71 05       	cpc	r23, r1
    5a3e:	08 95       	ret
    5a40:	9b 01       	movw	r18, r22
    5a42:	ac 01       	movw	r20, r24
    5a44:	0a 2e       	mov	r0, r26
    5a46:	06 94       	lsr	r0
    5a48:	57 95       	ror	r21
    5a4a:	47 95       	ror	r20
    5a4c:	37 95       	ror	r19
    5a4e:	27 95       	ror	r18
    5a50:	ba 95       	dec	r27
    5a52:	c9 f7       	brne	.-14     	; 0x5a46 <__ultoa_invert+0xa2>
    5a54:	62 0f       	add	r22, r18
    5a56:	73 1f       	adc	r23, r19
    5a58:	84 1f       	adc	r24, r20
    5a5a:	95 1f       	adc	r25, r21
    5a5c:	a0 1d       	adc	r26, r0
    5a5e:	08 95       	ret

00005a60 <eeprom_read_block>:
    5a60:	e0 ec       	ldi	r30, 0xC0	; 192
    5a62:	f1 e0       	ldi	r31, 0x01	; 1
    5a64:	a7 85       	ldd	r26, Z+15	; 0x0f
    5a66:	a7 fd       	sbrc	r26, 7
    5a68:	fd cf       	rjmp	.-6      	; 0x5a64 <eeprom_read_block+0x4>
    5a6a:	a4 85       	ldd	r26, Z+12	; 0x0c
    5a6c:	a8 60       	ori	r26, 0x08	; 8
    5a6e:	a4 87       	std	Z+12, r26	; 0x0c
    5a70:	60 50       	subi	r22, 0x00	; 0
    5a72:	70 4f       	sbci	r23, 0xF0	; 240
    5a74:	49 cd       	rjmp	.-1390   	; 0x5508 <memcpy>

00005a76 <eeprom_write_block>:
    5a76:	dc 01       	movw	r26, r24
    5a78:	cb 01       	movw	r24, r22
    5a7a:	02 c0       	rjmp	.+4      	; 0x5a80 <eeprom_write_block+0xa>
    5a7c:	2d 91       	ld	r18, X+
    5a7e:	05 d0       	rcall	.+10     	; 0x5a8a <eeprom_write_r18>
    5a80:	41 50       	subi	r20, 0x01	; 1
    5a82:	50 40       	sbci	r21, 0x00	; 0
    5a84:	d8 f7       	brcc	.-10     	; 0x5a7c <eeprom_write_block+0x6>
    5a86:	08 95       	ret

00005a88 <eeprom_write_byte>:
    5a88:	26 2f       	mov	r18, r22

00005a8a <eeprom_write_r18>:
    5a8a:	e0 ec       	ldi	r30, 0xC0	; 192
    5a8c:	f1 e0       	ldi	r31, 0x01	; 1
    5a8e:	37 85       	ldd	r19, Z+15	; 0x0f
    5a90:	37 fd       	sbrc	r19, 7
    5a92:	fd cf       	rjmp	.-6      	; 0x5a8e <eeprom_write_r18+0x4>
    5a94:	34 85       	ldd	r19, Z+12	; 0x0c
    5a96:	37 7f       	andi	r19, 0xF7	; 247
    5a98:	34 87       	std	Z+12, r19	; 0x0c
    5a9a:	37 85       	ldd	r19, Z+15	; 0x0f
    5a9c:	31 ff       	sbrs	r19, 1
    5a9e:	09 c0       	rjmp	.+18     	; 0x5ab2 <eeprom_write_r18+0x28>
    5aa0:	36 e3       	ldi	r19, 0x36	; 54
    5aa2:	32 87       	std	Z+10, r19	; 0x0a
    5aa4:	38 ed       	ldi	r19, 0xD8	; 216
    5aa6:	34 bf       	out	0x34, r19	; 52
    5aa8:	31 e0       	ldi	r19, 0x01	; 1
    5aaa:	33 87       	std	Z+11, r19	; 0x0b
    5aac:	37 85       	ldd	r19, Z+15	; 0x0f
    5aae:	37 fd       	sbrc	r19, 7
    5ab0:	fd cf       	rjmp	.-6      	; 0x5aac <eeprom_write_r18+0x22>
    5ab2:	33 e3       	ldi	r19, 0x33	; 51
    5ab4:	32 87       	std	Z+10, r19	; 0x0a
    5ab6:	80 83       	st	Z, r24
    5ab8:	91 83       	std	Z+1, r25	; 0x01
    5aba:	12 82       	std	Z+2, r1	; 0x02
    5abc:	24 83       	std	Z+4, r18	; 0x04
    5abe:	25 e3       	ldi	r18, 0x35	; 53
    5ac0:	22 87       	std	Z+10, r18	; 0x0a
    5ac2:	28 ed       	ldi	r18, 0xD8	; 216
    5ac4:	31 e0       	ldi	r19, 0x01	; 1
    5ac6:	24 bf       	out	0x34, r18	; 52
    5ac8:	33 87       	std	Z+11, r19	; 0x0b
    5aca:	01 96       	adiw	r24, 0x01	; 1
    5acc:	08 95       	ret

00005ace <__divmodsi4>:
    5ace:	05 2e       	mov	r0, r21
    5ad0:	97 fb       	bst	r25, 7
    5ad2:	16 f4       	brtc	.+4      	; 0x5ad8 <__divmodsi4+0xa>
    5ad4:	00 94       	com	r0
    5ad6:	0f d0       	rcall	.+30     	; 0x5af6 <__negsi2>
    5ad8:	57 fd       	sbrc	r21, 7
    5ada:	05 d0       	rcall	.+10     	; 0x5ae6 <__divmodsi4_neg2>
    5adc:	51 dc       	rcall	.-1886   	; 0x5380 <__udivmodsi4>
    5ade:	07 fc       	sbrc	r0, 7
    5ae0:	02 d0       	rcall	.+4      	; 0x5ae6 <__divmodsi4_neg2>
    5ae2:	46 f4       	brtc	.+16     	; 0x5af4 <__divmodsi4_exit>
    5ae4:	08 c0       	rjmp	.+16     	; 0x5af6 <__negsi2>

00005ae6 <__divmodsi4_neg2>:
    5ae6:	50 95       	com	r21
    5ae8:	40 95       	com	r20
    5aea:	30 95       	com	r19
    5aec:	21 95       	neg	r18
    5aee:	3f 4f       	sbci	r19, 0xFF	; 255
    5af0:	4f 4f       	sbci	r20, 0xFF	; 255
    5af2:	5f 4f       	sbci	r21, 0xFF	; 255

00005af4 <__divmodsi4_exit>:
    5af4:	08 95       	ret

00005af6 <__negsi2>:
    5af6:	90 95       	com	r25
    5af8:	80 95       	com	r24
    5afa:	70 95       	com	r23
    5afc:	61 95       	neg	r22
    5afe:	7f 4f       	sbci	r23, 0xFF	; 255
    5b00:	8f 4f       	sbci	r24, 0xFF	; 255
    5b02:	9f 4f       	sbci	r25, 0xFF	; 255
    5b04:	08 95       	ret

00005b06 <__prologue_saves__>:
    5b06:	2f 92       	push	r2
    5b08:	3f 92       	push	r3
    5b0a:	4f 92       	push	r4
    5b0c:	5f 92       	push	r5
    5b0e:	6f 92       	push	r6
    5b10:	7f 92       	push	r7
    5b12:	8f 92       	push	r8
    5b14:	9f 92       	push	r9
    5b16:	af 92       	push	r10
    5b18:	bf 92       	push	r11
    5b1a:	cf 92       	push	r12
    5b1c:	df 92       	push	r13
    5b1e:	ef 92       	push	r14
    5b20:	ff 92       	push	r15
    5b22:	0f 93       	push	r16
    5b24:	1f 93       	push	r17
    5b26:	cf 93       	push	r28
    5b28:	df 93       	push	r29
    5b2a:	cd b7       	in	r28, 0x3d	; 61
    5b2c:	de b7       	in	r29, 0x3e	; 62
    5b2e:	ca 1b       	sub	r28, r26
    5b30:	db 0b       	sbc	r29, r27
    5b32:	cd bf       	out	0x3d, r28	; 61
    5b34:	de bf       	out	0x3e, r29	; 62
    5b36:	09 94       	ijmp

00005b38 <__epilogue_restores__>:
    5b38:	2a 88       	ldd	r2, Y+18	; 0x12
    5b3a:	39 88       	ldd	r3, Y+17	; 0x11
    5b3c:	48 88       	ldd	r4, Y+16	; 0x10
    5b3e:	5f 84       	ldd	r5, Y+15	; 0x0f
    5b40:	6e 84       	ldd	r6, Y+14	; 0x0e
    5b42:	7d 84       	ldd	r7, Y+13	; 0x0d
    5b44:	8c 84       	ldd	r8, Y+12	; 0x0c
    5b46:	9b 84       	ldd	r9, Y+11	; 0x0b
    5b48:	aa 84       	ldd	r10, Y+10	; 0x0a
    5b4a:	b9 84       	ldd	r11, Y+9	; 0x09
    5b4c:	c8 84       	ldd	r12, Y+8	; 0x08
    5b4e:	df 80       	ldd	r13, Y+7	; 0x07
    5b50:	ee 80       	ldd	r14, Y+6	; 0x06
    5b52:	fd 80       	ldd	r15, Y+5	; 0x05
    5b54:	0c 81       	ldd	r16, Y+4	; 0x04
    5b56:	1b 81       	ldd	r17, Y+3	; 0x03
    5b58:	aa 81       	ldd	r26, Y+2	; 0x02
    5b5a:	b9 81       	ldd	r27, Y+1	; 0x01
    5b5c:	ce 0f       	add	r28, r30
    5b5e:	d1 1d       	adc	r29, r1
    5b60:	cd bf       	out	0x3d, r28	; 61
    5b62:	de bf       	out	0x3e, r29	; 62
    5b64:	ed 01       	movw	r28, r26
    5b66:	08 95       	ret

00005b68 <_exit>:
    5b68:	f8 94       	cli

00005b6a <__stop_program>:
    5b6a:	ff cf       	rjmp	.-2      	; 0x5b6a <__stop_program>
